
MARK_II_BLUE.elf:     file format elf32-littlearm

Sections:
Idx Name          Size      VMA       LMA       File off  Algn
  0 .isr_vector   0000010c  08000000  08000000  00010000  2**0
                  CONTENTS, ALLOC, LOAD, READONLY, DATA
  1 .text         00007b9c  08000110  08000110  00010110  2**3
                  CONTENTS, ALLOC, LOAD, READONLY, CODE
  2 .rodata       00000404  08007cac  08007cac  00017cac  2**2
                  CONTENTS, ALLOC, LOAD, READONLY, DATA
  3 .ARM.extab    00000000  080080b0  080080b0  000201a0  2**0
                  CONTENTS
  4 .ARM          00000000  080080b0  080080b0  000201a0  2**0
                  CONTENTS
  5 .preinit_array 00000000  080080b0  080080b0  000201a0  2**0
                  CONTENTS, ALLOC, LOAD, DATA
  6 .init_array   00000004  080080b0  080080b0  000180b0  2**2
                  CONTENTS, ALLOC, LOAD, DATA
  7 .fini_array   00000004  080080b4  080080b4  000180b4  2**2
                  CONTENTS, ALLOC, LOAD, DATA
  8 .data         000001a0  20000000  080080b8  00020000  2**2
                  CONTENTS, ALLOC, LOAD, DATA
  9 .bss          00002228  200001a0  08008258  000201a0  2**2
                  ALLOC
 10 ._user_heap_stack 00000600  200023c8  08008258  000223c8  2**0
                  ALLOC
 11 .ARM.attributes 00000029  00000000  00000000  000201a0  2**0
                  CONTENTS, READONLY
 12 .comment      00000043  00000000  00000000  000201c9  2**0
                  CONTENTS, READONLY
 13 .debug_frame  00000234  00000000  00000000  0002020c  2**2
                  CONTENTS, READONLY, DEBUGGING, OCTETS

Disassembly of section .text:

08000110 <__do_global_dtors_aux>:
 8000110:	b510      	push	{r4, lr}
 8000112:	4c05      	ldr	r4, [pc, #20]	; (8000128 <__do_global_dtors_aux+0x18>)
 8000114:	7823      	ldrb	r3, [r4, #0]
 8000116:	b933      	cbnz	r3, 8000126 <__do_global_dtors_aux+0x16>
 8000118:	4b04      	ldr	r3, [pc, #16]	; (800012c <__do_global_dtors_aux+0x1c>)
 800011a:	b113      	cbz	r3, 8000122 <__do_global_dtors_aux+0x12>
 800011c:	4804      	ldr	r0, [pc, #16]	; (8000130 <__do_global_dtors_aux+0x20>)
 800011e:	f3af 8000 	nop.w
 8000122:	2301      	movs	r3, #1
 8000124:	7023      	strb	r3, [r4, #0]
 8000126:	bd10      	pop	{r4, pc}
 8000128:	200001a0 	.word	0x200001a0
 800012c:	00000000 	.word	0x00000000
 8000130:	08007c94 	.word	0x08007c94

08000134 <frame_dummy>:
 8000134:	b508      	push	{r3, lr}
 8000136:	4b03      	ldr	r3, [pc, #12]	; (8000144 <frame_dummy+0x10>)
 8000138:	b11b      	cbz	r3, 8000142 <frame_dummy+0xe>
 800013a:	4903      	ldr	r1, [pc, #12]	; (8000148 <frame_dummy+0x14>)
 800013c:	4803      	ldr	r0, [pc, #12]	; (800014c <frame_dummy+0x18>)
 800013e:	f3af 8000 	nop.w
 8000142:	bd08      	pop	{r3, pc}
 8000144:	00000000 	.word	0x00000000
 8000148:	200001a4 	.word	0x200001a4
 800014c:	08007c94 	.word	0x08007c94

08000150 <strlen>:
 8000150:	4603      	mov	r3, r0
 8000152:	f813 2b01 	ldrb.w	r2, [r3], #1
 8000156:	2a00      	cmp	r2, #0
 8000158:	d1fb      	bne.n	8000152 <strlen+0x2>
 800015a:	1a18      	subs	r0, r3, r0
 800015c:	3801      	subs	r0, #1
 800015e:	4770      	bx	lr

08000160 <__aeabi_drsub>:
 8000160:	f081 4100 	eor.w	r1, r1, #2147483648	; 0x80000000
 8000164:	e002      	b.n	800016c <__adddf3>
 8000166:	bf00      	nop

08000168 <__aeabi_dsub>:
 8000168:	f083 4300 	eor.w	r3, r3, #2147483648	; 0x80000000

0800016c <__adddf3>:
 800016c:	b530      	push	{r4, r5, lr}
 800016e:	ea4f 0441 	mov.w	r4, r1, lsl #1
 8000172:	ea4f 0543 	mov.w	r5, r3, lsl #1
 8000176:	ea94 0f05 	teq	r4, r5
 800017a:	bf08      	it	eq
 800017c:	ea90 0f02 	teqeq	r0, r2
 8000180:	bf1f      	itttt	ne
 8000182:	ea54 0c00 	orrsne.w	ip, r4, r0
 8000186:	ea55 0c02 	orrsne.w	ip, r5, r2
 800018a:	ea7f 5c64 	mvnsne.w	ip, r4, asr #21
 800018e:	ea7f 5c65 	mvnsne.w	ip, r5, asr #21
 8000192:	f000 80e2 	beq.w	800035a <__adddf3+0x1ee>
 8000196:	ea4f 5454 	mov.w	r4, r4, lsr #21
 800019a:	ebd4 5555 	rsbs	r5, r4, r5, lsr #21
 800019e:	bfb8      	it	lt
 80001a0:	426d      	neglt	r5, r5
 80001a2:	dd0c      	ble.n	80001be <__adddf3+0x52>
 80001a4:	442c      	add	r4, r5
 80001a6:	ea80 0202 	eor.w	r2, r0, r2
 80001aa:	ea81 0303 	eor.w	r3, r1, r3
 80001ae:	ea82 0000 	eor.w	r0, r2, r0
 80001b2:	ea83 0101 	eor.w	r1, r3, r1
 80001b6:	ea80 0202 	eor.w	r2, r0, r2
 80001ba:	ea81 0303 	eor.w	r3, r1, r3
 80001be:	2d36      	cmp	r5, #54	; 0x36
 80001c0:	bf88      	it	hi
 80001c2:	bd30      	pophi	{r4, r5, pc}
 80001c4:	f011 4f00 	tst.w	r1, #2147483648	; 0x80000000
 80001c8:	ea4f 3101 	mov.w	r1, r1, lsl #12
 80001cc:	f44f 1c80 	mov.w	ip, #1048576	; 0x100000
 80001d0:	ea4c 3111 	orr.w	r1, ip, r1, lsr #12
 80001d4:	d002      	beq.n	80001dc <__adddf3+0x70>
 80001d6:	4240      	negs	r0, r0
 80001d8:	eb61 0141 	sbc.w	r1, r1, r1, lsl #1
 80001dc:	f013 4f00 	tst.w	r3, #2147483648	; 0x80000000
 80001e0:	ea4f 3303 	mov.w	r3, r3, lsl #12
 80001e4:	ea4c 3313 	orr.w	r3, ip, r3, lsr #12
 80001e8:	d002      	beq.n	80001f0 <__adddf3+0x84>
 80001ea:	4252      	negs	r2, r2
 80001ec:	eb63 0343 	sbc.w	r3, r3, r3, lsl #1
 80001f0:	ea94 0f05 	teq	r4, r5
 80001f4:	f000 80a7 	beq.w	8000346 <__adddf3+0x1da>
 80001f8:	f1a4 0401 	sub.w	r4, r4, #1
 80001fc:	f1d5 0e20 	rsbs	lr, r5, #32
 8000200:	db0d      	blt.n	800021e <__adddf3+0xb2>
 8000202:	fa02 fc0e 	lsl.w	ip, r2, lr
 8000206:	fa22 f205 	lsr.w	r2, r2, r5
 800020a:	1880      	adds	r0, r0, r2
 800020c:	f141 0100 	adc.w	r1, r1, #0
 8000210:	fa03 f20e 	lsl.w	r2, r3, lr
 8000214:	1880      	adds	r0, r0, r2
 8000216:	fa43 f305 	asr.w	r3, r3, r5
 800021a:	4159      	adcs	r1, r3
 800021c:	e00e      	b.n	800023c <__adddf3+0xd0>
 800021e:	f1a5 0520 	sub.w	r5, r5, #32
 8000222:	f10e 0e20 	add.w	lr, lr, #32
 8000226:	2a01      	cmp	r2, #1
 8000228:	fa03 fc0e 	lsl.w	ip, r3, lr
 800022c:	bf28      	it	cs
 800022e:	f04c 0c02 	orrcs.w	ip, ip, #2
 8000232:	fa43 f305 	asr.w	r3, r3, r5
 8000236:	18c0      	adds	r0, r0, r3
 8000238:	eb51 71e3 	adcs.w	r1, r1, r3, asr #31
 800023c:	f001 4500 	and.w	r5, r1, #2147483648	; 0x80000000
 8000240:	d507      	bpl.n	8000252 <__adddf3+0xe6>
 8000242:	f04f 0e00 	mov.w	lr, #0
 8000246:	f1dc 0c00 	rsbs	ip, ip, #0
 800024a:	eb7e 0000 	sbcs.w	r0, lr, r0
 800024e:	eb6e 0101 	sbc.w	r1, lr, r1
 8000252:	f5b1 1f80 	cmp.w	r1, #1048576	; 0x100000
 8000256:	d31b      	bcc.n	8000290 <__adddf3+0x124>
 8000258:	f5b1 1f00 	cmp.w	r1, #2097152	; 0x200000
 800025c:	d30c      	bcc.n	8000278 <__adddf3+0x10c>
 800025e:	0849      	lsrs	r1, r1, #1
 8000260:	ea5f 0030 	movs.w	r0, r0, rrx
 8000264:	ea4f 0c3c 	mov.w	ip, ip, rrx
 8000268:	f104 0401 	add.w	r4, r4, #1
 800026c:	ea4f 5244 	mov.w	r2, r4, lsl #21
 8000270:	f512 0f80 	cmn.w	r2, #4194304	; 0x400000
 8000274:	f080 809a 	bcs.w	80003ac <__adddf3+0x240>
 8000278:	f1bc 4f00 	cmp.w	ip, #2147483648	; 0x80000000
 800027c:	bf08      	it	eq
 800027e:	ea5f 0c50 	movseq.w	ip, r0, lsr #1
 8000282:	f150 0000 	adcs.w	r0, r0, #0
 8000286:	eb41 5104 	adc.w	r1, r1, r4, lsl #20
 800028a:	ea41 0105 	orr.w	r1, r1, r5
 800028e:	bd30      	pop	{r4, r5, pc}
 8000290:	ea5f 0c4c 	movs.w	ip, ip, lsl #1
 8000294:	4140      	adcs	r0, r0
 8000296:	eb41 0101 	adc.w	r1, r1, r1
 800029a:	3c01      	subs	r4, #1
 800029c:	bf28      	it	cs
 800029e:	f5b1 1f80 	cmpcs.w	r1, #1048576	; 0x100000
 80002a2:	d2e9      	bcs.n	8000278 <__adddf3+0x10c>
 80002a4:	f091 0f00 	teq	r1, #0
 80002a8:	bf04      	itt	eq
 80002aa:	4601      	moveq	r1, r0
 80002ac:	2000      	moveq	r0, #0
 80002ae:	fab1 f381 	clz	r3, r1
 80002b2:	bf08      	it	eq
 80002b4:	3320      	addeq	r3, #32
 80002b6:	f1a3 030b 	sub.w	r3, r3, #11
 80002ba:	f1b3 0220 	subs.w	r2, r3, #32
 80002be:	da0c      	bge.n	80002da <__adddf3+0x16e>
 80002c0:	320c      	adds	r2, #12
 80002c2:	dd08      	ble.n	80002d6 <__adddf3+0x16a>
 80002c4:	f102 0c14 	add.w	ip, r2, #20
 80002c8:	f1c2 020c 	rsb	r2, r2, #12
 80002cc:	fa01 f00c 	lsl.w	r0, r1, ip
 80002d0:	fa21 f102 	lsr.w	r1, r1, r2
 80002d4:	e00c      	b.n	80002f0 <__adddf3+0x184>
 80002d6:	f102 0214 	add.w	r2, r2, #20
 80002da:	bfd8      	it	le
 80002dc:	f1c2 0c20 	rsble	ip, r2, #32
 80002e0:	fa01 f102 	lsl.w	r1, r1, r2
 80002e4:	fa20 fc0c 	lsr.w	ip, r0, ip
 80002e8:	bfdc      	itt	le
 80002ea:	ea41 010c 	orrle.w	r1, r1, ip
 80002ee:	4090      	lslle	r0, r2
 80002f0:	1ae4      	subs	r4, r4, r3
 80002f2:	bfa2      	ittt	ge
 80002f4:	eb01 5104 	addge.w	r1, r1, r4, lsl #20
 80002f8:	4329      	orrge	r1, r5
 80002fa:	bd30      	popge	{r4, r5, pc}
 80002fc:	ea6f 0404 	mvn.w	r4, r4
 8000300:	3c1f      	subs	r4, #31
 8000302:	da1c      	bge.n	800033e <__adddf3+0x1d2>
 8000304:	340c      	adds	r4, #12
 8000306:	dc0e      	bgt.n	8000326 <__adddf3+0x1ba>
 8000308:	f104 0414 	add.w	r4, r4, #20
 800030c:	f1c4 0220 	rsb	r2, r4, #32
 8000310:	fa20 f004 	lsr.w	r0, r0, r4
 8000314:	fa01 f302 	lsl.w	r3, r1, r2
 8000318:	ea40 0003 	orr.w	r0, r0, r3
 800031c:	fa21 f304 	lsr.w	r3, r1, r4
 8000320:	ea45 0103 	orr.w	r1, r5, r3
 8000324:	bd30      	pop	{r4, r5, pc}
 8000326:	f1c4 040c 	rsb	r4, r4, #12
 800032a:	f1c4 0220 	rsb	r2, r4, #32
 800032e:	fa20 f002 	lsr.w	r0, r0, r2
 8000332:	fa01 f304 	lsl.w	r3, r1, r4
 8000336:	ea40 0003 	orr.w	r0, r0, r3
 800033a:	4629      	mov	r1, r5
 800033c:	bd30      	pop	{r4, r5, pc}
 800033e:	fa21 f004 	lsr.w	r0, r1, r4
 8000342:	4629      	mov	r1, r5
 8000344:	bd30      	pop	{r4, r5, pc}
 8000346:	f094 0f00 	teq	r4, #0
 800034a:	f483 1380 	eor.w	r3, r3, #1048576	; 0x100000
 800034e:	bf06      	itte	eq
 8000350:	f481 1180 	eoreq.w	r1, r1, #1048576	; 0x100000
 8000354:	3401      	addeq	r4, #1
 8000356:	3d01      	subne	r5, #1
 8000358:	e74e      	b.n	80001f8 <__adddf3+0x8c>
 800035a:	ea7f 5c64 	mvns.w	ip, r4, asr #21
 800035e:	bf18      	it	ne
 8000360:	ea7f 5c65 	mvnsne.w	ip, r5, asr #21
 8000364:	d029      	beq.n	80003ba <__adddf3+0x24e>
 8000366:	ea94 0f05 	teq	r4, r5
 800036a:	bf08      	it	eq
 800036c:	ea90 0f02 	teqeq	r0, r2
 8000370:	d005      	beq.n	800037e <__adddf3+0x212>
 8000372:	ea54 0c00 	orrs.w	ip, r4, r0
 8000376:	bf04      	itt	eq
 8000378:	4619      	moveq	r1, r3
 800037a:	4610      	moveq	r0, r2
 800037c:	bd30      	pop	{r4, r5, pc}
 800037e:	ea91 0f03 	teq	r1, r3
 8000382:	bf1e      	ittt	ne
 8000384:	2100      	movne	r1, #0
 8000386:	2000      	movne	r0, #0
 8000388:	bd30      	popne	{r4, r5, pc}
 800038a:	ea5f 5c54 	movs.w	ip, r4, lsr #21
 800038e:	d105      	bne.n	800039c <__adddf3+0x230>
 8000390:	0040      	lsls	r0, r0, #1
 8000392:	4149      	adcs	r1, r1
 8000394:	bf28      	it	cs
 8000396:	f041 4100 	orrcs.w	r1, r1, #2147483648	; 0x80000000
 800039a:	bd30      	pop	{r4, r5, pc}
 800039c:	f514 0480 	adds.w	r4, r4, #4194304	; 0x400000
 80003a0:	bf3c      	itt	cc
 80003a2:	f501 1180 	addcc.w	r1, r1, #1048576	; 0x100000
 80003a6:	bd30      	popcc	{r4, r5, pc}
 80003a8:	f001 4500 	and.w	r5, r1, #2147483648	; 0x80000000
 80003ac:	f045 41fe 	orr.w	r1, r5, #2130706432	; 0x7f000000
 80003b0:	f441 0170 	orr.w	r1, r1, #15728640	; 0xf00000
 80003b4:	f04f 0000 	mov.w	r0, #0
 80003b8:	bd30      	pop	{r4, r5, pc}
 80003ba:	ea7f 5c64 	mvns.w	ip, r4, asr #21
 80003be:	bf1a      	itte	ne
 80003c0:	4619      	movne	r1, r3
 80003c2:	4610      	movne	r0, r2
 80003c4:	ea7f 5c65 	mvnseq.w	ip, r5, asr #21
 80003c8:	bf1c      	itt	ne
 80003ca:	460b      	movne	r3, r1
 80003cc:	4602      	movne	r2, r0
 80003ce:	ea50 3401 	orrs.w	r4, r0, r1, lsl #12
 80003d2:	bf06      	itte	eq
 80003d4:	ea52 3503 	orrseq.w	r5, r2, r3, lsl #12
 80003d8:	ea91 0f03 	teqeq	r1, r3
 80003dc:	f441 2100 	orrne.w	r1, r1, #524288	; 0x80000
 80003e0:	bd30      	pop	{r4, r5, pc}
 80003e2:	bf00      	nop

080003e4 <__aeabi_ui2d>:
 80003e4:	f090 0f00 	teq	r0, #0
 80003e8:	bf04      	itt	eq
 80003ea:	2100      	moveq	r1, #0
 80003ec:	4770      	bxeq	lr
 80003ee:	b530      	push	{r4, r5, lr}
 80003f0:	f44f 6480 	mov.w	r4, #1024	; 0x400
 80003f4:	f104 0432 	add.w	r4, r4, #50	; 0x32
 80003f8:	f04f 0500 	mov.w	r5, #0
 80003fc:	f04f 0100 	mov.w	r1, #0
 8000400:	e750      	b.n	80002a4 <__adddf3+0x138>
 8000402:	bf00      	nop

08000404 <__aeabi_i2d>:
 8000404:	f090 0f00 	teq	r0, #0
 8000408:	bf04      	itt	eq
 800040a:	2100      	moveq	r1, #0
 800040c:	4770      	bxeq	lr
 800040e:	b530      	push	{r4, r5, lr}
 8000410:	f44f 6480 	mov.w	r4, #1024	; 0x400
 8000414:	f104 0432 	add.w	r4, r4, #50	; 0x32
 8000418:	f010 4500 	ands.w	r5, r0, #2147483648	; 0x80000000
 800041c:	bf48      	it	mi
 800041e:	4240      	negmi	r0, r0
 8000420:	f04f 0100 	mov.w	r1, #0
 8000424:	e73e      	b.n	80002a4 <__adddf3+0x138>
 8000426:	bf00      	nop

08000428 <__aeabi_f2d>:
 8000428:	0042      	lsls	r2, r0, #1
 800042a:	ea4f 01e2 	mov.w	r1, r2, asr #3
 800042e:	ea4f 0131 	mov.w	r1, r1, rrx
 8000432:	ea4f 7002 	mov.w	r0, r2, lsl #28
 8000436:	bf1f      	itttt	ne
 8000438:	f012 437f 	andsne.w	r3, r2, #4278190080	; 0xff000000
 800043c:	f093 4f7f 	teqne	r3, #4278190080	; 0xff000000
 8000440:	f081 5160 	eorne.w	r1, r1, #939524096	; 0x38000000
 8000444:	4770      	bxne	lr
 8000446:	f032 427f 	bics.w	r2, r2, #4278190080	; 0xff000000
 800044a:	bf08      	it	eq
 800044c:	4770      	bxeq	lr
 800044e:	f093 4f7f 	teq	r3, #4278190080	; 0xff000000
 8000452:	bf04      	itt	eq
 8000454:	f441 2100 	orreq.w	r1, r1, #524288	; 0x80000
 8000458:	4770      	bxeq	lr
 800045a:	b530      	push	{r4, r5, lr}
 800045c:	f44f 7460 	mov.w	r4, #896	; 0x380
 8000460:	f001 4500 	and.w	r5, r1, #2147483648	; 0x80000000
 8000464:	f021 4100 	bic.w	r1, r1, #2147483648	; 0x80000000
 8000468:	e71c      	b.n	80002a4 <__adddf3+0x138>
 800046a:	bf00      	nop

0800046c <__aeabi_ul2d>:
 800046c:	ea50 0201 	orrs.w	r2, r0, r1
 8000470:	bf08      	it	eq
 8000472:	4770      	bxeq	lr
 8000474:	b530      	push	{r4, r5, lr}
 8000476:	f04f 0500 	mov.w	r5, #0
 800047a:	e00a      	b.n	8000492 <__aeabi_l2d+0x16>

0800047c <__aeabi_l2d>:
 800047c:	ea50 0201 	orrs.w	r2, r0, r1
 8000480:	bf08      	it	eq
 8000482:	4770      	bxeq	lr
 8000484:	b530      	push	{r4, r5, lr}
 8000486:	f011 4500 	ands.w	r5, r1, #2147483648	; 0x80000000
 800048a:	d502      	bpl.n	8000492 <__aeabi_l2d+0x16>
 800048c:	4240      	negs	r0, r0
 800048e:	eb61 0141 	sbc.w	r1, r1, r1, lsl #1
 8000492:	f44f 6480 	mov.w	r4, #1024	; 0x400
 8000496:	f104 0432 	add.w	r4, r4, #50	; 0x32
 800049a:	ea5f 5c91 	movs.w	ip, r1, lsr #22
 800049e:	f43f aed8 	beq.w	8000252 <__adddf3+0xe6>
 80004a2:	f04f 0203 	mov.w	r2, #3
 80004a6:	ea5f 0cdc 	movs.w	ip, ip, lsr #3
 80004aa:	bf18      	it	ne
 80004ac:	3203      	addne	r2, #3
 80004ae:	ea5f 0cdc 	movs.w	ip, ip, lsr #3
 80004b2:	bf18      	it	ne
 80004b4:	3203      	addne	r2, #3
 80004b6:	eb02 02dc 	add.w	r2, r2, ip, lsr #3
 80004ba:	f1c2 0320 	rsb	r3, r2, #32
 80004be:	fa00 fc03 	lsl.w	ip, r0, r3
 80004c2:	fa20 f002 	lsr.w	r0, r0, r2
 80004c6:	fa01 fe03 	lsl.w	lr, r1, r3
 80004ca:	ea40 000e 	orr.w	r0, r0, lr
 80004ce:	fa21 f102 	lsr.w	r1, r1, r2
 80004d2:	4414      	add	r4, r2
 80004d4:	e6bd      	b.n	8000252 <__adddf3+0xe6>
 80004d6:	bf00      	nop

080004d8 <__aeabi_dmul>:
 80004d8:	b570      	push	{r4, r5, r6, lr}
 80004da:	f04f 0cff 	mov.w	ip, #255	; 0xff
 80004de:	f44c 6ce0 	orr.w	ip, ip, #1792	; 0x700
 80004e2:	ea1c 5411 	ands.w	r4, ip, r1, lsr #20
 80004e6:	bf1d      	ittte	ne
 80004e8:	ea1c 5513 	andsne.w	r5, ip, r3, lsr #20
 80004ec:	ea94 0f0c 	teqne	r4, ip
 80004f0:	ea95 0f0c 	teqne	r5, ip
 80004f4:	f000 f8de 	bleq	80006b4 <__aeabi_dmul+0x1dc>
 80004f8:	442c      	add	r4, r5
 80004fa:	ea81 0603 	eor.w	r6, r1, r3
 80004fe:	ea21 514c 	bic.w	r1, r1, ip, lsl #21
 8000502:	ea23 534c 	bic.w	r3, r3, ip, lsl #21
 8000506:	ea50 3501 	orrs.w	r5, r0, r1, lsl #12
 800050a:	bf18      	it	ne
 800050c:	ea52 3503 	orrsne.w	r5, r2, r3, lsl #12
 8000510:	f441 1180 	orr.w	r1, r1, #1048576	; 0x100000
 8000514:	f443 1380 	orr.w	r3, r3, #1048576	; 0x100000
 8000518:	d038      	beq.n	800058c <__aeabi_dmul+0xb4>
 800051a:	fba0 ce02 	umull	ip, lr, r0, r2
 800051e:	f04f 0500 	mov.w	r5, #0
 8000522:	fbe1 e502 	umlal	lr, r5, r1, r2
 8000526:	f006 4200 	and.w	r2, r6, #2147483648	; 0x80000000
 800052a:	fbe0 e503 	umlal	lr, r5, r0, r3
 800052e:	f04f 0600 	mov.w	r6, #0
 8000532:	fbe1 5603 	umlal	r5, r6, r1, r3
 8000536:	f09c 0f00 	teq	ip, #0
 800053a:	bf18      	it	ne
 800053c:	f04e 0e01 	orrne.w	lr, lr, #1
 8000540:	f1a4 04ff 	sub.w	r4, r4, #255	; 0xff
 8000544:	f5b6 7f00 	cmp.w	r6, #512	; 0x200
 8000548:	f564 7440 	sbc.w	r4, r4, #768	; 0x300
 800054c:	d204      	bcs.n	8000558 <__aeabi_dmul+0x80>
 800054e:	ea5f 0e4e 	movs.w	lr, lr, lsl #1
 8000552:	416d      	adcs	r5, r5
 8000554:	eb46 0606 	adc.w	r6, r6, r6
 8000558:	ea42 21c6 	orr.w	r1, r2, r6, lsl #11
 800055c:	ea41 5155 	orr.w	r1, r1, r5, lsr #21
 8000560:	ea4f 20c5 	mov.w	r0, r5, lsl #11
 8000564:	ea40 505e 	orr.w	r0, r0, lr, lsr #21
 8000568:	ea4f 2ece 	mov.w	lr, lr, lsl #11
 800056c:	f1b4 0cfd 	subs.w	ip, r4, #253	; 0xfd
 8000570:	bf88      	it	hi
 8000572:	f5bc 6fe0 	cmphi.w	ip, #1792	; 0x700
 8000576:	d81e      	bhi.n	80005b6 <__aeabi_dmul+0xde>
 8000578:	f1be 4f00 	cmp.w	lr, #2147483648	; 0x80000000
 800057c:	bf08      	it	eq
 800057e:	ea5f 0e50 	movseq.w	lr, r0, lsr #1
 8000582:	f150 0000 	adcs.w	r0, r0, #0
 8000586:	eb41 5104 	adc.w	r1, r1, r4, lsl #20
 800058a:	bd70      	pop	{r4, r5, r6, pc}
 800058c:	f006 4600 	and.w	r6, r6, #2147483648	; 0x80000000
 8000590:	ea46 0101 	orr.w	r1, r6, r1
 8000594:	ea40 0002 	orr.w	r0, r0, r2
 8000598:	ea81 0103 	eor.w	r1, r1, r3
 800059c:	ebb4 045c 	subs.w	r4, r4, ip, lsr #1
 80005a0:	bfc2      	ittt	gt
 80005a2:	ebd4 050c 	rsbsgt	r5, r4, ip
 80005a6:	ea41 5104 	orrgt.w	r1, r1, r4, lsl #20
 80005aa:	bd70      	popgt	{r4, r5, r6, pc}
 80005ac:	f441 1180 	orr.w	r1, r1, #1048576	; 0x100000
 80005b0:	f04f 0e00 	mov.w	lr, #0
 80005b4:	3c01      	subs	r4, #1
 80005b6:	f300 80ab 	bgt.w	8000710 <__aeabi_dmul+0x238>
 80005ba:	f114 0f36 	cmn.w	r4, #54	; 0x36
 80005be:	bfde      	ittt	le
 80005c0:	2000      	movle	r0, #0
 80005c2:	f001 4100 	andle.w	r1, r1, #2147483648	; 0x80000000
 80005c6:	bd70      	pople	{r4, r5, r6, pc}
 80005c8:	f1c4 0400 	rsb	r4, r4, #0
 80005cc:	3c20      	subs	r4, #32
 80005ce:	da35      	bge.n	800063c <__aeabi_dmul+0x164>
 80005d0:	340c      	adds	r4, #12
 80005d2:	dc1b      	bgt.n	800060c <__aeabi_dmul+0x134>
 80005d4:	f104 0414 	add.w	r4, r4, #20
 80005d8:	f1c4 0520 	rsb	r5, r4, #32
 80005dc:	fa00 f305 	lsl.w	r3, r0, r5
 80005e0:	fa20 f004 	lsr.w	r0, r0, r4
 80005e4:	fa01 f205 	lsl.w	r2, r1, r5
 80005e8:	ea40 0002 	orr.w	r0, r0, r2
 80005ec:	f001 4200 	and.w	r2, r1, #2147483648	; 0x80000000
 80005f0:	f021 4100 	bic.w	r1, r1, #2147483648	; 0x80000000
 80005f4:	eb10 70d3 	adds.w	r0, r0, r3, lsr #31
 80005f8:	fa21 f604 	lsr.w	r6, r1, r4
 80005fc:	eb42 0106 	adc.w	r1, r2, r6
 8000600:	ea5e 0e43 	orrs.w	lr, lr, r3, lsl #1
 8000604:	bf08      	it	eq
 8000606:	ea20 70d3 	biceq.w	r0, r0, r3, lsr #31
 800060a:	bd70      	pop	{r4, r5, r6, pc}
 800060c:	f1c4 040c 	rsb	r4, r4, #12
 8000610:	f1c4 0520 	rsb	r5, r4, #32
 8000614:	fa00 f304 	lsl.w	r3, r0, r4
 8000618:	fa20 f005 	lsr.w	r0, r0, r5
 800061c:	fa01 f204 	lsl.w	r2, r1, r4
 8000620:	ea40 0002 	orr.w	r0, r0, r2
 8000624:	f001 4100 	and.w	r1, r1, #2147483648	; 0x80000000
 8000628:	eb10 70d3 	adds.w	r0, r0, r3, lsr #31
 800062c:	f141 0100 	adc.w	r1, r1, #0
 8000630:	ea5e 0e43 	orrs.w	lr, lr, r3, lsl #1
 8000634:	bf08      	it	eq
 8000636:	ea20 70d3 	biceq.w	r0, r0, r3, lsr #31
 800063a:	bd70      	pop	{r4, r5, r6, pc}
 800063c:	f1c4 0520 	rsb	r5, r4, #32
 8000640:	fa00 f205 	lsl.w	r2, r0, r5
 8000644:	ea4e 0e02 	orr.w	lr, lr, r2
 8000648:	fa20 f304 	lsr.w	r3, r0, r4
 800064c:	fa01 f205 	lsl.w	r2, r1, r5
 8000650:	ea43 0302 	orr.w	r3, r3, r2
 8000654:	fa21 f004 	lsr.w	r0, r1, r4
 8000658:	f001 4100 	and.w	r1, r1, #2147483648	; 0x80000000
 800065c:	fa21 f204 	lsr.w	r2, r1, r4
 8000660:	ea20 0002 	bic.w	r0, r0, r2
 8000664:	eb00 70d3 	add.w	r0, r0, r3, lsr #31
 8000668:	ea5e 0e43 	orrs.w	lr, lr, r3, lsl #1
 800066c:	bf08      	it	eq
 800066e:	ea20 70d3 	biceq.w	r0, r0, r3, lsr #31
 8000672:	bd70      	pop	{r4, r5, r6, pc}
 8000674:	f094 0f00 	teq	r4, #0
 8000678:	d10f      	bne.n	800069a <__aeabi_dmul+0x1c2>
 800067a:	f001 4600 	and.w	r6, r1, #2147483648	; 0x80000000
 800067e:	0040      	lsls	r0, r0, #1
 8000680:	eb41 0101 	adc.w	r1, r1, r1
 8000684:	f411 1f80 	tst.w	r1, #1048576	; 0x100000
 8000688:	bf08      	it	eq
 800068a:	3c01      	subeq	r4, #1
 800068c:	d0f7      	beq.n	800067e <__aeabi_dmul+0x1a6>
 800068e:	ea41 0106 	orr.w	r1, r1, r6
 8000692:	f095 0f00 	teq	r5, #0
 8000696:	bf18      	it	ne
 8000698:	4770      	bxne	lr
 800069a:	f003 4600 	and.w	r6, r3, #2147483648	; 0x80000000
 800069e:	0052      	lsls	r2, r2, #1
 80006a0:	eb43 0303 	adc.w	r3, r3, r3
 80006a4:	f413 1f80 	tst.w	r3, #1048576	; 0x100000
 80006a8:	bf08      	it	eq
 80006aa:	3d01      	subeq	r5, #1
 80006ac:	d0f7      	beq.n	800069e <__aeabi_dmul+0x1c6>
 80006ae:	ea43 0306 	orr.w	r3, r3, r6
 80006b2:	4770      	bx	lr
 80006b4:	ea94 0f0c 	teq	r4, ip
 80006b8:	ea0c 5513 	and.w	r5, ip, r3, lsr #20
 80006bc:	bf18      	it	ne
 80006be:	ea95 0f0c 	teqne	r5, ip
 80006c2:	d00c      	beq.n	80006de <__aeabi_dmul+0x206>
 80006c4:	ea50 0641 	orrs.w	r6, r0, r1, lsl #1
 80006c8:	bf18      	it	ne
 80006ca:	ea52 0643 	orrsne.w	r6, r2, r3, lsl #1
 80006ce:	d1d1      	bne.n	8000674 <__aeabi_dmul+0x19c>
 80006d0:	ea81 0103 	eor.w	r1, r1, r3
 80006d4:	f001 4100 	and.w	r1, r1, #2147483648	; 0x80000000
 80006d8:	f04f 0000 	mov.w	r0, #0
 80006dc:	bd70      	pop	{r4, r5, r6, pc}
 80006de:	ea50 0641 	orrs.w	r6, r0, r1, lsl #1
 80006e2:	bf06      	itte	eq
 80006e4:	4610      	moveq	r0, r2
 80006e6:	4619      	moveq	r1, r3
 80006e8:	ea52 0643 	orrsne.w	r6, r2, r3, lsl #1
 80006ec:	d019      	beq.n	8000722 <__aeabi_dmul+0x24a>
 80006ee:	ea94 0f0c 	teq	r4, ip
 80006f2:	d102      	bne.n	80006fa <__aeabi_dmul+0x222>
 80006f4:	ea50 3601 	orrs.w	r6, r0, r1, lsl #12
 80006f8:	d113      	bne.n	8000722 <__aeabi_dmul+0x24a>
 80006fa:	ea95 0f0c 	teq	r5, ip
 80006fe:	d105      	bne.n	800070c <__aeabi_dmul+0x234>
 8000700:	ea52 3603 	orrs.w	r6, r2, r3, lsl #12
 8000704:	bf1c      	itt	ne
 8000706:	4610      	movne	r0, r2
 8000708:	4619      	movne	r1, r3
 800070a:	d10a      	bne.n	8000722 <__aeabi_dmul+0x24a>
 800070c:	ea81 0103 	eor.w	r1, r1, r3
 8000710:	f001 4100 	and.w	r1, r1, #2147483648	; 0x80000000
 8000714:	f041 41fe 	orr.w	r1, r1, #2130706432	; 0x7f000000
 8000718:	f441 0170 	orr.w	r1, r1, #15728640	; 0xf00000
 800071c:	f04f 0000 	mov.w	r0, #0
 8000720:	bd70      	pop	{r4, r5, r6, pc}
 8000722:	f041 41fe 	orr.w	r1, r1, #2130706432	; 0x7f000000
 8000726:	f441 0178 	orr.w	r1, r1, #16252928	; 0xf80000
 800072a:	bd70      	pop	{r4, r5, r6, pc}

0800072c <__aeabi_ddiv>:
 800072c:	b570      	push	{r4, r5, r6, lr}
 800072e:	f04f 0cff 	mov.w	ip, #255	; 0xff
 8000732:	f44c 6ce0 	orr.w	ip, ip, #1792	; 0x700
 8000736:	ea1c 5411 	ands.w	r4, ip, r1, lsr #20
 800073a:	bf1d      	ittte	ne
 800073c:	ea1c 5513 	andsne.w	r5, ip, r3, lsr #20
 8000740:	ea94 0f0c 	teqne	r4, ip
 8000744:	ea95 0f0c 	teqne	r5, ip
 8000748:	f000 f8a7 	bleq	800089a <__aeabi_ddiv+0x16e>
 800074c:	eba4 0405 	sub.w	r4, r4, r5
 8000750:	ea81 0e03 	eor.w	lr, r1, r3
 8000754:	ea52 3503 	orrs.w	r5, r2, r3, lsl #12
 8000758:	ea4f 3101 	mov.w	r1, r1, lsl #12
 800075c:	f000 8088 	beq.w	8000870 <__aeabi_ddiv+0x144>
 8000760:	ea4f 3303 	mov.w	r3, r3, lsl #12
 8000764:	f04f 5580 	mov.w	r5, #268435456	; 0x10000000
 8000768:	ea45 1313 	orr.w	r3, r5, r3, lsr #4
 800076c:	ea43 6312 	orr.w	r3, r3, r2, lsr #24
 8000770:	ea4f 2202 	mov.w	r2, r2, lsl #8
 8000774:	ea45 1511 	orr.w	r5, r5, r1, lsr #4
 8000778:	ea45 6510 	orr.w	r5, r5, r0, lsr #24
 800077c:	ea4f 2600 	mov.w	r6, r0, lsl #8
 8000780:	f00e 4100 	and.w	r1, lr, #2147483648	; 0x80000000
 8000784:	429d      	cmp	r5, r3
 8000786:	bf08      	it	eq
 8000788:	4296      	cmpeq	r6, r2
 800078a:	f144 04fd 	adc.w	r4, r4, #253	; 0xfd
 800078e:	f504 7440 	add.w	r4, r4, #768	; 0x300
 8000792:	d202      	bcs.n	800079a <__aeabi_ddiv+0x6e>
 8000794:	085b      	lsrs	r3, r3, #1
 8000796:	ea4f 0232 	mov.w	r2, r2, rrx
 800079a:	1ab6      	subs	r6, r6, r2
 800079c:	eb65 0503 	sbc.w	r5, r5, r3
 80007a0:	085b      	lsrs	r3, r3, #1
 80007a2:	ea4f 0232 	mov.w	r2, r2, rrx
 80007a6:	f44f 1080 	mov.w	r0, #1048576	; 0x100000
 80007aa:	f44f 2c00 	mov.w	ip, #524288	; 0x80000
 80007ae:	ebb6 0e02 	subs.w	lr, r6, r2
 80007b2:	eb75 0e03 	sbcs.w	lr, r5, r3
 80007b6:	bf22      	ittt	cs
 80007b8:	1ab6      	subcs	r6, r6, r2
 80007ba:	4675      	movcs	r5, lr
 80007bc:	ea40 000c 	orrcs.w	r0, r0, ip
 80007c0:	085b      	lsrs	r3, r3, #1
 80007c2:	ea4f 0232 	mov.w	r2, r2, rrx
 80007c6:	ebb6 0e02 	subs.w	lr, r6, r2
 80007ca:	eb75 0e03 	sbcs.w	lr, r5, r3
 80007ce:	bf22      	ittt	cs
 80007d0:	1ab6      	subcs	r6, r6, r2
 80007d2:	4675      	movcs	r5, lr
 80007d4:	ea40 005c 	orrcs.w	r0, r0, ip, lsr #1
 80007d8:	085b      	lsrs	r3, r3, #1
 80007da:	ea4f 0232 	mov.w	r2, r2, rrx
 80007de:	ebb6 0e02 	subs.w	lr, r6, r2
 80007e2:	eb75 0e03 	sbcs.w	lr, r5, r3
 80007e6:	bf22      	ittt	cs
 80007e8:	1ab6      	subcs	r6, r6, r2
 80007ea:	4675      	movcs	r5, lr
 80007ec:	ea40 009c 	orrcs.w	r0, r0, ip, lsr #2
 80007f0:	085b      	lsrs	r3, r3, #1
 80007f2:	ea4f 0232 	mov.w	r2, r2, rrx
 80007f6:	ebb6 0e02 	subs.w	lr, r6, r2
 80007fa:	eb75 0e03 	sbcs.w	lr, r5, r3
 80007fe:	bf22      	ittt	cs
 8000800:	1ab6      	subcs	r6, r6, r2
 8000802:	4675      	movcs	r5, lr
 8000804:	ea40 00dc 	orrcs.w	r0, r0, ip, lsr #3
 8000808:	ea55 0e06 	orrs.w	lr, r5, r6
 800080c:	d018      	beq.n	8000840 <__aeabi_ddiv+0x114>
 800080e:	ea4f 1505 	mov.w	r5, r5, lsl #4
 8000812:	ea45 7516 	orr.w	r5, r5, r6, lsr #28
 8000816:	ea4f 1606 	mov.w	r6, r6, lsl #4
 800081a:	ea4f 03c3 	mov.w	r3, r3, lsl #3
 800081e:	ea43 7352 	orr.w	r3, r3, r2, lsr #29
 8000822:	ea4f 02c2 	mov.w	r2, r2, lsl #3
 8000826:	ea5f 1c1c 	movs.w	ip, ip, lsr #4
 800082a:	d1c0      	bne.n	80007ae <__aeabi_ddiv+0x82>
 800082c:	f411 1f80 	tst.w	r1, #1048576	; 0x100000
 8000830:	d10b      	bne.n	800084a <__aeabi_ddiv+0x11e>
 8000832:	ea41 0100 	orr.w	r1, r1, r0
 8000836:	f04f 0000 	mov.w	r0, #0
 800083a:	f04f 4c00 	mov.w	ip, #2147483648	; 0x80000000
 800083e:	e7b6      	b.n	80007ae <__aeabi_ddiv+0x82>
 8000840:	f411 1f80 	tst.w	r1, #1048576	; 0x100000
 8000844:	bf04      	itt	eq
 8000846:	4301      	orreq	r1, r0
 8000848:	2000      	moveq	r0, #0
 800084a:	f1b4 0cfd 	subs.w	ip, r4, #253	; 0xfd
 800084e:	bf88      	it	hi
 8000850:	f5bc 6fe0 	cmphi.w	ip, #1792	; 0x700
 8000854:	f63f aeaf 	bhi.w	80005b6 <__aeabi_dmul+0xde>
 8000858:	ebb5 0c03 	subs.w	ip, r5, r3
 800085c:	bf04      	itt	eq
 800085e:	ebb6 0c02 	subseq.w	ip, r6, r2
 8000862:	ea5f 0c50 	movseq.w	ip, r0, lsr #1
 8000866:	f150 0000 	adcs.w	r0, r0, #0
 800086a:	eb41 5104 	adc.w	r1, r1, r4, lsl #20
 800086e:	bd70      	pop	{r4, r5, r6, pc}
 8000870:	f00e 4e00 	and.w	lr, lr, #2147483648	; 0x80000000
 8000874:	ea4e 3111 	orr.w	r1, lr, r1, lsr #12
 8000878:	eb14 045c 	adds.w	r4, r4, ip, lsr #1
 800087c:	bfc2      	ittt	gt
 800087e:	ebd4 050c 	rsbsgt	r5, r4, ip
 8000882:	ea41 5104 	orrgt.w	r1, r1, r4, lsl #20
 8000886:	bd70      	popgt	{r4, r5, r6, pc}
 8000888:	f441 1180 	orr.w	r1, r1, #1048576	; 0x100000
 800088c:	f04f 0e00 	mov.w	lr, #0
 8000890:	3c01      	subs	r4, #1
 8000892:	e690      	b.n	80005b6 <__aeabi_dmul+0xde>
 8000894:	ea45 0e06 	orr.w	lr, r5, r6
 8000898:	e68d      	b.n	80005b6 <__aeabi_dmul+0xde>
 800089a:	ea0c 5513 	and.w	r5, ip, r3, lsr #20
 800089e:	ea94 0f0c 	teq	r4, ip
 80008a2:	bf08      	it	eq
 80008a4:	ea95 0f0c 	teqeq	r5, ip
 80008a8:	f43f af3b 	beq.w	8000722 <__aeabi_dmul+0x24a>
 80008ac:	ea94 0f0c 	teq	r4, ip
 80008b0:	d10a      	bne.n	80008c8 <__aeabi_ddiv+0x19c>
 80008b2:	ea50 3401 	orrs.w	r4, r0, r1, lsl #12
 80008b6:	f47f af34 	bne.w	8000722 <__aeabi_dmul+0x24a>
 80008ba:	ea95 0f0c 	teq	r5, ip
 80008be:	f47f af25 	bne.w	800070c <__aeabi_dmul+0x234>
 80008c2:	4610      	mov	r0, r2
 80008c4:	4619      	mov	r1, r3
 80008c6:	e72c      	b.n	8000722 <__aeabi_dmul+0x24a>
 80008c8:	ea95 0f0c 	teq	r5, ip
 80008cc:	d106      	bne.n	80008dc <__aeabi_ddiv+0x1b0>
 80008ce:	ea52 3503 	orrs.w	r5, r2, r3, lsl #12
 80008d2:	f43f aefd 	beq.w	80006d0 <__aeabi_dmul+0x1f8>
 80008d6:	4610      	mov	r0, r2
 80008d8:	4619      	mov	r1, r3
 80008da:	e722      	b.n	8000722 <__aeabi_dmul+0x24a>
 80008dc:	ea50 0641 	orrs.w	r6, r0, r1, lsl #1
 80008e0:	bf18      	it	ne
 80008e2:	ea52 0643 	orrsne.w	r6, r2, r3, lsl #1
 80008e6:	f47f aec5 	bne.w	8000674 <__aeabi_dmul+0x19c>
 80008ea:	ea50 0441 	orrs.w	r4, r0, r1, lsl #1
 80008ee:	f47f af0d 	bne.w	800070c <__aeabi_dmul+0x234>
 80008f2:	ea52 0543 	orrs.w	r5, r2, r3, lsl #1
 80008f6:	f47f aeeb 	bne.w	80006d0 <__aeabi_dmul+0x1f8>
 80008fa:	e712      	b.n	8000722 <__aeabi_dmul+0x24a>

080008fc <__aeabi_d2iz>:
 80008fc:	ea4f 0241 	mov.w	r2, r1, lsl #1
 8000900:	f512 1200 	adds.w	r2, r2, #2097152	; 0x200000
 8000904:	d215      	bcs.n	8000932 <__aeabi_d2iz+0x36>
 8000906:	d511      	bpl.n	800092c <__aeabi_d2iz+0x30>
 8000908:	f46f 7378 	mvn.w	r3, #992	; 0x3e0
 800090c:	ebb3 5262 	subs.w	r2, r3, r2, asr #21
 8000910:	d912      	bls.n	8000938 <__aeabi_d2iz+0x3c>
 8000912:	ea4f 23c1 	mov.w	r3, r1, lsl #11
 8000916:	f043 4300 	orr.w	r3, r3, #2147483648	; 0x80000000
 800091a:	ea43 5350 	orr.w	r3, r3, r0, lsr #21
 800091e:	f011 4f00 	tst.w	r1, #2147483648	; 0x80000000
 8000922:	fa23 f002 	lsr.w	r0, r3, r2
 8000926:	bf18      	it	ne
 8000928:	4240      	negne	r0, r0
 800092a:	4770      	bx	lr
 800092c:	f04f 0000 	mov.w	r0, #0
 8000930:	4770      	bx	lr
 8000932:	ea50 3001 	orrs.w	r0, r0, r1, lsl #12
 8000936:	d105      	bne.n	8000944 <__aeabi_d2iz+0x48>
 8000938:	f011 4000 	ands.w	r0, r1, #2147483648	; 0x80000000
 800093c:	bf08      	it	eq
 800093e:	f06f 4000 	mvneq.w	r0, #2147483648	; 0x80000000
 8000942:	4770      	bx	lr
 8000944:	f04f 0000 	mov.w	r0, #0
 8000948:	4770      	bx	lr
 800094a:	bf00      	nop

0800094c <ESP01StrToBufTX>:
 800094c:	2200      	movs	r2, #0
 800094e:	490a      	ldr	r1, [pc, #40]	; (8000978 <ESP01StrToBufTX+0x2c>)
 8000950:	b530      	push	{r4, r5, lr}
 8000952:	880b      	ldrh	r3, [r1, #0]
 8000954:	4d09      	ldr	r5, [pc, #36]	; (800097c <ESP01StrToBufTX+0x30>)
 8000956:	3801      	subs	r0, #1
 8000958:	f810 4f01 	ldrb.w	r4, [r0, #1]!
 800095c:	b914      	cbnz	r4, 8000964 <ESP01StrToBufTX+0x18>
 800095e:	b102      	cbz	r2, 8000962 <ESP01StrToBufTX+0x16>
 8000960:	800b      	strh	r3, [r1, #0]
 8000962:	bd30      	pop	{r4, r5, pc}
 8000964:	1c5a      	adds	r2, r3, #1
 8000966:	b292      	uxth	r2, r2
 8000968:	f5b2 7f80 	cmp.w	r2, #256	; 0x100
 800096c:	54ec      	strb	r4, [r5, r3]
 800096e:	bf14      	ite	ne
 8000970:	4613      	movne	r3, r2
 8000972:	2300      	moveq	r3, #0
 8000974:	2201      	movs	r2, #1
 8000976:	e7ef      	b.n	8000958 <ESP01StrToBufTX+0xc>
 8000978:	200003fc 	.word	0x200003fc
 800097c:	200002e8 	.word	0x200002e8

08000980 <ESP01ByteToBufTX>:
 8000980:	4a07      	ldr	r2, [pc, #28]	; (80009a0 <ESP01ByteToBufTX+0x20>)
 8000982:	b510      	push	{r4, lr}
 8000984:	8811      	ldrh	r1, [r2, #0]
 8000986:	4c07      	ldr	r4, [pc, #28]	; (80009a4 <ESP01ByteToBufTX+0x24>)
 8000988:	1c4b      	adds	r3, r1, #1
 800098a:	b29b      	uxth	r3, r3
 800098c:	f5b3 7f80 	cmp.w	r3, #256	; 0x100
 8000990:	8013      	strh	r3, [r2, #0]
 8000992:	bf08      	it	eq
 8000994:	2300      	moveq	r3, #0
 8000996:	5460      	strb	r0, [r4, r1]
 8000998:	bf08      	it	eq
 800099a:	8013      	strheq	r3, [r2, #0]
 800099c:	bd10      	pop	{r4, pc}
 800099e:	bf00      	nop
 80009a0:	200003fc 	.word	0x200003fc
 80009a4:	200002e8 	.word	0x200002e8

080009a8 <ESP01_SetWIFI>:
 80009a8:	b538      	push	{r3, r4, r5, lr}
 80009aa:	2400      	movs	r4, #0
 80009ac:	4b0d      	ldr	r3, [pc, #52]	; (80009e4 <ESP01_SetWIFI+0x3c>)
 80009ae:	460d      	mov	r5, r1
 80009b0:	701c      	strb	r4, [r3, #0]
 80009b2:	4b0d      	ldr	r3, [pc, #52]	; (80009e8 <ESP01_SetWIFI+0x40>)
 80009b4:	4601      	mov	r1, r0
 80009b6:	223f      	movs	r2, #63	; 0x3f
 80009b8:	4618      	mov	r0, r3
 80009ba:	f007 f92b 	bl	8007c14 <strncpy>
 80009be:	4b0b      	ldr	r3, [pc, #44]	; (80009ec <ESP01_SetWIFI+0x44>)
 80009c0:	221f      	movs	r2, #31
 80009c2:	f880 403f 	strb.w	r4, [r0, #63]	; 0x3f
 80009c6:	4629      	mov	r1, r5
 80009c8:	4618      	mov	r0, r3
 80009ca:	f007 f923 	bl	8007c14 <strncpy>
 80009ce:	2232      	movs	r2, #50	; 0x32
 80009d0:	4b07      	ldr	r3, [pc, #28]	; (80009f0 <ESP01_SetWIFI+0x48>)
 80009d2:	77c4      	strb	r4, [r0, #31]
 80009d4:	601a      	str	r2, [r3, #0]
 80009d6:	220d      	movs	r2, #13
 80009d8:	4b06      	ldr	r3, [pc, #24]	; (80009f4 <ESP01_SetWIFI+0x4c>)
 80009da:	701a      	strb	r2, [r3, #0]
 80009dc:	4b06      	ldr	r3, [pc, #24]	; (80009f8 <ESP01_SetWIFI+0x50>)
 80009de:	701c      	strb	r4, [r3, #0]
 80009e0:	bd38      	pop	{r3, r4, r5, pc}
 80009e2:	bf00      	nop
 80009e4:	200001c5 	.word	0x200001c5
 80009e8:	200002a8 	.word	0x200002a8
 80009ec:	200001f2 	.word	0x200001f2
 80009f0:	200003ec 	.word	0x200003ec
 80009f4:	200001c4 	.word	0x200001c4
 80009f8:	200003f4 	.word	0x200003f4

080009fc <ESP01_StartUDP>:
 80009fc:	4b17      	ldr	r3, [pc, #92]	; (8000a5c <ESP01_StartUDP+0x60>)
 80009fe:	b570      	push	{r4, r5, r6, lr}
 8000a00:	685b      	ldr	r3, [r3, #4]
 8000a02:	4606      	mov	r6, r0
 8000a04:	460d      	mov	r5, r1
 8000a06:	4614      	mov	r4, r2
 8000a08:	b323      	cbz	r3, 8000a54 <ESP01_StartUDP+0x58>
 8000a0a:	f247 5330 	movw	r3, #30000	; 0x7530
 8000a0e:	4914      	ldr	r1, [pc, #80]	; (8000a60 <ESP01_StartUDP+0x64>)
 8000a10:	4814      	ldr	r0, [pc, #80]	; (8000a64 <ESP01_StartUDP+0x68>)
 8000a12:	2a00      	cmp	r2, #0
 8000a14:	bf08      	it	eq
 8000a16:	461c      	moveq	r4, r3
 8000a18:	f007 f934 	bl	8007c84 <strcpy>
 8000a1c:	4b12      	ldr	r3, [pc, #72]	; (8000a68 <ESP01_StartUDP+0x6c>)
 8000a1e:	220f      	movs	r2, #15
 8000a20:	4618      	mov	r0, r3
 8000a22:	4631      	mov	r1, r6
 8000a24:	f007 f8f6 	bl	8007c14 <strncpy>
 8000a28:	2200      	movs	r2, #0
 8000a2a:	4910      	ldr	r1, [pc, #64]	; (8000a6c <ESP01_StartUDP+0x70>)
 8000a2c:	73c2      	strb	r2, [r0, #15]
 8000a2e:	220a      	movs	r2, #10
 8000a30:	4628      	mov	r0, r5
 8000a32:	f007 f8a3 	bl	8007b7c <itoa>
 8000a36:	220a      	movs	r2, #10
 8000a38:	4620      	mov	r0, r4
 8000a3a:	490d      	ldr	r1, [pc, #52]	; (8000a70 <ESP01_StartUDP+0x74>)
 8000a3c:	f007 f89e 	bl	8007b7c <itoa>
 8000a40:	4b0c      	ldr	r3, [pc, #48]	; (8000a74 <ESP01_StartUDP+0x78>)
 8000a42:	7818      	ldrb	r0, [r3, #0]
 8000a44:	f010 0002 	ands.w	r0, r0, #2
 8000a48:	d003      	beq.n	8000a52 <ESP01_StartUDP+0x56>
 8000a4a:	2209      	movs	r2, #9
 8000a4c:	2006      	movs	r0, #6
 8000a4e:	4b0a      	ldr	r3, [pc, #40]	; (8000a78 <ESP01_StartUDP+0x7c>)
 8000a50:	701a      	strb	r2, [r3, #0]
 8000a52:	bd70      	pop	{r4, r5, r6, pc}
 8000a54:	f04f 30ff 	mov.w	r0, #4294967295
 8000a58:	e7fb      	b.n	8000a52 <ESP01_StartUDP+0x56>
 8000a5a:	bf00      	nop
 8000a5c:	200001c8 	.word	0x200001c8
 8000a60:	08007cac 	.word	0x08007cac
 8000a64:	20000000 	.word	0x20000000
 8000a68:	20000292 	.word	0x20000292
 8000a6c:	200002a2 	.word	0x200002a2
 8000a70:	200001ec 	.word	0x200001ec
 8000a74:	200001c5 	.word	0x200001c5
 8000a78:	200001c4 	.word	0x200001c4

08000a7c <ESP01_GetLocalIP>:
 8000a7c:	4b05      	ldr	r3, [pc, #20]	; (8000a94 <ESP01_GetLocalIP+0x18>)
 8000a7e:	7818      	ldrb	r0, [r3, #0]
 8000a80:	f010 0002 	ands.w	r0, r0, #2
 8000a84:	d004      	beq.n	8000a90 <ESP01_GetLocalIP+0x14>
 8000a86:	4804      	ldr	r0, [pc, #16]	; (8000a98 <ESP01_GetLocalIP+0x1c>)
 8000a88:	7803      	ldrb	r3, [r0, #0]
 8000a8a:	2b00      	cmp	r3, #0
 8000a8c:	bf08      	it	eq
 8000a8e:	2000      	moveq	r0, #0
 8000a90:	4770      	bx	lr
 8000a92:	bf00      	nop
 8000a94:	200001c5 	.word	0x200001c5
 8000a98:	200001dc 	.word	0x200001dc

08000a9c <ESP01_WriteRX>:
 8000a9c:	4b08      	ldr	r3, [pc, #32]	; (8000ac0 <ESP01_WriteRX+0x24>)
 8000a9e:	b510      	push	{r4, lr}
 8000aa0:	689b      	ldr	r3, [r3, #8]
 8000aa2:	b15b      	cbz	r3, 8000abc <ESP01_WriteRX+0x20>
 8000aa4:	4a07      	ldr	r2, [pc, #28]	; (8000ac4 <ESP01_WriteRX+0x28>)
 8000aa6:	4c08      	ldr	r4, [pc, #32]	; (8000ac8 <ESP01_WriteRX+0x2c>)
 8000aa8:	8811      	ldrh	r1, [r2, #0]
 8000aaa:	1c4b      	adds	r3, r1, #1
 8000aac:	b29b      	uxth	r3, r3
 8000aae:	2b80      	cmp	r3, #128	; 0x80
 8000ab0:	8013      	strh	r3, [r2, #0]
 8000ab2:	bf08      	it	eq
 8000ab4:	2300      	moveq	r3, #0
 8000ab6:	5460      	strb	r0, [r4, r1]
 8000ab8:	bf08      	it	eq
 8000aba:	8013      	strheq	r3, [r2, #0]
 8000abc:	bd10      	pop	{r4, pc}
 8000abe:	bf00      	nop
 8000ac0:	200001c8 	.word	0x200001c8
 8000ac4:	200003fa 	.word	0x200003fa
 8000ac8:	20000212 	.word	0x20000212

08000acc <ESP01_Send>:
 8000acc:	e92d 47ff 	stmdb	sp!, {r0, r1, r2, r3, r4, r5, r6, r7, r8, r9, sl, lr}
 8000ad0:	469a      	mov	sl, r3
 8000ad2:	4b33      	ldr	r3, [pc, #204]	; (8000ba0 <ESP01_Send+0xd4>)
 8000ad4:	4681      	mov	r9, r0
 8000ad6:	685b      	ldr	r3, [r3, #4]
 8000ad8:	460e      	mov	r6, r1
 8000ada:	4617      	mov	r7, r2
 8000adc:	2b00      	cmp	r3, #0
 8000ade:	d059      	beq.n	8000b94 <ESP01_Send+0xc8>
 8000ae0:	f8df 80c0 	ldr.w	r8, [pc, #192]	; 8000ba4 <ESP01_Send+0xd8>
 8000ae4:	f898 4000 	ldrb.w	r4, [r8]
 8000ae8:	0663      	lsls	r3, r4, #25
 8000aea:	d556      	bpl.n	8000b9a <ESP01_Send+0xce>
 8000aec:	f014 0408 	ands.w	r4, r4, #8
 8000af0:	d149      	bne.n	8000b86 <ESP01_Send+0xba>
 8000af2:	220a      	movs	r2, #10
 8000af4:	a901      	add	r1, sp, #4
 8000af6:	4638      	mov	r0, r7
 8000af8:	f007 f840 	bl	8007b7c <itoa>
 8000afc:	a801      	add	r0, sp, #4
 8000afe:	f7ff fb27 	bl	8000150 <strlen>
 8000b02:	3801      	subs	r0, #1
 8000b04:	b2c0      	uxtb	r0, r0
 8000b06:	2803      	cmp	r0, #3
 8000b08:	d839      	bhi.n	8000b7e <ESP01_Send+0xb2>
 8000b0a:	4827      	ldr	r0, [pc, #156]	; (8000ba8 <ESP01_Send+0xdc>)
 8000b0c:	f7ff ff1e 	bl	800094c <ESP01StrToBufTX>
 8000b10:	a801      	add	r0, sp, #4
 8000b12:	f7ff ff1b 	bl	800094c <ESP01StrToBufTX>
 8000b16:	4825      	ldr	r0, [pc, #148]	; (8000bac <ESP01_Send+0xe0>)
 8000b18:	f7ff ff18 	bl	800094c <ESP01StrToBufTX>
 8000b1c:	4622      	mov	r2, r4
 8000b1e:	4924      	ldr	r1, [pc, #144]	; (8000bb0 <ESP01_Send+0xe4>)
 8000b20:	4824      	ldr	r0, [pc, #144]	; (8000bb4 <ESP01_Send+0xe8>)
 8000b22:	880b      	ldrh	r3, [r1, #0]
 8000b24:	b2a5      	uxth	r5, r4
 8000b26:	42bd      	cmp	r5, r7
 8000b28:	d316      	bcc.n	8000b58 <ESP01_Send+0x8c>
 8000b2a:	b102      	cbz	r2, 8000b2e <ESP01_Send+0x62>
 8000b2c:	800b      	strh	r3, [r1, #0]
 8000b2e:	f898 3000 	ldrb.w	r3, [r8]
 8000b32:	4c21      	ldr	r4, [pc, #132]	; (8000bb8 <ESP01_Send+0xec>)
 8000b34:	f023 030c 	bic.w	r3, r3, #12
 8000b38:	f043 030c 	orr.w	r3, r3, #12
 8000b3c:	f888 3000 	strb.w	r3, [r8]
 8000b40:	6823      	ldr	r3, [r4, #0]
 8000b42:	b13b      	cbz	r3, 8000b54 <ESP01_Send+0x88>
 8000b44:	481d      	ldr	r0, [pc, #116]	; (8000bbc <ESP01_Send+0xf0>)
 8000b46:	4798      	blx	r3
 8000b48:	6823      	ldr	r3, [r4, #0]
 8000b4a:	a801      	add	r0, sp, #4
 8000b4c:	4798      	blx	r3
 8000b4e:	6823      	ldr	r3, [r4, #0]
 8000b50:	481b      	ldr	r0, [pc, #108]	; (8000bc0 <ESP01_Send+0xf4>)
 8000b52:	4798      	blx	r3
 8000b54:	2009      	movs	r0, #9
 8000b56:	e013      	b.n	8000b80 <ESP01_Send+0xb4>
 8000b58:	1c5d      	adds	r5, r3, #1
 8000b5a:	b2ad      	uxth	r5, r5
 8000b5c:	f5b5 7f80 	cmp.w	r5, #256	; 0x100
 8000b60:	bf08      	it	eq
 8000b62:	2500      	moveq	r5, #0
 8000b64:	1c72      	adds	r2, r6, #1
 8000b66:	f819 6006 	ldrb.w	r6, [r9, r6]
 8000b6a:	b292      	uxth	r2, r2
 8000b6c:	54c6      	strb	r6, [r0, r3]
 8000b6e:	3401      	adds	r4, #1
 8000b70:	4552      	cmp	r2, sl
 8000b72:	bf14      	ite	ne
 8000b74:	4616      	movne	r6, r2
 8000b76:	2600      	moveq	r6, #0
 8000b78:	462b      	mov	r3, r5
 8000b7a:	2201      	movs	r2, #1
 8000b7c:	e7d2      	b.n	8000b24 <ESP01_Send+0x58>
 8000b7e:	200b      	movs	r0, #11
 8000b80:	b004      	add	sp, #16
 8000b82:	e8bd 87f0 	ldmia.w	sp!, {r4, r5, r6, r7, r8, r9, sl, pc}
 8000b86:	4b0c      	ldr	r3, [pc, #48]	; (8000bb8 <ESP01_Send+0xec>)
 8000b88:	681b      	ldr	r3, [r3, #0]
 8000b8a:	b10b      	cbz	r3, 8000b90 <ESP01_Send+0xc4>
 8000b8c:	480d      	ldr	r0, [pc, #52]	; (8000bc4 <ESP01_Send+0xf8>)
 8000b8e:	4798      	blx	r3
 8000b90:	2008      	movs	r0, #8
 8000b92:	e7f5      	b.n	8000b80 <ESP01_Send+0xb4>
 8000b94:	f04f 30ff 	mov.w	r0, #4294967295
 8000b98:	e7f2      	b.n	8000b80 <ESP01_Send+0xb4>
 8000b9a:	2005      	movs	r0, #5
 8000b9c:	e7f0      	b.n	8000b80 <ESP01_Send+0xb4>
 8000b9e:	bf00      	nop
 8000ba0:	200001c8 	.word	0x200001c8
 8000ba4:	200001c5 	.word	0x200001c5
 8000ba8:	08007df8 	.word	0x08007df8
 8000bac:	08007cb0 	.word	0x08007cb0
 8000bb0:	200003fc 	.word	0x200003fc
 8000bb4:	200002e8 	.word	0x200002e8
 8000bb8:	200001bc 	.word	0x200001bc
 8000bbc:	08007cb3 	.word	0x08007cb3
 8000bc0:	08007d2e 	.word	0x08007d2e
 8000bc4:	08007cc6 	.word	0x08007cc6

08000bc8 <ESP01_Init>:
 8000bc8:	4603      	mov	r3, r0
 8000bca:	4a0f      	ldr	r2, [pc, #60]	; (8000c08 <ESP01_Init+0x40>)
 8000bcc:	b530      	push	{r4, r5, lr}
 8000bce:	f100 0510 	add.w	r5, r0, #16
 8000bd2:	4614      	mov	r4, r2
 8000bd4:	6818      	ldr	r0, [r3, #0]
 8000bd6:	6859      	ldr	r1, [r3, #4]
 8000bd8:	3308      	adds	r3, #8
 8000bda:	c403      	stmia	r4!, {r0, r1}
 8000bdc:	42ab      	cmp	r3, r5
 8000bde:	4622      	mov	r2, r4
 8000be0:	d1f7      	bne.n	8000bd2 <ESP01_Init+0xa>
 8000be2:	6818      	ldr	r0, [r3, #0]
 8000be4:	2300      	movs	r3, #0
 8000be6:	4a09      	ldr	r2, [pc, #36]	; (8000c0c <ESP01_Init+0x44>)
 8000be8:	6020      	str	r0, [r4, #0]
 8000bea:	7013      	strb	r3, [r2, #0]
 8000bec:	4a08      	ldr	r2, [pc, #32]	; (8000c10 <ESP01_Init+0x48>)
 8000bee:	7013      	strb	r3, [r2, #0]
 8000bf0:	4a08      	ldr	r2, [pc, #32]	; (8000c14 <ESP01_Init+0x4c>)
 8000bf2:	8013      	strh	r3, [r2, #0]
 8000bf4:	4a08      	ldr	r2, [pc, #32]	; (8000c18 <ESP01_Init+0x50>)
 8000bf6:	8013      	strh	r3, [r2, #0]
 8000bf8:	4a08      	ldr	r2, [pc, #32]	; (8000c1c <ESP01_Init+0x54>)
 8000bfa:	8013      	strh	r3, [r2, #0]
 8000bfc:	4a08      	ldr	r2, [pc, #32]	; (8000c20 <ESP01_Init+0x58>)
 8000bfe:	8013      	strh	r3, [r2, #0]
 8000c00:	4a08      	ldr	r2, [pc, #32]	; (8000c24 <ESP01_Init+0x5c>)
 8000c02:	7013      	strb	r3, [r2, #0]
 8000c04:	bd30      	pop	{r4, r5, pc}
 8000c06:	bf00      	nop
 8000c08:	200001c8 	.word	0x200001c8
 8000c0c:	200001c4 	.word	0x200001c4
 8000c10:	200001c6 	.word	0x200001c6
 8000c14:	200003f8 	.word	0x200003f8
 8000c18:	200003fc 	.word	0x200003fc
 8000c1c:	200003f6 	.word	0x200003f6
 8000c20:	200003fa 	.word	0x200003fa
 8000c24:	200001c5 	.word	0x200001c5

08000c28 <ESP01_Timeout10ms>:
 8000c28:	4a09      	ldr	r2, [pc, #36]	; (8000c50 <ESP01_Timeout10ms+0x28>)
 8000c2a:	6813      	ldr	r3, [r2, #0]
 8000c2c:	b10b      	cbz	r3, 8000c32 <ESP01_Timeout10ms+0xa>
 8000c2e:	3b01      	subs	r3, #1
 8000c30:	6013      	str	r3, [r2, #0]
 8000c32:	4a08      	ldr	r2, [pc, #32]	; (8000c54 <ESP01_Timeout10ms+0x2c>)
 8000c34:	6813      	ldr	r3, [r2, #0]
 8000c36:	b123      	cbz	r3, 8000c42 <ESP01_Timeout10ms+0x1a>
 8000c38:	3b01      	subs	r3, #1
 8000c3a:	6013      	str	r3, [r2, #0]
 8000c3c:	b90b      	cbnz	r3, 8000c42 <ESP01_Timeout10ms+0x1a>
 8000c3e:	4a06      	ldr	r2, [pc, #24]	; (8000c58 <ESP01_Timeout10ms+0x30>)
 8000c40:	7013      	strb	r3, [r2, #0]
 8000c42:	4a06      	ldr	r2, [pc, #24]	; (8000c5c <ESP01_Timeout10ms+0x34>)
 8000c44:	6813      	ldr	r3, [r2, #0]
 8000c46:	b10b      	cbz	r3, 8000c4c <ESP01_Timeout10ms+0x24>
 8000c48:	3b01      	subs	r3, #1
 8000c4a:	6013      	str	r3, [r2, #0]
 8000c4c:	4770      	bx	lr
 8000c4e:	bf00      	nop
 8000c50:	200003ec 	.word	0x200003ec
 8000c54:	200003e8 	.word	0x200003e8
 8000c58:	200001c6 	.word	0x200001c6
 8000c5c:	200003f0 	.word	0x200003f0

08000c60 <ESP01_Task>:
 8000c60:	e92d 4ff8 	stmdb	sp!, {r3, r4, r5, r6, r7, r8, r9, sl, fp, lr}
 8000c64:	4bab      	ldr	r3, [pc, #684]	; (8000f14 <ESP01_Task+0x2b4>)
 8000c66:	4eac      	ldr	r6, [pc, #688]	; (8000f18 <ESP01_Task+0x2b8>)
 8000c68:	f8b3 b000 	ldrh.w	fp, [r3]
 8000c6c:	8833      	ldrh	r3, [r6, #0]
 8000c6e:	2500      	movs	r5, #0
 8000c70:	455b      	cmp	r3, fp
 8000c72:	d006      	beq.n	8000c82 <ESP01_Task+0x22>
 8000c74:	4fa9      	ldr	r7, [pc, #676]	; (8000f1c <ESP01_Task+0x2bc>)
 8000c76:	783b      	ldrb	r3, [r7, #0]
 8000c78:	3b0d      	subs	r3, #13
 8000c7a:	2b02      	cmp	r3, #2
 8000c7c:	d820      	bhi.n	8000cc0 <ESP01_Task+0x60>
 8000c7e:	f8a6 b000 	strh.w	fp, [r6]
 8000c82:	4ea7      	ldr	r6, [pc, #668]	; (8000f20 <ESP01_Task+0x2c0>)
 8000c84:	4ca7      	ldr	r4, [pc, #668]	; (8000f24 <ESP01_Task+0x2c4>)
 8000c86:	6833      	ldr	r3, [r6, #0]
 8000c88:	2b00      	cmp	r3, #0
 8000c8a:	f040 8245 	bne.w	8001118 <ESP01_Task+0x4b8>
 8000c8e:	2364      	movs	r3, #100	; 0x64
 8000c90:	4da2      	ldr	r5, [pc, #648]	; (8000f1c <ESP01_Task+0x2bc>)
 8000c92:	6033      	str	r3, [r6, #0]
 8000c94:	782b      	ldrb	r3, [r5, #0]
 8000c96:	2b0f      	cmp	r3, #15
 8000c98:	f200 823e 	bhi.w	8001118 <ESP01_Task+0x4b8>
 8000c9c:	e8df f013 	tbh	[pc, r3, lsl #1]
 8000ca0:	02510369 	.word	0x02510369
 8000ca4:	0270026a 	.word	0x0270026a
 8000ca8:	0284027a 	.word	0x0284027a
 8000cac:	02f302eb 	.word	0x02f302eb
 8000cb0:	03130304 	.word	0x03130304
 8000cb4:	035f0322 	.word	0x035f0322
 8000cb8:	021c0364 	.word	0x021c0364
 8000cbc:	02370228 	.word	0x02370228
 8000cc0:	2302      	movs	r3, #2
 8000cc2:	4a99      	ldr	r2, [pc, #612]	; (8000f28 <ESP01_Task+0x2c8>)
 8000cc4:	4c99      	ldr	r4, [pc, #612]	; (8000f2c <ESP01_Task+0x2cc>)
 8000cc6:	6013      	str	r3, [r2, #0]
 8000cc8:	8832      	ldrh	r2, [r6, #0]
 8000cca:	4593      	cmp	fp, r2
 8000ccc:	d0d9      	beq.n	8000c82 <ESP01_Task+0x22>
 8000cce:	4b98      	ldr	r3, [pc, #608]	; (8000f30 <ESP01_Task+0x2d0>)
 8000cd0:	7821      	ldrb	r1, [r4, #0]
 8000cd2:	5c9b      	ldrb	r3, [r3, r2]
 8000cd4:	290c      	cmp	r1, #12
 8000cd6:	f200 81fa 	bhi.w	80010ce <ESP01_Task+0x46e>
 8000cda:	e8df f011 	tbh	[pc, r1, lsl #1]
 8000cde:	000d      	.short	0x000d
 8000ce0:	00c20057 	.word	0x00c20057
 8000ce4:	01f801f8 	.word	0x01f801f8
 8000ce8:	018e0179 	.word	0x018e0179
 8000cec:	01a30196 	.word	0x01a30196
 8000cf0:	01be01f8 	.word	0x01be01f8
 8000cf4:	01d801c2 	.word	0x01d801c2
 8000cf8:	2200      	movs	r2, #0
 8000cfa:	2104      	movs	r1, #4
 8000cfc:	4696      	mov	lr, r2
 8000cfe:	488d      	ldr	r0, [pc, #564]	; (8000f34 <ESP01_Task+0x2d4>)
 8000d00:	f8df 8234 	ldr.w	r8, [pc, #564]	; 8000f38 <ESP01_Task+0x2d8>
 8000d04:	f8df 9234 	ldr.w	r9, [pc, #564]	; 8000f3c <ESP01_Task+0x2dc>
 8000d08:	7002      	strb	r2, [r0, #0]
 8000d0a:	f888 1000 	strb.w	r1, [r8]
 8000d0e:	fa5f fc82 	uxtb.w	ip, r2
 8000d12:	f859 102c 	ldr.w	r1, [r9, ip, lsl #2]
 8000d16:	b9a1      	cbnz	r1, 8000d42 <ESP01_Task+0xe2>
 8000d18:	f1be 0f00 	cmp.w	lr, #0
 8000d1c:	d001      	beq.n	8000d22 <ESP01_Task+0xc2>
 8000d1e:	f880 c000 	strb.w	ip, [r0]
 8000d22:	2100      	movs	r1, #0
 8000d24:	4a80      	ldr	r2, [pc, #512]	; (8000f28 <ESP01_Task+0x2c8>)
 8000d26:	487f      	ldr	r0, [pc, #508]	; (8000f24 <ESP01_Task+0x2c4>)
 8000d28:	6011      	str	r1, [r2, #0]
 8000d2a:	7802      	ldrb	r2, [r0, #0]
 8000d2c:	f012 0f01 	tst.w	r2, #1
 8000d30:	d020      	beq.n	8000d74 <ESP01_Task+0x114>
 8000d32:	2b3e      	cmp	r3, #62	; 0x3e
 8000d34:	d11e      	bne.n	8000d74 <ESP01_Task+0x114>
 8000d36:	4b82      	ldr	r3, [pc, #520]	; (8000f40 <ESP01_Task+0x2e0>)
 8000d38:	f361 0200 	bfi	r2, r1, #0, #1
 8000d3c:	7002      	strb	r2, [r0, #0]
 8000d3e:	6019      	str	r1, [r3, #0]
 8000d40:	e018      	b.n	8000d74 <ESP01_Task+0x114>
 8000d42:	f891 a004 	ldrb.w	sl, [r1, #4]
 8000d46:	3201      	adds	r2, #1
 8000d48:	459a      	cmp	sl, r3
 8000d4a:	d11c      	bne.n	8000d86 <ESP01_Task+0x126>
 8000d4c:	f1be 0f00 	cmp.w	lr, #0
 8000d50:	d001      	beq.n	8000d56 <ESP01_Task+0xf6>
 8000d52:	f880 c000 	strb.w	ip, [r0]
 8000d56:	780b      	ldrb	r3, [r1, #0]
 8000d58:	784a      	ldrb	r2, [r1, #1]
 8000d5a:	3b30      	subs	r3, #48	; 0x30
 8000d5c:	3a31      	subs	r2, #49	; 0x31
 8000d5e:	eb03 0383 	add.w	r3, r3, r3, lsl #2
 8000d62:	eb02 0343 	add.w	r3, r2, r3, lsl #1
 8000d66:	4a77      	ldr	r2, [pc, #476]	; (8000f44 <ESP01_Task+0x2e4>)
 8000d68:	8013      	strh	r3, [r2, #0]
 8000d6a:	2301      	movs	r3, #1
 8000d6c:	7023      	strb	r3, [r4, #0]
 8000d6e:	2305      	movs	r3, #5
 8000d70:	f888 3000 	strb.w	r3, [r8]
 8000d74:	8833      	ldrh	r3, [r6, #0]
 8000d76:	3301      	adds	r3, #1
 8000d78:	b29b      	uxth	r3, r3
 8000d7a:	2b80      	cmp	r3, #128	; 0x80
 8000d7c:	8033      	strh	r3, [r6, #0]
 8000d7e:	bf04      	itt	eq
 8000d80:	2300      	moveq	r3, #0
 8000d82:	8033      	strheq	r3, [r6, #0]
 8000d84:	e7a0      	b.n	8000cc8 <ESP01_Task+0x68>
 8000d86:	f04f 0e01 	mov.w	lr, #1
 8000d8a:	e7c0      	b.n	8000d0e <ESP01_Task+0xae>
 8000d8c:	f8df c1a4 	ldr.w	ip, [pc, #420]	; 8000f34 <ESP01_Task+0x2d4>
 8000d90:	486a      	ldr	r0, [pc, #424]	; (8000f3c <ESP01_Task+0x2dc>)
 8000d92:	f89c 1000 	ldrb.w	r1, [ip]
 8000d96:	f850 1021 	ldr.w	r1, [r0, r1, lsl #2]
 8000d9a:	4867      	ldr	r0, [pc, #412]	; (8000f38 <ESP01_Task+0x2d8>)
 8000d9c:	7800      	ldrb	r0, [r0, #0]
 8000d9e:	f811 e000 	ldrb.w	lr, [r1, r0]
 8000da2:	459e      	cmp	lr, r3
 8000da4:	d114      	bne.n	8000dd0 <ESP01_Task+0x170>
 8000da6:	f8df c19c 	ldr.w	ip, [pc, #412]	; 8000f44 <ESP01_Task+0x2e4>
 8000daa:	f8bc 2000 	ldrh.w	r2, [ip]
 8000dae:	3a01      	subs	r2, #1
 8000db0:	b292      	uxth	r2, r2
 8000db2:	f8ac 2000 	strh.w	r2, [ip]
 8000db6:	b10a      	cbz	r2, 8000dbc <ESP01_Task+0x15c>
 8000db8:	2b0d      	cmp	r3, #13
 8000dba:	d14a      	bne.n	8000e52 <ESP01_Task+0x1f2>
 8000dbc:	788b      	ldrb	r3, [r1, #2]
 8000dbe:	78ca      	ldrb	r2, [r1, #3]
 8000dc0:	3b30      	subs	r3, #48	; 0x30
 8000dc2:	eb03 0383 	add.w	r3, r3, r3, lsl #2
 8000dc6:	3a30      	subs	r2, #48	; 0x30
 8000dc8:	eb02 0343 	add.w	r3, r2, r3, lsl #1
 8000dcc:	7023      	strb	r3, [r4, #0]
 8000dce:	e7d1      	b.n	8000d74 <ESP01_Task+0x114>
 8000dd0:	2100      	movs	r1, #0
 8000dd2:	4689      	mov	r9, r1
 8000dd4:	f5c0 4a7f 	rsb	sl, r0, #65280	; 0xff00
 8000dd8:	f88c 1000 	strb.w	r1, [ip]
 8000ddc:	f10a 0ad3 	add.w	sl, sl, #211	; 0xd3
 8000de0:	f8df c158 	ldr.w	ip, [pc, #344]	; 8000f3c <ESP01_Task+0x2dc>
 8000de4:	fa5f f881 	uxtb.w	r8, r1
 8000de8:	f85c c028 	ldr.w	ip, [ip, r8, lsl #2]
 8000dec:	f1bc 0f00 	cmp.w	ip, #0
 8000df0:	d109      	bne.n	8000e06 <ESP01_Task+0x1a6>
 8000df2:	f1b9 0f00 	cmp.w	r9, #0
 8000df6:	f000 813c 	beq.w	8001072 <ESP01_Task+0x412>
 8000dfa:	4b52      	ldr	r3, [pc, #328]	; (8000f44 <ESP01_Task+0x2e4>)
 8000dfc:	801d      	strh	r5, [r3, #0]
 8000dfe:	4b4d      	ldr	r3, [pc, #308]	; (8000f34 <ESP01_Task+0x2d4>)
 8000e00:	f883 8000 	strb.w	r8, [r3]
 8000e04:	e135      	b.n	8001072 <ESP01_Task+0x412>
 8000e06:	f89c e000 	ldrb.w	lr, [ip]
 8000e0a:	f89c 5001 	ldrb.w	r5, [ip, #1]
 8000e0e:	f1ae 0e30 	sub.w	lr, lr, #48	; 0x30
 8000e12:	eb0e 0e8e 	add.w	lr, lr, lr, lsl #2
 8000e16:	4455      	add	r5, sl
 8000e18:	eb05 054e 	add.w	r5, r5, lr, lsl #1
 8000e1c:	b2ad      	uxth	r5, r5
 8000e1e:	2d7f      	cmp	r5, #127	; 0x7f
 8000e20:	d81b      	bhi.n	8000e5a <ESP01_Task+0x1fa>
 8000e22:	f81c e000 	ldrb.w	lr, [ip, r0]
 8000e26:	459e      	cmp	lr, r3
 8000e28:	d117      	bne.n	8000e5a <ESP01_Task+0x1fa>
 8000e2a:	4b46      	ldr	r3, [pc, #280]	; (8000f44 <ESP01_Task+0x2e4>)
 8000e2c:	801d      	strh	r5, [r3, #0]
 8000e2e:	f1b9 0f00 	cmp.w	r9, #0
 8000e32:	d002      	beq.n	8000e3a <ESP01_Task+0x1da>
 8000e34:	4b3f      	ldr	r3, [pc, #252]	; (8000f34 <ESP01_Task+0x2d4>)
 8000e36:	f883 8000 	strb.w	r8, [r3]
 8000e3a:	b955      	cbnz	r5, 8000e52 <ESP01_Task+0x1f2>
 8000e3c:	f89c 3002 	ldrb.w	r3, [ip, #2]
 8000e40:	f89c 2003 	ldrb.w	r2, [ip, #3]
 8000e44:	3b30      	subs	r3, #48	; 0x30
 8000e46:	eb03 0383 	add.w	r3, r3, r3, lsl #2
 8000e4a:	3a30      	subs	r2, #48	; 0x30
 8000e4c:	eb02 0343 	add.w	r3, r2, r3, lsl #1
 8000e50:	7023      	strb	r3, [r4, #0]
 8000e52:	4b39      	ldr	r3, [pc, #228]	; (8000f38 <ESP01_Task+0x2d8>)
 8000e54:	3001      	adds	r0, #1
 8000e56:	7018      	strb	r0, [r3, #0]
 8000e58:	e78c      	b.n	8000d74 <ESP01_Task+0x114>
 8000e5a:	f04f 0901 	mov.w	r9, #1
 8000e5e:	3101      	adds	r1, #1
 8000e60:	e7be      	b.n	8000de0 <ESP01_Task+0x180>
 8000e62:	2b0a      	cmp	r3, #10
 8000e64:	d186      	bne.n	8000d74 <ESP01_Task+0x114>
 8000e66:	2200      	movs	r2, #0
 8000e68:	4b32      	ldr	r3, [pc, #200]	; (8000f34 <ESP01_Task+0x2d4>)
 8000e6a:	7022      	strb	r2, [r4, #0]
 8000e6c:	781b      	ldrb	r3, [r3, #0]
 8000e6e:	3b02      	subs	r3, #2
 8000e70:	2b0d      	cmp	r3, #13
 8000e72:	f63f af7f 	bhi.w	8000d74 <ESP01_Task+0x114>
 8000e76:	a101      	add	r1, pc, #4	; (adr r1, 8000e7c <ESP01_Task+0x21c>)
 8000e78:	f851 f023 	ldr.w	pc, [r1, r3, lsl #2]
 8000e7c:	08000eb5 	.word	0x08000eb5
 8000e80:	08000ecf 	.word	0x08000ecf
 8000e84:	08000ee9 	.word	0x08000ee9
 8000e88:	08000d75 	.word	0x08000d75
 8000e8c:	08000f55 	.word	0x08000f55
 8000e90:	08000f55 	.word	0x08000f55
 8000e94:	08000f77 	.word	0x08000f77
 8000e98:	08000f83 	.word	0x08000f83
 8000e9c:	08000f9b 	.word	0x08000f9b
 8000ea0:	08000f77 	.word	0x08000f77
 8000ea4:	08000d75 	.word	0x08000d75
 8000ea8:	08000fbb 	.word	0x08000fbb
 8000eac:	08000d75 	.word	0x08000d75
 8000eb0:	08000fc5 	.word	0x08000fc5
 8000eb4:	783b      	ldrb	r3, [r7, #0]
 8000eb6:	2b02      	cmp	r3, #2
 8000eb8:	f47f af5c 	bne.w	8000d74 <ESP01_Task+0x114>
 8000ebc:	2200      	movs	r2, #0
 8000ebe:	4b18      	ldr	r3, [pc, #96]	; (8000f20 <ESP01_Task+0x2c0>)
 8000ec0:	601a      	str	r2, [r3, #0]
 8000ec2:	4a18      	ldr	r2, [pc, #96]	; (8000f24 <ESP01_Task+0x2c4>)
 8000ec4:	7813      	ldrb	r3, [r2, #0]
 8000ec6:	f043 0320 	orr.w	r3, r3, #32
 8000eca:	7013      	strb	r3, [r2, #0]
 8000ecc:	e752      	b.n	8000d74 <ESP01_Task+0x114>
 8000ece:	4a15      	ldr	r2, [pc, #84]	; (8000f24 <ESP01_Task+0x2c4>)
 8000ed0:	7813      	ldrb	r3, [r2, #0]
 8000ed2:	0719      	lsls	r1, r3, #28
 8000ed4:	f57f af4e 	bpl.w	8000d74 <ESP01_Task+0x114>
 8000ed8:	f023 0348 	bic.w	r3, r3, #72	; 0x48
 8000edc:	7013      	strb	r3, [r2, #0]
 8000ede:	4b1a      	ldr	r3, [pc, #104]	; (8000f48 <ESP01_Task+0x2e8>)
 8000ee0:	881a      	ldrh	r2, [r3, #0]
 8000ee2:	4b1a      	ldr	r3, [pc, #104]	; (8000f4c <ESP01_Task+0x2ec>)
 8000ee4:	801a      	strh	r2, [r3, #0]
 8000ee6:	e745      	b.n	8000d74 <ESP01_Task+0x114>
 8000ee8:	4b0d      	ldr	r3, [pc, #52]	; (8000f20 <ESP01_Task+0x2c0>)
 8000eea:	601a      	str	r2, [r3, #0]
 8000eec:	783b      	ldrb	r3, [r7, #0]
 8000eee:	2b06      	cmp	r3, #6
 8000ef0:	4b0c      	ldr	r3, [pc, #48]	; (8000f24 <ESP01_Task+0x2c4>)
 8000ef2:	bf02      	ittt	eq
 8000ef4:	781a      	ldrbeq	r2, [r3, #0]
 8000ef6:	f042 0220 	orreq.w	r2, r2, #32
 8000efa:	701a      	strbeq	r2, [r3, #0]
 8000efc:	781a      	ldrb	r2, [r3, #0]
 8000efe:	f042 0202 	orr.w	r2, r2, #2
 8000f02:	701a      	strb	r2, [r3, #0]
 8000f04:	4b12      	ldr	r3, [pc, #72]	; (8000f50 <ESP01_Task+0x2f0>)
 8000f06:	681b      	ldr	r3, [r3, #0]
 8000f08:	2b00      	cmp	r3, #0
 8000f0a:	f43f af33 	beq.w	8000d74 <ESP01_Task+0x114>
 8000f0e:	2003      	movs	r0, #3
 8000f10:	4798      	blx	r3
 8000f12:	e72f      	b.n	8000d74 <ESP01_Task+0x114>
 8000f14:	200003fa 	.word	0x200003fa
 8000f18:	200003f6 	.word	0x200003f6
 8000f1c:	200001c4 	.word	0x200001c4
 8000f20:	200003ec 	.word	0x200003ec
 8000f24:	200001c5 	.word	0x200001c5
 8000f28:	200003e8 	.word	0x200003e8
 8000f2c:	200001c6 	.word	0x200001c6
 8000f30:	20000212 	.word	0x20000212
 8000f34:	20000400 	.word	0x20000400
 8000f38:	20000401 	.word	0x20000401
 8000f3c:	08007f28 	.word	0x08007f28
 8000f40:	200003f0 	.word	0x200003f0
 8000f44:	200003fe 	.word	0x200003fe
 8000f48:	200003fc 	.word	0x200003fc
 8000f4c:	200003f8 	.word	0x200003f8
 8000f50:	200001c0 	.word	0x200001c0
 8000f54:	4a97      	ldr	r2, [pc, #604]	; (80011b4 <ESP01_Task+0x554>)
 8000f56:	7813      	ldrb	r3, [r2, #0]
 8000f58:	f023 0342 	bic.w	r3, r3, #66	; 0x42
 8000f5c:	7013      	strb	r3, [r2, #0]
 8000f5e:	4b96      	ldr	r3, [pc, #600]	; (80011b8 <ESP01_Task+0x558>)
 8000f60:	681b      	ldr	r3, [r3, #0]
 8000f62:	b10b      	cbz	r3, 8000f68 <ESP01_Task+0x308>
 8000f64:	2000      	movs	r0, #0
 8000f66:	4798      	blx	r3
 8000f68:	783b      	ldrb	r3, [r7, #0]
 8000f6a:	2b06      	cmp	r3, #6
 8000f6c:	f43f af02 	beq.w	8000d74 <ESP01_Task+0x114>
 8000f70:	230f      	movs	r3, #15
 8000f72:	703b      	strb	r3, [r7, #0]
 8000f74:	e6fe      	b.n	8000d74 <ESP01_Task+0x114>
 8000f76:	4b8f      	ldr	r3, [pc, #572]	; (80011b4 <ESP01_Task+0x554>)
 8000f78:	781a      	ldrb	r2, [r3, #0]
 8000f7a:	f36f 1286 	bfc	r2, #6, #1
 8000f7e:	701a      	strb	r2, [r3, #0]
 8000f80:	e6f8      	b.n	8000d74 <ESP01_Task+0x114>
 8000f82:	4b8c      	ldr	r3, [pc, #560]	; (80011b4 <ESP01_Task+0x554>)
 8000f84:	781a      	ldrb	r2, [r3, #0]
 8000f86:	f36f 02c3 	bfc	r2, #3, #1
 8000f8a:	701a      	strb	r2, [r3, #0]
 8000f8c:	4b8a      	ldr	r3, [pc, #552]	; (80011b8 <ESP01_Task+0x558>)
 8000f8e:	681b      	ldr	r3, [r3, #0]
 8000f90:	2b00      	cmp	r3, #0
 8000f92:	f43f aeef 	beq.w	8000d74 <ESP01_Task+0x114>
 8000f96:	200a      	movs	r0, #10
 8000f98:	e7ba      	b.n	8000f10 <ESP01_Task+0x2b0>
 8000f9a:	4b88      	ldr	r3, [pc, #544]	; (80011bc <ESP01_Task+0x55c>)
 8000f9c:	601a      	str	r2, [r3, #0]
 8000f9e:	4a85      	ldr	r2, [pc, #532]	; (80011b4 <ESP01_Task+0x554>)
 8000fa0:	7813      	ldrb	r3, [r2, #0]
 8000fa2:	f023 0360 	bic.w	r3, r3, #96	; 0x60
 8000fa6:	f043 0360 	orr.w	r3, r3, #96	; 0x60
 8000faa:	7013      	strb	r3, [r2, #0]
 8000fac:	4b82      	ldr	r3, [pc, #520]	; (80011b8 <ESP01_Task+0x558>)
 8000fae:	681b      	ldr	r3, [r3, #0]
 8000fb0:	2b00      	cmp	r3, #0
 8000fb2:	f43f aedf 	beq.w	8000d74 <ESP01_Task+0x114>
 8000fb6:	2007      	movs	r0, #7
 8000fb8:	e7aa      	b.n	8000f10 <ESP01_Task+0x2b0>
 8000fba:	4a7e      	ldr	r2, [pc, #504]	; (80011b4 <ESP01_Task+0x554>)
 8000fbc:	7813      	ldrb	r3, [r2, #0]
 8000fbe:	f023 0342 	bic.w	r3, r3, #66	; 0x42
 8000fc2:	e782      	b.n	8000eca <ESP01_Task+0x26a>
 8000fc4:	4a7b      	ldr	r2, [pc, #492]	; (80011b4 <ESP01_Task+0x554>)
 8000fc6:	7813      	ldrb	r3, [r2, #0]
 8000fc8:	f023 0342 	bic.w	r3, r3, #66	; 0x42
 8000fcc:	7013      	strb	r3, [r2, #0]
 8000fce:	e7cf      	b.n	8000f70 <ESP01_Task+0x310>
 8000fd0:	497b      	ldr	r1, [pc, #492]	; (80011c0 <ESP01_Task+0x560>)
 8000fd2:	2b2c      	cmp	r3, #44	; 0x2c
 8000fd4:	6809      	ldr	r1, [r1, #0]
 8000fd6:	d107      	bne.n	8000fe8 <ESP01_Task+0x388>
 8000fd8:	2306      	movs	r3, #6
 8000fda:	7023      	strb	r3, [r4, #0]
 8000fdc:	2900      	cmp	r1, #0
 8000fde:	f43f aec9 	beq.w	8000d74 <ESP01_Task+0x114>
 8000fe2:	4878      	ldr	r0, [pc, #480]	; (80011c4 <ESP01_Task+0x564>)
 8000fe4:	4788      	blx	r1
 8000fe6:	e6c5      	b.n	8000d74 <ESP01_Task+0x114>
 8000fe8:	2300      	movs	r3, #0
 8000fea:	3a01      	subs	r2, #1
 8000fec:	7023      	strb	r3, [r4, #0]
 8000fee:	8032      	strh	r2, [r6, #0]
 8000ff0:	2900      	cmp	r1, #0
 8000ff2:	f43f aebf 	beq.w	8000d74 <ESP01_Task+0x114>
 8000ff6:	4874      	ldr	r0, [pc, #464]	; (80011c8 <ESP01_Task+0x568>)
 8000ff8:	e7f4      	b.n	8000fe4 <ESP01_Task+0x384>
 8000ffa:	2b22      	cmp	r3, #34	; 0x22
 8000ffc:	f47f aeba 	bne.w	8000d74 <ESP01_Task+0x114>
 8001000:	2307      	movs	r3, #7
 8001002:	7023      	strb	r3, [r4, #0]
 8001004:	2200      	movs	r2, #0
 8001006:	4b71      	ldr	r3, [pc, #452]	; (80011cc <ESP01_Task+0x56c>)
 8001008:	e76c      	b.n	8000ee4 <ESP01_Task+0x284>
 800100a:	2b22      	cmp	r3, #34	; 0x22
 800100c:	d003      	beq.n	8001016 <ESP01_Task+0x3b6>
 800100e:	496f      	ldr	r1, [pc, #444]	; (80011cc <ESP01_Task+0x56c>)
 8001010:	880a      	ldrh	r2, [r1, #0]
 8001012:	2a10      	cmp	r2, #16
 8001014:	d101      	bne.n	800101a <ESP01_Task+0x3ba>
 8001016:	2308      	movs	r3, #8
 8001018:	e6d8      	b.n	8000dcc <ESP01_Task+0x16c>
 800101a:	1c50      	adds	r0, r2, #1
 800101c:	8008      	strh	r0, [r1, #0]
 800101e:	496c      	ldr	r1, [pc, #432]	; (80011d0 <ESP01_Task+0x570>)
 8001020:	548b      	strb	r3, [r1, r2]
 8001022:	e6a7      	b.n	8000d74 <ESP01_Task+0x114>
 8001024:	2b0a      	cmp	r3, #10
 8001026:	f47f aea5 	bne.w	8000d74 <ESP01_Task+0x114>
 800102a:	2300      	movs	r3, #0
 800102c:	4a67      	ldr	r2, [pc, #412]	; (80011cc <ESP01_Task+0x56c>)
 800102e:	7023      	strb	r3, [r4, #0]
 8001030:	8811      	ldrh	r1, [r2, #0]
 8001032:	4a67      	ldr	r2, [pc, #412]	; (80011d0 <ESP01_Task+0x570>)
 8001034:	290f      	cmp	r1, #15
 8001036:	bf9b      	ittet	ls
 8001038:	5453      	strbls	r3, [r2, r1]
 800103a:	495e      	ldrls	r1, [pc, #376]	; (80011b4 <ESP01_Task+0x554>)
 800103c:	7013      	strbhi	r3, [r2, #0]
 800103e:	780a      	ldrbls	r2, [r1, #0]
 8001040:	bf9f      	itttt	ls
 8001042:	f042 0220 	orrls.w	r2, r2, #32
 8001046:	700a      	strbls	r2, [r1, #0]
 8001048:	4a5c      	ldrls	r2, [pc, #368]	; (80011bc <ESP01_Task+0x55c>)
 800104a:	6013      	strls	r3, [r2, #0]
 800104c:	4b5a      	ldr	r3, [pc, #360]	; (80011b8 <ESP01_Task+0x558>)
 800104e:	681b      	ldr	r3, [r3, #0]
 8001050:	2b00      	cmp	r3, #0
 8001052:	f43f ae8f 	beq.w	8000d74 <ESP01_Task+0x114>
 8001056:	2004      	movs	r0, #4
 8001058:	e75a      	b.n	8000f10 <ESP01_Task+0x2b0>
 800105a:	2b2c      	cmp	r3, #44	; 0x2c
 800105c:	d109      	bne.n	8001072 <ESP01_Task+0x412>
 800105e:	230b      	movs	r3, #11
 8001060:	e7cf      	b.n	8001002 <ESP01_Task+0x3a2>
 8001062:	2b3a      	cmp	r3, #58	; 0x3a
 8001064:	d101      	bne.n	800106a <ESP01_Task+0x40a>
 8001066:	230c      	movs	r3, #12
 8001068:	e6b0      	b.n	8000dcc <ESP01_Task+0x16c>
 800106a:	f1a3 0130 	sub.w	r1, r3, #48	; 0x30
 800106e:	2909      	cmp	r1, #9
 8001070:	d904      	bls.n	800107c <ESP01_Task+0x41c>
 8001072:	2300      	movs	r3, #0
 8001074:	3a01      	subs	r2, #1
 8001076:	7023      	strb	r3, [r4, #0]
 8001078:	8032      	strh	r2, [r6, #0]
 800107a:	e67b      	b.n	8000d74 <ESP01_Task+0x114>
 800107c:	4953      	ldr	r1, [pc, #332]	; (80011cc <ESP01_Task+0x56c>)
 800107e:	880a      	ldrh	r2, [r1, #0]
 8001080:	eb02 0282 	add.w	r2, r2, r2, lsl #2
 8001084:	eb03 0242 	add.w	r2, r3, r2, lsl #1
 8001088:	3a30      	subs	r2, #48	; 0x30
 800108a:	800a      	strh	r2, [r1, #0]
 800108c:	e672      	b.n	8000d74 <ESP01_Task+0x114>
 800108e:	4a51      	ldr	r2, [pc, #324]	; (80011d4 <ESP01_Task+0x574>)
 8001090:	68d1      	ldr	r1, [r2, #12]
 8001092:	8808      	ldrh	r0, [r1, #0]
 8001094:	6891      	ldr	r1, [r2, #8]
 8001096:	540b      	strb	r3, [r1, r0]
 8001098:	68d1      	ldr	r1, [r2, #12]
 800109a:	880b      	ldrh	r3, [r1, #0]
 800109c:	3301      	adds	r3, #1
 800109e:	b29b      	uxth	r3, r3
 80010a0:	800b      	strh	r3, [r1, #0]
 80010a2:	8a12      	ldrh	r2, [r2, #16]
 80010a4:	429a      	cmp	r2, r3
 80010a6:	bf08      	it	eq
 80010a8:	2300      	moveq	r3, #0
 80010aa:	4a48      	ldr	r2, [pc, #288]	; (80011cc <ESP01_Task+0x56c>)
 80010ac:	800b      	strh	r3, [r1, #0]
 80010ae:	8813      	ldrh	r3, [r2, #0]
 80010b0:	3b01      	subs	r3, #1
 80010b2:	b29b      	uxth	r3, r3
 80010b4:	8013      	strh	r3, [r2, #0]
 80010b6:	2b00      	cmp	r3, #0
 80010b8:	f47f ae5c 	bne.w	8000d74 <ESP01_Task+0x114>
 80010bc:	7023      	strb	r3, [r4, #0]
 80010be:	4b40      	ldr	r3, [pc, #256]	; (80011c0 <ESP01_Task+0x560>)
 80010c0:	681b      	ldr	r3, [r3, #0]
 80010c2:	2b00      	cmp	r3, #0
 80010c4:	f43f ae56 	beq.w	8000d74 <ESP01_Task+0x114>
 80010c8:	4843      	ldr	r0, [pc, #268]	; (80011d8 <ESP01_Task+0x578>)
 80010ca:	4798      	blx	r3
 80010cc:	e652      	b.n	8000d74 <ESP01_Task+0x114>
 80010ce:	2300      	movs	r3, #0
 80010d0:	4a42      	ldr	r2, [pc, #264]	; (80011dc <ESP01_Task+0x57c>)
 80010d2:	7023      	strb	r3, [r4, #0]
 80010d4:	6013      	str	r3, [r2, #0]
 80010d6:	e64d      	b.n	8000d74 <ESP01_Task+0x114>
 80010d8:	4b3e      	ldr	r3, [pc, #248]	; (80011d4 <ESP01_Task+0x574>)
 80010da:	2000      	movs	r0, #0
 80010dc:	681b      	ldr	r3, [r3, #0]
 80010de:	4798      	blx	r3
 80010e0:	4b37      	ldr	r3, [pc, #220]	; (80011c0 <ESP01_Task+0x560>)
 80010e2:	681b      	ldr	r3, [r3, #0]
 80010e4:	b10b      	cbz	r3, 80010ea <ESP01_Task+0x48a>
 80010e6:	483e      	ldr	r0, [pc, #248]	; (80011e0 <ESP01_Task+0x580>)
 80010e8:	4798      	blx	r3
 80010ea:	230e      	movs	r3, #14
 80010ec:	702b      	strb	r3, [r5, #0]
 80010ee:	e013      	b.n	8001118 <ESP01_Task+0x4b8>
 80010f0:	4b38      	ldr	r3, [pc, #224]	; (80011d4 <ESP01_Task+0x574>)
 80010f2:	2001      	movs	r0, #1
 80010f4:	681b      	ldr	r3, [r3, #0]
 80010f6:	4798      	blx	r3
 80010f8:	4b31      	ldr	r3, [pc, #196]	; (80011c0 <ESP01_Task+0x560>)
 80010fa:	681b      	ldr	r3, [r3, #0]
 80010fc:	b10b      	cbz	r3, 8001102 <ESP01_Task+0x4a2>
 80010fe:	4839      	ldr	r0, [pc, #228]	; (80011e4 <ESP01_Task+0x584>)
 8001100:	4798      	blx	r3
 8001102:	230f      	movs	r3, #15
 8001104:	702b      	strb	r3, [r5, #0]
 8001106:	f44f 73fa 	mov.w	r3, #500	; 0x1f4
 800110a:	6033      	str	r3, [r6, #0]
 800110c:	e004      	b.n	8001118 <ESP01_Task+0x4b8>
 800110e:	2301      	movs	r3, #1
 8001110:	2200      	movs	r2, #0
 8001112:	702b      	strb	r3, [r5, #0]
 8001114:	4b34      	ldr	r3, [pc, #208]	; (80011e8 <ESP01_Task+0x588>)
 8001116:	701a      	strb	r2, [r3, #0]
 8001118:	7823      	ldrb	r3, [r4, #0]
 800111a:	07da      	lsls	r2, r3, #31
 800111c:	f140 812b 	bpl.w	8001376 <ESP01_Task+0x716>
 8001120:	4a32      	ldr	r2, [pc, #200]	; (80011ec <ESP01_Task+0x58c>)
 8001122:	6812      	ldr	r2, [r2, #0]
 8001124:	b95a      	cbnz	r2, 800113e <ESP01_Task+0x4de>
 8001126:	f362 0300 	bfi	r3, r2, #0, #1
 800112a:	2201      	movs	r2, #1
 800112c:	7023      	strb	r3, [r4, #0]
 800112e:	4b30      	ldr	r3, [pc, #192]	; (80011f0 <ESP01_Task+0x590>)
 8001130:	4930      	ldr	r1, [pc, #192]	; (80011f4 <ESP01_Task+0x594>)
 8001132:	701a      	strb	r2, [r3, #0]
 8001134:	230a      	movs	r3, #10
 8001136:	8808      	ldrh	r0, [r1, #0]
 8001138:	492f      	ldr	r1, [pc, #188]	; (80011f8 <ESP01_Task+0x598>)
 800113a:	6033      	str	r3, [r6, #0]
 800113c:	8008      	strh	r0, [r1, #0]
 800113e:	e8bd 8ff8 	ldmia.w	sp!, {r3, r4, r5, r6, r7, r8, r9, sl, fp, pc}
 8001142:	4a29      	ldr	r2, [pc, #164]	; (80011e8 <ESP01_Task+0x588>)
 8001144:	7813      	ldrb	r3, [r2, #0]
 8001146:	b12b      	cbz	r3, 8001154 <ESP01_Task+0x4f4>
 8001148:	3b01      	subs	r3, #1
 800114a:	b2db      	uxtb	r3, r3
 800114c:	7013      	strb	r3, [r2, #0]
 800114e:	b91b      	cbnz	r3, 8001158 <ESP01_Task+0x4f8>
 8001150:	230d      	movs	r3, #13
 8001152:	e7cb      	b.n	80010ec <ESP01_Task+0x48c>
 8001154:	2304      	movs	r3, #4
 8001156:	7013      	strb	r3, [r2, #0]
 8001158:	7823      	ldrb	r3, [r4, #0]
 800115a:	4828      	ldr	r0, [pc, #160]	; (80011fc <ESP01_Task+0x59c>)
 800115c:	f36f 1345 	bfc	r3, #5, #1
 8001160:	7023      	strb	r3, [r4, #0]
 8001162:	f7ff fbf3 	bl	800094c <ESP01StrToBufTX>
 8001166:	4b16      	ldr	r3, [pc, #88]	; (80011c0 <ESP01_Task+0x560>)
 8001168:	681b      	ldr	r3, [r3, #0]
 800116a:	b10b      	cbz	r3, 8001170 <ESP01_Task+0x510>
 800116c:	4824      	ldr	r0, [pc, #144]	; (8001200 <ESP01_Task+0x5a0>)
 800116e:	4798      	blx	r3
 8001170:	2302      	movs	r3, #2
 8001172:	e7bb      	b.n	80010ec <ESP01_Task+0x48c>
 8001174:	7823      	ldrb	r3, [r4, #0]
 8001176:	0698      	lsls	r0, r3, #26
 8001178:	f140 80a3 	bpl.w	80012c2 <ESP01_Task+0x662>
 800117c:	2303      	movs	r3, #3
 800117e:	e7b5      	b.n	80010ec <ESP01_Task+0x48c>
 8001180:	4820      	ldr	r0, [pc, #128]	; (8001204 <ESP01_Task+0x5a4>)
 8001182:	f7ff fbe3 	bl	800094c <ESP01StrToBufTX>
 8001186:	4b0e      	ldr	r3, [pc, #56]	; (80011c0 <ESP01_Task+0x560>)
 8001188:	681b      	ldr	r3, [r3, #0]
 800118a:	b10b      	cbz	r3, 8001190 <ESP01_Task+0x530>
 800118c:	481e      	ldr	r0, [pc, #120]	; (8001208 <ESP01_Task+0x5a8>)
 800118e:	4798      	blx	r3
 8001190:	2304      	movs	r3, #4
 8001192:	e7ab      	b.n	80010ec <ESP01_Task+0x48c>
 8001194:	481d      	ldr	r0, [pc, #116]	; (800120c <ESP01_Task+0x5ac>)
 8001196:	f7ff fbd9 	bl	800094c <ESP01StrToBufTX>
 800119a:	4b09      	ldr	r3, [pc, #36]	; (80011c0 <ESP01_Task+0x560>)
 800119c:	681b      	ldr	r3, [r3, #0]
 800119e:	b10b      	cbz	r3, 80011a4 <ESP01_Task+0x544>
 80011a0:	481b      	ldr	r0, [pc, #108]	; (8001210 <ESP01_Task+0x5b0>)
 80011a2:	4798      	blx	r3
 80011a4:	2305      	movs	r3, #5
 80011a6:	e7a1      	b.n	80010ec <ESP01_Task+0x48c>
 80011a8:	7823      	ldrb	r3, [r4, #0]
 80011aa:	0799      	lsls	r1, r3, #30
 80011ac:	d532      	bpl.n	8001214 <ESP01_Task+0x5b4>
 80011ae:	2307      	movs	r3, #7
 80011b0:	e79c      	b.n	80010ec <ESP01_Task+0x48c>
 80011b2:	bf00      	nop
 80011b4:	200001c5 	.word	0x200001c5
 80011b8:	200001c0 	.word	0x200001c0
 80011bc:	200003ec 	.word	0x200003ec
 80011c0:	200001bc 	.word	0x200001bc
 80011c4:	08007cde 	.word	0x08007cde
 80011c8:	08007cf3 	.word	0x08007cf3
 80011cc:	200003fe 	.word	0x200003fe
 80011d0:	200001dc 	.word	0x200001dc
 80011d4:	200001c8 	.word	0x200001c8
 80011d8:	08007d07 	.word	0x08007d07
 80011dc:	200003e8 	.word	0x200003e8
 80011e0:	08007d1a 	.word	0x08007d1a
 80011e4:	08007d30 	.word	0x08007d30
 80011e8:	200003f4 	.word	0x200003f4
 80011ec:	200003f0 	.word	0x200003f0
 80011f0:	200001c4 	.word	0x200001c4
 80011f4:	200003fc 	.word	0x200003fc
 80011f8:	200003f8 	.word	0x200003f8
 80011fc:	08007dcc 	.word	0x08007dcc
 8001200:	08007d46 	.word	0x08007d46
 8001204:	08007e1b 	.word	0x08007e1b
 8001208:	08007d54 	.word	0x08007d54
 800120c:	08007dea 	.word	0x08007dea
 8001210:	08007d68 	.word	0x08007d68
 8001214:	4f6d      	ldr	r7, [pc, #436]	; (80013cc <ESP01_Task+0x76c>)
 8001216:	783b      	ldrb	r3, [r7, #0]
 8001218:	2b00      	cmp	r3, #0
 800121a:	f43f af7d 	beq.w	8001118 <ESP01_Task+0x4b8>
 800121e:	486c      	ldr	r0, [pc, #432]	; (80013d0 <ESP01_Task+0x770>)
 8001220:	f7ff fb94 	bl	800094c <ESP01StrToBufTX>
 8001224:	2022      	movs	r0, #34	; 0x22
 8001226:	f7ff fbab 	bl	8000980 <ESP01ByteToBufTX>
 800122a:	4638      	mov	r0, r7
 800122c:	f7ff fb8e 	bl	800094c <ESP01StrToBufTX>
 8001230:	2022      	movs	r0, #34	; 0x22
 8001232:	f7ff fba5 	bl	8000980 <ESP01ByteToBufTX>
 8001236:	202c      	movs	r0, #44	; 0x2c
 8001238:	f7ff fba2 	bl	8000980 <ESP01ByteToBufTX>
 800123c:	2022      	movs	r0, #34	; 0x22
 800123e:	f7ff fb9f 	bl	8000980 <ESP01ByteToBufTX>
 8001242:	4864      	ldr	r0, [pc, #400]	; (80013d4 <ESP01_Task+0x774>)
 8001244:	f7ff fb82 	bl	800094c <ESP01StrToBufTX>
 8001248:	2022      	movs	r0, #34	; 0x22
 800124a:	f7ff fb99 	bl	8000980 <ESP01ByteToBufTX>
 800124e:	200d      	movs	r0, #13
 8001250:	f7ff fb96 	bl	8000980 <ESP01ByteToBufTX>
 8001254:	200a      	movs	r0, #10
 8001256:	f7ff fb93 	bl	8000980 <ESP01ByteToBufTX>
 800125a:	4b5f      	ldr	r3, [pc, #380]	; (80013d8 <ESP01_Task+0x778>)
 800125c:	681b      	ldr	r3, [r3, #0]
 800125e:	b10b      	cbz	r3, 8001264 <ESP01_Task+0x604>
 8001260:	485e      	ldr	r0, [pc, #376]	; (80013dc <ESP01_Task+0x77c>)
 8001262:	4798      	blx	r3
 8001264:	7823      	ldrb	r3, [r4, #0]
 8001266:	f36f 1345 	bfc	r3, #5, #1
 800126a:	7023      	strb	r3, [r4, #0]
 800126c:	2306      	movs	r3, #6
 800126e:	702b      	strb	r3, [r5, #0]
 8001270:	f240 53dc 	movw	r3, #1500	; 0x5dc
 8001274:	e749      	b.n	800110a <ESP01_Task+0x4aa>
 8001276:	7823      	ldrb	r3, [r4, #0]
 8001278:	069a      	lsls	r2, r3, #26
 800127a:	d522      	bpl.n	80012c2 <ESP01_Task+0x662>
 800127c:	2307      	movs	r3, #7
 800127e:	2204      	movs	r2, #4
 8001280:	702b      	strb	r3, [r5, #0]
 8001282:	4b57      	ldr	r3, [pc, #348]	; (80013e0 <ESP01_Task+0x780>)
 8001284:	e747      	b.n	8001116 <ESP01_Task+0x4b6>
 8001286:	2200      	movs	r2, #0
 8001288:	4b56      	ldr	r3, [pc, #344]	; (80013e4 <ESP01_Task+0x784>)
 800128a:	4857      	ldr	r0, [pc, #348]	; (80013e8 <ESP01_Task+0x788>)
 800128c:	701a      	strb	r2, [r3, #0]
 800128e:	f7ff fb5d 	bl	800094c <ESP01StrToBufTX>
 8001292:	4b51      	ldr	r3, [pc, #324]	; (80013d8 <ESP01_Task+0x778>)
 8001294:	681b      	ldr	r3, [r3, #0]
 8001296:	b10b      	cbz	r3, 800129c <ESP01_Task+0x63c>
 8001298:	4854      	ldr	r0, [pc, #336]	; (80013ec <ESP01_Task+0x78c>)
 800129a:	4798      	blx	r3
 800129c:	7823      	ldrb	r3, [r4, #0]
 800129e:	f36f 1345 	bfc	r3, #5, #1
 80012a2:	7023      	strb	r3, [r4, #0]
 80012a4:	2308      	movs	r3, #8
 80012a6:	e721      	b.n	80010ec <ESP01_Task+0x48c>
 80012a8:	7823      	ldrb	r3, [r4, #0]
 80012aa:	069b      	lsls	r3, r3, #26
 80012ac:	d501      	bpl.n	80012b2 <ESP01_Task+0x652>
 80012ae:	2309      	movs	r3, #9
 80012b0:	e71c      	b.n	80010ec <ESP01_Task+0x48c>
 80012b2:	4a4b      	ldr	r2, [pc, #300]	; (80013e0 <ESP01_Task+0x780>)
 80012b4:	7813      	ldrb	r3, [r2, #0]
 80012b6:	3b01      	subs	r3, #1
 80012b8:	b2db      	uxtb	r3, r3
 80012ba:	7013      	strb	r3, [r2, #0]
 80012bc:	2b00      	cmp	r3, #0
 80012be:	f47f af76 	bne.w	80011ae <ESP01_Task+0x54e>
 80012c2:	2301      	movs	r3, #1
 80012c4:	e712      	b.n	80010ec <ESP01_Task+0x48c>
 80012c6:	4b4a      	ldr	r3, [pc, #296]	; (80013f0 <ESP01_Task+0x790>)
 80012c8:	781b      	ldrb	r3, [r3, #0]
 80012ca:	2b00      	cmp	r3, #0
 80012cc:	f43f af24 	beq.w	8001118 <ESP01_Task+0x4b8>
 80012d0:	4848      	ldr	r0, [pc, #288]	; (80013f4 <ESP01_Task+0x794>)
 80012d2:	f7ff fb3b 	bl	800094c <ESP01StrToBufTX>
 80012d6:	4b40      	ldr	r3, [pc, #256]	; (80013d8 <ESP01_Task+0x778>)
 80012d8:	681b      	ldr	r3, [r3, #0]
 80012da:	b10b      	cbz	r3, 80012e0 <ESP01_Task+0x680>
 80012dc:	4846      	ldr	r0, [pc, #280]	; (80013f8 <ESP01_Task+0x798>)
 80012de:	4798      	blx	r3
 80012e0:	230a      	movs	r3, #10
 80012e2:	e703      	b.n	80010ec <ESP01_Task+0x48c>
 80012e4:	4845      	ldr	r0, [pc, #276]	; (80013fc <ESP01_Task+0x79c>)
 80012e6:	f7ff fb31 	bl	800094c <ESP01StrToBufTX>
 80012ea:	2022      	movs	r0, #34	; 0x22
 80012ec:	f7ff fb48 	bl	8000980 <ESP01ByteToBufTX>
 80012f0:	4843      	ldr	r0, [pc, #268]	; (8001400 <ESP01_Task+0x7a0>)
 80012f2:	f7ff fb2b 	bl	800094c <ESP01StrToBufTX>
 80012f6:	2022      	movs	r0, #34	; 0x22
 80012f8:	f7ff fb42 	bl	8000980 <ESP01ByteToBufTX>
 80012fc:	202c      	movs	r0, #44	; 0x2c
 80012fe:	f7ff fb3f 	bl	8000980 <ESP01ByteToBufTX>
 8001302:	2022      	movs	r0, #34	; 0x22
 8001304:	f7ff fb3c 	bl	8000980 <ESP01ByteToBufTX>
 8001308:	4839      	ldr	r0, [pc, #228]	; (80013f0 <ESP01_Task+0x790>)
 800130a:	f7ff fb1f 	bl	800094c <ESP01StrToBufTX>
 800130e:	2022      	movs	r0, #34	; 0x22
 8001310:	f7ff fb36 	bl	8000980 <ESP01ByteToBufTX>
 8001314:	202c      	movs	r0, #44	; 0x2c
 8001316:	f7ff fb33 	bl	8000980 <ESP01ByteToBufTX>
 800131a:	483a      	ldr	r0, [pc, #232]	; (8001404 <ESP01_Task+0x7a4>)
 800131c:	f7ff fb16 	bl	800094c <ESP01StrToBufTX>
 8001320:	202c      	movs	r0, #44	; 0x2c
 8001322:	f7ff fb2d 	bl	8000980 <ESP01ByteToBufTX>
 8001326:	4838      	ldr	r0, [pc, #224]	; (8001408 <ESP01_Task+0x7a8>)
 8001328:	f7ff fb10 	bl	800094c <ESP01StrToBufTX>
 800132c:	202c      	movs	r0, #44	; 0x2c
 800132e:	f7ff fb27 	bl	8000980 <ESP01ByteToBufTX>
 8001332:	2030      	movs	r0, #48	; 0x30
 8001334:	f7ff fb24 	bl	8000980 <ESP01ByteToBufTX>
 8001338:	200d      	movs	r0, #13
 800133a:	f7ff fb21 	bl	8000980 <ESP01ByteToBufTX>
 800133e:	200a      	movs	r0, #10
 8001340:	f7ff fb1e 	bl	8000980 <ESP01ByteToBufTX>
 8001344:	4b24      	ldr	r3, [pc, #144]	; (80013d8 <ESP01_Task+0x778>)
 8001346:	681b      	ldr	r3, [r3, #0]
 8001348:	b10b      	cbz	r3, 800134e <ESP01_Task+0x6ee>
 800134a:	4830      	ldr	r0, [pc, #192]	; (800140c <ESP01_Task+0x7ac>)
 800134c:	4798      	blx	r3
 800134e:	7823      	ldrb	r3, [r4, #0]
 8001350:	f023 0360 	bic.w	r3, r3, #96	; 0x60
 8001354:	7023      	strb	r3, [r4, #0]
 8001356:	230b      	movs	r3, #11
 8001358:	702b      	strb	r3, [r5, #0]
 800135a:	23c8      	movs	r3, #200	; 0xc8
 800135c:	e6d5      	b.n	800110a <ESP01_Task+0x4aa>
 800135e:	7823      	ldrb	r3, [r4, #0]
 8001360:	069f      	lsls	r7, r3, #26
 8001362:	d5ae      	bpl.n	80012c2 <ESP01_Task+0x662>
 8001364:	230c      	movs	r3, #12
 8001366:	e6c1      	b.n	80010ec <ESP01_Task+0x48c>
 8001368:	7823      	ldrb	r3, [r4, #0]
 800136a:	0798      	lsls	r0, r3, #30
 800136c:	d5a9      	bpl.n	80012c2 <ESP01_Task+0x662>
 800136e:	0659      	lsls	r1, r3, #25
 8001370:	d59d      	bpl.n	80012ae <ESP01_Task+0x64e>
 8001372:	2300      	movs	r3, #0
 8001374:	e6c9      	b.n	800110a <ESP01_Task+0x4aa>
 8001376:	4d26      	ldr	r5, [pc, #152]	; (8001410 <ESP01_Task+0x7b0>)
 8001378:	4926      	ldr	r1, [pc, #152]	; (8001414 <ESP01_Task+0x7b4>)
 800137a:	882a      	ldrh	r2, [r5, #0]
 800137c:	8809      	ldrh	r1, [r1, #0]
 800137e:	4291      	cmp	r1, r2
 8001380:	f43f aedd 	beq.w	800113e <ESP01_Task+0x4de>
 8001384:	4e24      	ldr	r6, [pc, #144]	; (8001418 <ESP01_Task+0x7b8>)
 8001386:	075f      	lsls	r7, r3, #29
 8001388:	5cb0      	ldrb	r0, [r6, r2]
 800138a:	d502      	bpl.n	8001392 <ESP01_Task+0x732>
 800138c:	283e      	cmp	r0, #62	; 0x3e
 800138e:	bf08      	it	eq
 8001390:	200a      	moveq	r0, #10
 8001392:	4b22      	ldr	r3, [pc, #136]	; (800141c <ESP01_Task+0x7bc>)
 8001394:	685b      	ldr	r3, [r3, #4]
 8001396:	4798      	blx	r3
 8001398:	2800      	cmp	r0, #0
 800139a:	f43f aed0 	beq.w	800113e <ESP01_Task+0x4de>
 800139e:	7822      	ldrb	r2, [r4, #0]
 80013a0:	882b      	ldrh	r3, [r5, #0]
 80013a2:	0751      	lsls	r1, r2, #29
 80013a4:	d50a      	bpl.n	80013bc <ESP01_Task+0x75c>
 80013a6:	5cf1      	ldrb	r1, [r6, r3]
 80013a8:	293e      	cmp	r1, #62	; 0x3e
 80013aa:	d107      	bne.n	80013bc <ESP01_Task+0x75c>
 80013ac:	2105      	movs	r1, #5
 80013ae:	f022 0205 	bic.w	r2, r2, #5
 80013b2:	f042 0201 	orr.w	r2, r2, #1
 80013b6:	7022      	strb	r2, [r4, #0]
 80013b8:	4a19      	ldr	r2, [pc, #100]	; (8001420 <ESP01_Task+0x7c0>)
 80013ba:	6011      	str	r1, [r2, #0]
 80013bc:	3301      	adds	r3, #1
 80013be:	b29b      	uxth	r3, r3
 80013c0:	f5b3 7f80 	cmp.w	r3, #256	; 0x100
 80013c4:	bf08      	it	eq
 80013c6:	2300      	moveq	r3, #0
 80013c8:	802b      	strh	r3, [r5, #0]
 80013ca:	e6b8      	b.n	800113e <ESP01_Task+0x4de>
 80013cc:	200002a8 	.word	0x200002a8
 80013d0:	08007e11 	.word	0x08007e11
 80013d4:	200001f2 	.word	0x200001f2
 80013d8:	200001bc 	.word	0x200001bc
 80013dc:	08007d7c 	.word	0x08007d7c
 80013e0:	200003f4 	.word	0x200003f4
 80013e4:	200001dc 	.word	0x200001dc
 80013e8:	08007dd1 	.word	0x08007dd1
 80013ec:	08007d8f 	.word	0x08007d8f
 80013f0:	20000292 	.word	0x20000292
 80013f4:	08007ddc 	.word	0x08007ddc
 80013f8:	08007da0 	.word	0x08007da0
 80013fc:	08007e04 	.word	0x08007e04
 8001400:	20000000 	.word	0x20000000
 8001404:	200002a2 	.word	0x200002a2
 8001408:	200001ec 	.word	0x200001ec
 800140c:	08007db6 	.word	0x08007db6
 8001410:	200003f8 	.word	0x200003f8
 8001414:	200003fc 	.word	0x200003fc
 8001418:	200002e8 	.word	0x200002e8
 800141c:	200001c8 	.word	0x200001c8
 8001420:	200003f0 	.word	0x200003f0

08001424 <ESP01_AttachChangeState>:
 8001424:	4b01      	ldr	r3, [pc, #4]	; (800142c <ESP01_AttachChangeState+0x8>)
 8001426:	6018      	str	r0, [r3, #0]
 8001428:	4770      	bx	lr
 800142a:	bf00      	nop
 800142c:	200001c0 	.word	0x200001c0

08001430 <ESP01_AttachDebugStr>:
 8001430:	4b01      	ldr	r3, [pc, #4]	; (8001438 <ESP01_AttachDebugStr+0x8>)
 8001432:	6018      	str	r0, [r3, #0]
 8001434:	4770      	bx	lr
 8001436:	bf00      	nop
 8001438:	200001bc 	.word	0x200001bc

0800143c <MPU6050_Init>:
 800143c:	b5f0      	push	{r4, r5, r6, r7, lr}
 800143e:	2401      	movs	r4, #1
 8001440:	f44f 757a 	mov.w	r5, #1000	; 0x3e8
 8001444:	b087      	sub	sp, #28
 8001446:	f10d 0316 	add.w	r3, sp, #22
 800144a:	9300      	str	r3, [sp, #0]
 800144c:	2275      	movs	r2, #117	; 0x75
 800144e:	4623      	mov	r3, r4
 8001450:	21d0      	movs	r1, #208	; 0xd0
 8001452:	e9cd 4501 	strd	r4, r5, [sp, #4]
 8001456:	481c      	ldr	r0, [pc, #112]	; (80014c8 <MPU6050_Init+0x8c>)
 8001458:	f002 fe5e 	bl	8004118 <HAL_I2C_Mem_Read>
 800145c:	f89d 3016 	ldrb.w	r3, [sp, #22]
 8001460:	2b68      	cmp	r3, #104	; 0x68
 8001462:	d12f      	bne.n	80014c4 <MPU6050_Init+0x88>
 8001464:	2700      	movs	r7, #0
 8001466:	f10d 0617 	add.w	r6, sp, #23
 800146a:	4623      	mov	r3, r4
 800146c:	226b      	movs	r2, #107	; 0x6b
 800146e:	21d0      	movs	r1, #208	; 0xd0
 8001470:	e9cd 4501 	strd	r4, r5, [sp, #4]
 8001474:	4814      	ldr	r0, [pc, #80]	; (80014c8 <MPU6050_Init+0x8c>)
 8001476:	9600      	str	r6, [sp, #0]
 8001478:	f88d 7017 	strb.w	r7, [sp, #23]
 800147c:	f002 fdbc 	bl	8003ff8 <HAL_I2C_Mem_Write>
 8001480:	2307      	movs	r3, #7
 8001482:	2219      	movs	r2, #25
 8001484:	21d0      	movs	r1, #208	; 0xd0
 8001486:	f88d 3017 	strb.w	r3, [sp, #23]
 800148a:	e9cd 4501 	strd	r4, r5, [sp, #4]
 800148e:	4623      	mov	r3, r4
 8001490:	480d      	ldr	r0, [pc, #52]	; (80014c8 <MPU6050_Init+0x8c>)
 8001492:	9600      	str	r6, [sp, #0]
 8001494:	f002 fdb0 	bl	8003ff8 <HAL_I2C_Mem_Write>
 8001498:	4623      	mov	r3, r4
 800149a:	221c      	movs	r2, #28
 800149c:	21d0      	movs	r1, #208	; 0xd0
 800149e:	e9cd 4501 	strd	r4, r5, [sp, #4]
 80014a2:	4809      	ldr	r0, [pc, #36]	; (80014c8 <MPU6050_Init+0x8c>)
 80014a4:	9600      	str	r6, [sp, #0]
 80014a6:	f88d 7017 	strb.w	r7, [sp, #23]
 80014aa:	f002 fda5 	bl	8003ff8 <HAL_I2C_Mem_Write>
 80014ae:	4623      	mov	r3, r4
 80014b0:	221b      	movs	r2, #27
 80014b2:	21d0      	movs	r1, #208	; 0xd0
 80014b4:	e9cd 4501 	strd	r4, r5, [sp, #4]
 80014b8:	4803      	ldr	r0, [pc, #12]	; (80014c8 <MPU6050_Init+0x8c>)
 80014ba:	9600      	str	r6, [sp, #0]
 80014bc:	f88d 7017 	strb.w	r7, [sp, #23]
 80014c0:	f002 fd9a 	bl	8003ff8 <HAL_I2C_Mem_Write>
 80014c4:	b007      	add	sp, #28
 80014c6:	bdf0      	pop	{r4, r5, r6, r7, pc}
 80014c8:	20000c14 	.word	0x20000c14
 80014cc:	00000000 	.word	0x00000000

080014d0 <MPU6050_Read_Accel>:
 80014d0:	2306      	movs	r3, #6
 80014d2:	f44f 727a 	mov.w	r2, #1000	; 0x3e8
 80014d6:	b530      	push	{r4, r5, lr}
 80014d8:	b087      	sub	sp, #28
 80014da:	e9cd 3201 	strd	r3, r2, [sp, #4]
 80014de:	ab04      	add	r3, sp, #16
 80014e0:	223b      	movs	r2, #59	; 0x3b
 80014e2:	9300      	str	r3, [sp, #0]
 80014e4:	21d0      	movs	r1, #208	; 0xd0
 80014e6:	2301      	movs	r3, #1
 80014e8:	483d      	ldr	r0, [pc, #244]	; (80015e0 <MPU6050_Read_Accel+0x110>)
 80014ea:	f002 fe15 	bl	8004118 <HAL_I2C_Mem_Read>
 80014ee:	f8bd 3010 	ldrh.w	r3, [sp, #16]
 80014f2:	4a3c      	ldr	r2, [pc, #240]	; (80015e4 <MPU6050_Read_Accel+0x114>)
 80014f4:	ba5b      	rev16	r3, r3
 80014f6:	8013      	strh	r3, [r2, #0]
 80014f8:	b218      	sxth	r0, r3
 80014fa:	f8bd 3012 	ldrh.w	r3, [sp, #18]
 80014fe:	4a3a      	ldr	r2, [pc, #232]	; (80015e8 <MPU6050_Read_Accel+0x118>)
 8001500:	ba5b      	rev16	r3, r3
 8001502:	8013      	strh	r3, [r2, #0]
 8001504:	b21d      	sxth	r5, r3
 8001506:	f8bd 3014 	ldrh.w	r3, [sp, #20]
 800150a:	4a38      	ldr	r2, [pc, #224]	; (80015ec <MPU6050_Read_Accel+0x11c>)
 800150c:	ba5b      	rev16	r3, r3
 800150e:	b21c      	sxth	r4, r3
 8001510:	8013      	strh	r3, [r2, #0]
 8001512:	ea80 73e0 	eor.w	r3, r0, r0, asr #31
 8001516:	eba3 73e0 	sub.w	r3, r3, r0, asr #31
 800151a:	b29b      	uxth	r3, r3
 800151c:	f5b3 7fe1 	cmp.w	r3, #450	; 0x1c2
 8001520:	d951      	bls.n	80015c6 <MPU6050_Read_Accel+0xf6>
 8001522:	2800      	cmp	r0, #0
 8001524:	bfbc      	itt	lt
 8001526:	f500 507f 	addlt.w	r0, r0, #16320	; 0x3fc0
 800152a:	303f      	addlt	r0, #63	; 0x3f
 800152c:	1380      	asrs	r0, r0, #14
 800152e:	f7fe ff69 	bl	8000404 <__aeabi_i2d>
 8001532:	a329      	add	r3, pc, #164	; (adr r3, 80015d8 <MPU6050_Read_Accel+0x108>)
 8001534:	e9d3 2300 	ldrd	r2, r3, [r3]
 8001538:	f7fe ffce 	bl	80004d8 <__aeabi_dmul>
 800153c:	2200      	movs	r2, #0
 800153e:	4b2c      	ldr	r3, [pc, #176]	; (80015f0 <MPU6050_Read_Accel+0x120>)
 8001540:	f7fe ffca 	bl	80004d8 <__aeabi_dmul>
 8001544:	f7ff f9da 	bl	80008fc <__aeabi_d2iz>
 8001548:	4b2a      	ldr	r3, [pc, #168]	; (80015f4 <MPU6050_Read_Accel+0x124>)
 800154a:	6018      	str	r0, [r3, #0]
 800154c:	ea85 73e5 	eor.w	r3, r5, r5, asr #31
 8001550:	eba3 73e5 	sub.w	r3, r3, r5, asr #31
 8001554:	b29b      	uxth	r3, r3
 8001556:	f5b3 7fe1 	cmp.w	r3, #450	; 0x1c2
 800155a:	d936      	bls.n	80015ca <MPU6050_Read_Accel+0xfa>
 800155c:	1e28      	subs	r0, r5, #0
 800155e:	bfbc      	itt	lt
 8001560:	f500 507f 	addlt.w	r0, r0, #16320	; 0x3fc0
 8001564:	303f      	addlt	r0, #63	; 0x3f
 8001566:	1380      	asrs	r0, r0, #14
 8001568:	f7fe ff4c 	bl	8000404 <__aeabi_i2d>
 800156c:	a31a      	add	r3, pc, #104	; (adr r3, 80015d8 <MPU6050_Read_Accel+0x108>)
 800156e:	e9d3 2300 	ldrd	r2, r3, [r3]
 8001572:	f7fe ffb1 	bl	80004d8 <__aeabi_dmul>
 8001576:	2200      	movs	r2, #0
 8001578:	4b1d      	ldr	r3, [pc, #116]	; (80015f0 <MPU6050_Read_Accel+0x120>)
 800157a:	f7fe ffad 	bl	80004d8 <__aeabi_dmul>
 800157e:	f7ff f9bd 	bl	80008fc <__aeabi_d2iz>
 8001582:	f644 6220 	movw	r2, #20000	; 0x4e20
 8001586:	4b1c      	ldr	r3, [pc, #112]	; (80015f8 <MPU6050_Read_Accel+0x128>)
 8001588:	6018      	str	r0, [r3, #0]
 800158a:	ea84 73e4 	eor.w	r3, r4, r4, asr #31
 800158e:	eba3 73e4 	sub.w	r3, r3, r4, asr #31
 8001592:	b29b      	uxth	r3, r3
 8001594:	4293      	cmp	r3, r2
 8001596:	d91a      	bls.n	80015ce <MPU6050_Read_Accel+0xfe>
 8001598:	1e20      	subs	r0, r4, #0
 800159a:	bfbc      	itt	lt
 800159c:	f500 507f 	addlt.w	r0, r0, #16320	; 0x3fc0
 80015a0:	303f      	addlt	r0, #63	; 0x3f
 80015a2:	1380      	asrs	r0, r0, #14
 80015a4:	f7fe ff2e 	bl	8000404 <__aeabi_i2d>
 80015a8:	a30b      	add	r3, pc, #44	; (adr r3, 80015d8 <MPU6050_Read_Accel+0x108>)
 80015aa:	e9d3 2300 	ldrd	r2, r3, [r3]
 80015ae:	f7fe ff93 	bl	80004d8 <__aeabi_dmul>
 80015b2:	2200      	movs	r2, #0
 80015b4:	4b0e      	ldr	r3, [pc, #56]	; (80015f0 <MPU6050_Read_Accel+0x120>)
 80015b6:	f7fe ff8f 	bl	80004d8 <__aeabi_dmul>
 80015ba:	f7ff f99f 	bl	80008fc <__aeabi_d2iz>
 80015be:	4b0f      	ldr	r3, [pc, #60]	; (80015fc <MPU6050_Read_Accel+0x12c>)
 80015c0:	6018      	str	r0, [r3, #0]
 80015c2:	b007      	add	sp, #28
 80015c4:	bd30      	pop	{r4, r5, pc}
 80015c6:	2000      	movs	r0, #0
 80015c8:	e7be      	b.n	8001548 <MPU6050_Read_Accel+0x78>
 80015ca:	2000      	movs	r0, #0
 80015cc:	e7d9      	b.n	8001582 <MPU6050_Read_Accel+0xb2>
 80015ce:	f240 30d5 	movw	r0, #981	; 0x3d5
 80015d2:	e7f4      	b.n	80015be <MPU6050_Read_Accel+0xee>
 80015d4:	f3af 8000 	nop.w
 80015d8:	51eb851f 	.word	0x51eb851f
 80015dc:	40239eb8 	.word	0x40239eb8
 80015e0:	20000c14 	.word	0x20000c14
 80015e4:	20000402 	.word	0x20000402
 80015e8:	20000404 	.word	0x20000404
 80015ec:	20000406 	.word	0x20000406
 80015f0:	40590000 	.word	0x40590000
 80015f4:	20000408 	.word	0x20000408
 80015f8:	2000040c 	.word	0x2000040c
 80015fc:	20000410 	.word	0x20000410

08001600 <MPU6050_Read_Gyro>:
 8001600:	2306      	movs	r3, #6
 8001602:	f44f 727a 	mov.w	r2, #1000	; 0x3e8
 8001606:	b510      	push	{r4, lr}
 8001608:	b086      	sub	sp, #24
 800160a:	e9cd 3201 	strd	r3, r2, [sp, #4]
 800160e:	ab04      	add	r3, sp, #16
 8001610:	9300      	str	r3, [sp, #0]
 8001612:	2243      	movs	r2, #67	; 0x43
 8001614:	2301      	movs	r3, #1
 8001616:	21d0      	movs	r1, #208	; 0xd0
 8001618:	4824      	ldr	r0, [pc, #144]	; (80016ac <MPU6050_Read_Gyro+0xac>)
 800161a:	f002 fd7d 	bl	8004118 <HAL_I2C_Mem_Read>
 800161e:	f8bd 3010 	ldrh.w	r3, [sp, #16]
 8001622:	4a23      	ldr	r2, [pc, #140]	; (80016b0 <MPU6050_Read_Gyro+0xb0>)
 8001624:	ba5b      	rev16	r3, r3
 8001626:	b219      	sxth	r1, r3
 8001628:	8013      	strh	r3, [r2, #0]
 800162a:	f8bd 3012 	ldrh.w	r3, [sp, #18]
 800162e:	4821      	ldr	r0, [pc, #132]	; (80016b4 <MPU6050_Read_Gyro+0xb4>)
 8001630:	ba5b      	rev16	r3, r3
 8001632:	8003      	strh	r3, [r0, #0]
 8001634:	f8bd 0014 	ldrh.w	r0, [sp, #20]
 8001638:	4c1f      	ldr	r4, [pc, #124]	; (80016b8 <MPU6050_Read_Gyro+0xb8>)
 800163a:	ba40      	rev16	r0, r0
 800163c:	b21a      	sxth	r2, r3
 800163e:	8020      	strh	r0, [r4, #0]
 8001640:	b203      	sxth	r3, r0
 8001642:	ea81 70e1 	eor.w	r0, r1, r1, asr #31
 8001646:	eba0 70e1 	sub.w	r0, r0, r1, asr #31
 800164a:	b280      	uxth	r0, r0
 800164c:	f5b0 7fe1 	cmp.w	r0, #450	; 0x1c2
 8001650:	bf83      	ittte	hi
 8001652:	2083      	movhi	r0, #131	; 0x83
 8001654:	fb91 f1f0 	sdivhi	r1, r1, r0
 8001658:	2064      	movhi	r0, #100	; 0x64
 800165a:	2100      	movls	r1, #0
 800165c:	bf88      	it	hi
 800165e:	4341      	mulhi	r1, r0
 8001660:	4816      	ldr	r0, [pc, #88]	; (80016bc <MPU6050_Read_Gyro+0xbc>)
 8001662:	6001      	str	r1, [r0, #0]
 8001664:	ea82 71e2 	eor.w	r1, r2, r2, asr #31
 8001668:	eba1 71e2 	sub.w	r1, r1, r2, asr #31
 800166c:	b289      	uxth	r1, r1
 800166e:	f5b1 7faf 	cmp.w	r1, #350	; 0x15e
 8001672:	bf83      	ittte	hi
 8001674:	2183      	movhi	r1, #131	; 0x83
 8001676:	fb92 f2f1 	sdivhi	r2, r2, r1
 800167a:	2164      	movhi	r1, #100	; 0x64
 800167c:	2200      	movls	r2, #0
 800167e:	bf88      	it	hi
 8001680:	434a      	mulhi	r2, r1
 8001682:	490f      	ldr	r1, [pc, #60]	; (80016c0 <MPU6050_Read_Gyro+0xc0>)
 8001684:	600a      	str	r2, [r1, #0]
 8001686:	ea83 72e3 	eor.w	r2, r3, r3, asr #31
 800168a:	eba2 72e3 	sub.w	r2, r2, r3, asr #31
 800168e:	b292      	uxth	r2, r2
 8001690:	f5b2 7faf 	cmp.w	r2, #350	; 0x15e
 8001694:	bf83      	ittte	hi
 8001696:	2283      	movhi	r2, #131	; 0x83
 8001698:	fb93 f3f2 	sdivhi	r3, r3, r2
 800169c:	2264      	movhi	r2, #100	; 0x64
 800169e:	2300      	movls	r3, #0
 80016a0:	bf88      	it	hi
 80016a2:	4353      	mulhi	r3, r2
 80016a4:	4a07      	ldr	r2, [pc, #28]	; (80016c4 <MPU6050_Read_Gyro+0xc4>)
 80016a6:	6013      	str	r3, [r2, #0]
 80016a8:	b006      	add	sp, #24
 80016aa:	bd10      	pop	{r4, pc}
 80016ac:	20000c14 	.word	0x20000c14
 80016b0:	2000041c 	.word	0x2000041c
 80016b4:	2000041e 	.word	0x2000041e
 80016b8:	20000420 	.word	0x20000420
 80016bc:	20000414 	.word	0x20000414
 80016c0:	20000418 	.word	0x20000418
 80016c4:	20000424 	.word	0x20000424

080016c8 <OnUSBRx>:
 80016c8:	b570      	push	{r4, r5, r6, lr}
 80016ca:	2400      	movs	r4, #0
 80016cc:	4b0b      	ldr	r3, [pc, #44]	; (80016fc <OnUSBRx+0x34>)
 80016ce:	428c      	cmp	r4, r1
 80016d0:	db05      	blt.n	80016de <OnUSBRx+0x16>
 80016d2:	4a0b      	ldr	r2, [pc, #44]	; (8001700 <OnUSBRx+0x38>)
 80016d4:	7813      	ldrb	r3, [r2, #0]
 80016d6:	f043 0304 	orr.w	r3, r3, #4
 80016da:	7013      	strb	r3, [r2, #0]
 80016dc:	bd70      	pop	{r4, r5, r6, pc}
 80016de:	681e      	ldr	r6, [r3, #0]
 80016e0:	88da      	ldrh	r2, [r3, #6]
 80016e2:	b292      	uxth	r2, r2
 80016e4:	1c55      	adds	r5, r2, #1
 80016e6:	b2ad      	uxth	r5, r5
 80016e8:	80dd      	strh	r5, [r3, #6]
 80016ea:	5d05      	ldrb	r5, [r0, r4]
 80016ec:	3401      	adds	r4, #1
 80016ee:	54b5      	strb	r5, [r6, r2]
 80016f0:	8a1d      	ldrh	r5, [r3, #16]
 80016f2:	88da      	ldrh	r2, [r3, #6]
 80016f4:	b292      	uxth	r2, r2
 80016f6:	402a      	ands	r2, r5
 80016f8:	80da      	strh	r2, [r3, #6]
 80016fa:	e7e8      	b.n	80016ce <OnUSBRx+0x6>
 80016fc:	20000d78 	.word	0x20000d78
 8001700:	20000b94 	.word	0x20000b94

08001704 <PutByteOnTxESP01>:
 8001704:	4602      	mov	r2, r0
 8001706:	4b05      	ldr	r3, [pc, #20]	; (800171c <PutByteOnTxESP01+0x18>)
 8001708:	681b      	ldr	r3, [r3, #0]
 800170a:	6818      	ldr	r0, [r3, #0]
 800170c:	f010 0080 	ands.w	r0, r0, #128	; 0x80
 8001710:	bf1e      	ittt	ne
 8001712:	4b03      	ldrne	r3, [pc, #12]	; (8001720 <PutByteOnTxESP01+0x1c>)
 8001714:	2001      	movne	r0, #1
 8001716:	605a      	strne	r2, [r3, #4]
 8001718:	4770      	bx	lr
 800171a:	bf00      	nop
 800171c:	20000cf8 	.word	0x20000cf8
 8001720:	40013800 	.word	0x40013800

08001724 <GetESP01dbg>:
 8001724:	4770      	bx	lr
	...

08001728 <CHENState>:
 8001728:	4602      	mov	r2, r0
 800172a:	2102      	movs	r1, #2
 800172c:	4801      	ldr	r0, [pc, #4]	; (8001734 <CHENState+0xc>)
 800172e:	f002 b9ab 	b.w	8003a88 <HAL_GPIO_WritePin>
 8001732:	bf00      	nop
 8001734:	40010c00 	.word	0x40010c00

08001738 <HAL_TIM_PeriodElapsedCallback>:
 8001738:	6803      	ldr	r3, [r0, #0]
 800173a:	f1b3 4f80 	cmp.w	r3, #1073741824	; 0x40000000
 800173e:	d115      	bne.n	800176c <HAL_TIM_PeriodElapsedCallback+0x34>
 8001740:	4a0b      	ldr	r2, [pc, #44]	; (8001770 <HAL_TIM_PeriodElapsedCallback+0x38>)
 8001742:	7813      	ldrb	r3, [r2, #0]
 8001744:	3b01      	subs	r3, #1
 8001746:	b2db      	uxtb	r3, r3
 8001748:	7013      	strb	r3, [r2, #0]
 800174a:	b933      	cbnz	r3, 800175a <HAL_TIM_PeriodElapsedCallback+0x22>
 800174c:	4909      	ldr	r1, [pc, #36]	; (8001774 <HAL_TIM_PeriodElapsedCallback+0x3c>)
 800174e:	780b      	ldrb	r3, [r1, #0]
 8001750:	f043 0308 	orr.w	r3, r3, #8
 8001754:	700b      	strb	r3, [r1, #0]
 8001756:	2328      	movs	r3, #40	; 0x28
 8001758:	7013      	strb	r3, [r2, #0]
 800175a:	4b07      	ldr	r3, [pc, #28]	; (8001778 <HAL_TIM_PeriodElapsedCallback+0x40>)
 800175c:	2208      	movs	r2, #8
 800175e:	8819      	ldrh	r1, [r3, #0]
 8001760:	4b06      	ldr	r3, [pc, #24]	; (800177c <HAL_TIM_PeriodElapsedCallback+0x44>)
 8001762:	4807      	ldr	r0, [pc, #28]	; (8001780 <HAL_TIM_PeriodElapsedCallback+0x48>)
 8001764:	eb03 1101 	add.w	r1, r3, r1, lsl #4
 8001768:	f001 bdb0 	b.w	80032cc <HAL_ADC_Start_DMA>
 800176c:	4770      	bx	lr
 800176e:	bf00      	nop
 8001770:	20000d93 	.word	0x20000d93
 8001774:	20000b94 	.word	0x20000b94
 8001778:	20000d40 	.word	0x20000d40
 800177c:	20000428 	.word	0x20000428
 8001780:	20000ba0 	.word	0x20000ba0

08001784 <HAL_ADC_ConvCpltCallback>:
 8001784:	4b0b      	ldr	r3, [pc, #44]	; (80017b4 <HAL_ADC_ConvCpltCallback+0x30>)
 8001786:	490c      	ldr	r1, [pc, #48]	; (80017b8 <HAL_ADC_ConvCpltCallback+0x34>)
 8001788:	881b      	ldrh	r3, [r3, #0]
 800178a:	4a0c      	ldr	r2, [pc, #48]	; (80017bc <HAL_ADC_ConvCpltCallback+0x38>)
 800178c:	0118      	lsls	r0, r3, #4
 800178e:	eb01 1303 	add.w	r3, r1, r3, lsl #4
 8001792:	5a09      	ldrh	r1, [r1, r0]
 8001794:	8011      	strh	r1, [r2, #0]
 8001796:	8859      	ldrh	r1, [r3, #2]
 8001798:	8051      	strh	r1, [r2, #2]
 800179a:	8899      	ldrh	r1, [r3, #4]
 800179c:	8091      	strh	r1, [r2, #4]
 800179e:	88d9      	ldrh	r1, [r3, #6]
 80017a0:	80d1      	strh	r1, [r2, #6]
 80017a2:	8919      	ldrh	r1, [r3, #8]
 80017a4:	8111      	strh	r1, [r2, #8]
 80017a6:	8959      	ldrh	r1, [r3, #10]
 80017a8:	8151      	strh	r1, [r2, #10]
 80017aa:	8999      	ldrh	r1, [r3, #12]
 80017ac:	89db      	ldrh	r3, [r3, #14]
 80017ae:	8191      	strh	r1, [r2, #12]
 80017b0:	81d3      	strh	r3, [r2, #14]
 80017b2:	4770      	bx	lr
 80017b4:	20000d40 	.word	0x20000d40
 80017b8:	20000428 	.word	0x20000428
 80017bc:	20000658 	.word	0x20000658

080017c0 <HAL_UART_RxCpltCallback>:
 80017c0:	b510      	push	{r4, lr}
 80017c2:	4c0d      	ldr	r4, [pc, #52]	; (80017f8 <HAL_UART_RxCpltCallback+0x38>)
 80017c4:	4a0d      	ldr	r2, [pc, #52]	; (80017fc <HAL_UART_RxCpltCallback+0x3c>)
 80017c6:	88e3      	ldrh	r3, [r4, #6]
 80017c8:	b29b      	uxth	r3, r3
 80017ca:	5cd0      	ldrb	r0, [r2, r3]
 80017cc:	f7ff f966 	bl	8000a9c <ESP01_WriteRX>
 80017d0:	88e3      	ldrh	r3, [r4, #6]
 80017d2:	480b      	ldr	r0, [pc, #44]	; (8001800 <HAL_UART_RxCpltCallback+0x40>)
 80017d4:	3301      	adds	r3, #1
 80017d6:	b29b      	uxth	r3, r3
 80017d8:	80e3      	strh	r3, [r4, #6]
 80017da:	8a22      	ldrh	r2, [r4, #16]
 80017dc:	88e3      	ldrh	r3, [r4, #6]
 80017de:	b29b      	uxth	r3, r3
 80017e0:	4013      	ands	r3, r2
 80017e2:	80e3      	strh	r3, [r4, #6]
 80017e4:	6821      	ldr	r1, [r4, #0]
 80017e6:	88e3      	ldrh	r3, [r4, #6]
 80017e8:	2201      	movs	r2, #1
 80017ea:	e8bd 4010 	ldmia.w	sp!, {r4, lr}
 80017ee:	b29b      	uxth	r3, r3
 80017f0:	4419      	add	r1, r3
 80017f2:	f004 bd6e 	b.w	80062d2 <HAL_UART_Receive_IT>
 80017f6:	bf00      	nop
 80017f8:	20000d64 	.word	0x20000d64
 80017fc:	2000076c 	.word	0x2000076c
 8001800:	20000cf8 	.word	0x20000cf8

08001804 <DecodeHeader>:
 8001804:	e92d 4ff0 	stmdb	sp!, {r4, r5, r6, r7, r8, r9, sl, fp, lr}
 8001808:	2200      	movs	r2, #0
 800180a:	2401      	movs	r4, #1
 800180c:	f04f 0806 	mov.w	r8, #6
 8001810:	2505      	movs	r5, #5
 8001812:	2604      	movs	r6, #4
 8001814:	f04f 0c03 	mov.w	ip, #3
 8001818:	f04f 0e02 	mov.w	lr, #2
 800181c:	f890 9006 	ldrb.w	r9, [r0, #6]
 8001820:	8903      	ldrh	r3, [r0, #8]
 8001822:	4599      	cmp	r9, r3
 8001824:	d101      	bne.n	800182a <DecodeHeader+0x26>
 8001826:	e8bd 8ff0 	ldmia.w	sp!, {r4, r5, r6, r7, r8, r9, sl, fp, pc}
 800182a:	7907      	ldrb	r7, [r0, #4]
 800182c:	8a01      	ldrh	r1, [r0, #16]
 800182e:	2f06      	cmp	r7, #6
 8001830:	d856      	bhi.n	80018e0 <DecodeHeader+0xdc>
 8001832:	e8df f007 	tbb	[pc, r7]
 8001836:	1004      	.short	0x1004
 8001838:	2e241e17 	.word	0x2e241e17
 800183c:	40          	.byte	0x40
 800183d:	00          	.byte	0x00
 800183e:	6807      	ldr	r7, [r0, #0]
 8001840:	5cfb      	ldrb	r3, [r7, r3]
 8001842:	2b55      	cmp	r3, #85	; 0x55
 8001844:	d101      	bne.n	800184a <DecodeHeader+0x46>
 8001846:	7104      	strb	r4, [r0, #4]
 8001848:	7305      	strb	r5, [r0, #12]
 800184a:	8903      	ldrh	r3, [r0, #8]
 800184c:	400b      	ands	r3, r1
 800184e:	3301      	adds	r3, #1
 8001850:	4019      	ands	r1, r3
 8001852:	8101      	strh	r1, [r0, #8]
 8001854:	e7e4      	b.n	8001820 <DecodeHeader+0x1c>
 8001856:	6807      	ldr	r7, [r0, #0]
 8001858:	5cff      	ldrb	r7, [r7, r3]
 800185a:	2f4e      	cmp	r7, #78	; 0x4e
 800185c:	d127      	bne.n	80018ae <DecodeHeader+0xaa>
 800185e:	f880 e004 	strb.w	lr, [r0, #4]
 8001862:	e7f2      	b.n	800184a <DecodeHeader+0x46>
 8001864:	6807      	ldr	r7, [r0, #0]
 8001866:	5cff      	ldrb	r7, [r7, r3]
 8001868:	2f45      	cmp	r7, #69	; 0x45
 800186a:	d120      	bne.n	80018ae <DecodeHeader+0xaa>
 800186c:	f880 c004 	strb.w	ip, [r0, #4]
 8001870:	e7eb      	b.n	800184a <DecodeHeader+0x46>
 8001872:	6807      	ldr	r7, [r0, #0]
 8001874:	5cff      	ldrb	r7, [r7, r3]
 8001876:	2f52      	cmp	r7, #82	; 0x52
 8001878:	d119      	bne.n	80018ae <DecodeHeader+0xaa>
 800187a:	7106      	strb	r6, [r0, #4]
 800187c:	e7e5      	b.n	800184a <DecodeHeader+0x46>
 800187e:	6807      	ldr	r7, [r0, #0]
 8001880:	f817 a003 	ldrb.w	sl, [r7, r3]
 8001884:	7105      	strb	r5, [r0, #4]
 8001886:	f880 a00e 	strb.w	sl, [r0, #14]
 800188a:	5cfb      	ldrb	r3, [r7, r3]
 800188c:	3b02      	subs	r3, #2
 800188e:	73c3      	strb	r3, [r0, #15]
 8001890:	e7db      	b.n	800184a <DecodeHeader+0x46>
 8001892:	6807      	ldr	r7, [r0, #0]
 8001894:	5cff      	ldrb	r7, [r7, r3]
 8001896:	2f3a      	cmp	r7, #58	; 0x3a
 8001898:	d109      	bne.n	80018ae <DecodeHeader+0xaa>
 800189a:	3301      	adds	r3, #1
 800189c:	400b      	ands	r3, r1
 800189e:	8143      	strh	r3, [r0, #10]
 80018a0:	7b83      	ldrb	r3, [r0, #14]
 80018a2:	f880 8004 	strb.w	r8, [r0, #4]
 80018a6:	f083 0336 	eor.w	r3, r3, #54	; 0x36
 80018aa:	7343      	strb	r3, [r0, #13]
 80018ac:	e7cd      	b.n	800184a <DecodeHeader+0x46>
 80018ae:	3b01      	subs	r3, #1
 80018b0:	7102      	strb	r2, [r0, #4]
 80018b2:	8103      	strh	r3, [r0, #8]
 80018b4:	e7c9      	b.n	800184a <DecodeHeader+0x46>
 80018b6:	7b87      	ldrb	r7, [r0, #14]
 80018b8:	f890 a00d 	ldrb.w	sl, [r0, #13]
 80018bc:	3f01      	subs	r7, #1
 80018be:	b2ff      	uxtb	r7, r7
 80018c0:	f8d0 b000 	ldr.w	fp, [r0]
 80018c4:	7387      	strb	r7, [r0, #14]
 80018c6:	b127      	cbz	r7, 80018d2 <DecodeHeader+0xce>
 80018c8:	f81b 3003 	ldrb.w	r3, [fp, r3]
 80018cc:	ea8a 0303 	eor.w	r3, sl, r3
 80018d0:	e7eb      	b.n	80018aa <DecodeHeader+0xa6>
 80018d2:	7107      	strb	r7, [r0, #4]
 80018d4:	f81b 3003 	ldrb.w	r3, [fp, r3]
 80018d8:	4553      	cmp	r3, sl
 80018da:	d1b6      	bne.n	800184a <DecodeHeader+0x46>
 80018dc:	7484      	strb	r4, [r0, #18]
 80018de:	e7b4      	b.n	800184a <DecodeHeader+0x46>
 80018e0:	7102      	strb	r2, [r0, #4]
 80018e2:	e7b2      	b.n	800184a <DecodeHeader+0x46>

080018e4 <PutBufOnTx>:
 80018e4:	b530      	push	{r4, r5, lr}
 80018e6:	440a      	add	r2, r1
 80018e8:	4291      	cmp	r1, r2
 80018ea:	d100      	bne.n	80018ee <PutBufOnTx+0xa>
 80018ec:	bd30      	pop	{r4, r5, pc}
 80018ee:	88c3      	ldrh	r3, [r0, #6]
 80018f0:	6804      	ldr	r4, [r0, #0]
 80018f2:	1c5d      	adds	r5, r3, #1
 80018f4:	80c5      	strh	r5, [r0, #6]
 80018f6:	f811 5b01 	ldrb.w	r5, [r1], #1
 80018fa:	54e5      	strb	r5, [r4, r3]
 80018fc:	88c3      	ldrh	r3, [r0, #6]
 80018fe:	8944      	ldrh	r4, [r0, #10]
 8001900:	4023      	ands	r3, r4
 8001902:	80c3      	strh	r3, [r0, #6]
 8001904:	e7f0      	b.n	80018e8 <PutBufOnTx+0x4>

08001906 <PutByteOnTx>:
 8001906:	88c3      	ldrh	r3, [r0, #6]
 8001908:	6802      	ldr	r2, [r0, #0]
 800190a:	b510      	push	{r4, lr}
 800190c:	1c5c      	adds	r4, r3, #1
 800190e:	80c4      	strh	r4, [r0, #6]
 8001910:	54d1      	strb	r1, [r2, r3]
 8001912:	88c3      	ldrh	r3, [r0, #6]
 8001914:	8942      	ldrh	r2, [r0, #10]
 8001916:	4013      	ands	r3, r2
 8001918:	80c3      	strh	r3, [r0, #6]
 800191a:	bd10      	pop	{r4, pc}

0800191c <PutHeaderOnTx>:
 800191c:	88c3      	ldrh	r3, [r0, #6]
 800191e:	b530      	push	{r4, r5, lr}
 8001920:	1c5d      	adds	r5, r3, #1
 8001922:	80c5      	strh	r5, [r0, #6]
 8001924:	2555      	movs	r5, #85	; 0x55
 8001926:	6804      	ldr	r4, [r0, #0]
 8001928:	54e5      	strb	r5, [r4, r3]
 800192a:	88c3      	ldrh	r3, [r0, #6]
 800192c:	8944      	ldrh	r4, [r0, #10]
 800192e:	4023      	ands	r3, r4
 8001930:	1c5d      	adds	r5, r3, #1
 8001932:	80c5      	strh	r5, [r0, #6]
 8001934:	254e      	movs	r5, #78	; 0x4e
 8001936:	6804      	ldr	r4, [r0, #0]
 8001938:	54e5      	strb	r5, [r4, r3]
 800193a:	88c3      	ldrh	r3, [r0, #6]
 800193c:	8944      	ldrh	r4, [r0, #10]
 800193e:	4023      	ands	r3, r4
 8001940:	1c5d      	adds	r5, r3, #1
 8001942:	80c5      	strh	r5, [r0, #6]
 8001944:	2545      	movs	r5, #69	; 0x45
 8001946:	6804      	ldr	r4, [r0, #0]
 8001948:	54e5      	strb	r5, [r4, r3]
 800194a:	88c3      	ldrh	r3, [r0, #6]
 800194c:	8944      	ldrh	r4, [r0, #10]
 800194e:	4023      	ands	r3, r4
 8001950:	1c5d      	adds	r5, r3, #1
 8001952:	80c5      	strh	r5, [r0, #6]
 8001954:	2552      	movs	r5, #82	; 0x52
 8001956:	6804      	ldr	r4, [r0, #0]
 8001958:	54e5      	strb	r5, [r4, r3]
 800195a:	88c3      	ldrh	r3, [r0, #6]
 800195c:	8944      	ldrh	r4, [r0, #10]
 800195e:	8082      	strh	r2, [r0, #4]
 8001960:	4023      	ands	r3, r4
 8001962:	6804      	ldr	r4, [r0, #0]
 8001964:	1c5d      	adds	r5, r3, #1
 8001966:	3201      	adds	r2, #1
 8001968:	80c5      	strh	r5, [r0, #6]
 800196a:	54e2      	strb	r2, [r4, r3]
 800196c:	8942      	ldrh	r2, [r0, #10]
 800196e:	88c3      	ldrh	r3, [r0, #6]
 8001970:	4013      	ands	r3, r2
 8001972:	1c5c      	adds	r4, r3, #1
 8001974:	80c4      	strh	r4, [r0, #6]
 8001976:	243a      	movs	r4, #58	; 0x3a
 8001978:	6802      	ldr	r2, [r0, #0]
 800197a:	54d4      	strb	r4, [r2, r3]
 800197c:	8942      	ldrh	r2, [r0, #10]
 800197e:	88c3      	ldrh	r3, [r0, #6]
 8001980:	4013      	ands	r3, r2
 8001982:	6802      	ldr	r2, [r0, #0]
 8001984:	1c5c      	adds	r4, r3, #1
 8001986:	80c4      	strh	r4, [r0, #6]
 8001988:	54d1      	strb	r1, [r2, r3]
 800198a:	88c3      	ldrh	r3, [r0, #6]
 800198c:	8942      	ldrh	r2, [r0, #10]
 800198e:	4013      	ands	r3, r2
 8001990:	80c3      	strh	r3, [r0, #6]
 8001992:	bd30      	pop	{r4, r5, pc}

08001994 <CalcAndPutCksOnTx>:
 8001994:	88c2      	ldrh	r2, [r0, #6]
 8001996:	8881      	ldrh	r1, [r0, #4]
 8001998:	1f93      	subs	r3, r2, #6
 800199a:	1a5b      	subs	r3, r3, r1
 800199c:	2100      	movs	r1, #0
 800199e:	b570      	push	{r4, r5, r6, lr}
 80019a0:	7a85      	ldrb	r5, [r0, #10]
 80019a2:	6804      	ldr	r4, [r0, #0]
 80019a4:	402b      	ands	r3, r5
 80019a6:	429a      	cmp	r2, r3
 80019a8:	d107      	bne.n	80019ba <CalcAndPutCksOnTx+0x26>
 80019aa:	1c53      	adds	r3, r2, #1
 80019ac:	80c3      	strh	r3, [r0, #6]
 80019ae:	54a1      	strb	r1, [r4, r2]
 80019b0:	88c3      	ldrh	r3, [r0, #6]
 80019b2:	8942      	ldrh	r2, [r0, #10]
 80019b4:	4013      	ands	r3, r2
 80019b6:	80c3      	strh	r3, [r0, #6]
 80019b8:	bd70      	pop	{r4, r5, r6, pc}
 80019ba:	1c5e      	adds	r6, r3, #1
 80019bc:	5ce3      	ldrb	r3, [r4, r3]
 80019be:	4059      	eors	r1, r3
 80019c0:	ea06 0305 	and.w	r3, r6, r5
 80019c4:	e7ef      	b.n	80019a6 <CalcAndPutCksOnTx+0x12>

080019c6 <PutStrOnTx>:
 80019c6:	2300      	movs	r3, #0
 80019c8:	b570      	push	{r4, r5, r6, lr}
 80019ca:	b2da      	uxtb	r2, r3
 80019cc:	5c8c      	ldrb	r4, [r1, r2]
 80019ce:	3301      	adds	r3, #1
 80019d0:	b904      	cbnz	r4, 80019d4 <PutStrOnTx+0xe>
 80019d2:	bd70      	pop	{r4, r5, r6, pc}
 80019d4:	88c4      	ldrh	r4, [r0, #6]
 80019d6:	6805      	ldr	r5, [r0, #0]
 80019d8:	1c66      	adds	r6, r4, #1
 80019da:	80c6      	strh	r6, [r0, #6]
 80019dc:	5c8a      	ldrb	r2, [r1, r2]
 80019de:	552a      	strb	r2, [r5, r4]
 80019e0:	88c2      	ldrh	r2, [r0, #6]
 80019e2:	8944      	ldrh	r4, [r0, #10]
 80019e4:	4022      	ands	r2, r4
 80019e6:	80c2      	strh	r2, [r0, #6]
 80019e8:	e7ef      	b.n	80019ca <PutStrOnTx+0x4>
	...

080019ec <DecodeCMD>:
 80019ec:	b538      	push	{r3, r4, r5, lr}
 80019ee:	2300      	movs	r3, #0
 80019f0:	6802      	ldr	r2, [r0, #0]
 80019f2:	7483      	strb	r3, [r0, #18]
 80019f4:	8943      	ldrh	r3, [r0, #10]
 80019f6:	460d      	mov	r5, r1
 80019f8:	5cd1      	ldrb	r1, [r2, r3]
 80019fa:	29a6      	cmp	r1, #166	; 0xa6
 80019fc:	d80c      	bhi.n	8001a18 <DecodeCMD+0x2c>
 80019fe:	299f      	cmp	r1, #159	; 0x9f
 8001a00:	d90e      	bls.n	8001a20 <DecodeCMD+0x34>
 8001a02:	39a1      	subs	r1, #161	; 0xa1
 8001a04:	2905      	cmp	r1, #5
 8001a06:	d828      	bhi.n	8001a5a <DecodeCMD+0x6e>
 8001a08:	e8df f011 	tbh	[pc, r1, lsl #1]
 8001a0c:	00960031 	.word	0x00960031
 8001a10:	0168010f 	.word	0x0168010f
 8001a14:	01760171 	.word	0x01760171
 8001a18:	29f0      	cmp	r1, #240	; 0xf0
 8001a1a:	d007      	beq.n	8001a2c <DecodeCMD+0x40>
 8001a1c:	29f1      	cmp	r1, #241	; 0xf1
 8001a1e:	d011      	beq.n	8001a44 <DecodeCMD+0x58>
 8001a20:	2202      	movs	r2, #2
 8001a22:	4628      	mov	r0, r5
 8001a24:	f7ff ff7a 	bl	800191c <PutHeaderOnTx>
 8001a28:	21ff      	movs	r1, #255	; 0xff
 8001a2a:	e0fb      	b.n	8001c24 <DecodeCMD+0x238>
 8001a2c:	2202      	movs	r2, #2
 8001a2e:	4628      	mov	r0, r5
 8001a30:	f7ff ff74 	bl	800191c <PutHeaderOnTx>
 8001a34:	210d      	movs	r1, #13
 8001a36:	f7ff ff66 	bl	8001906 <PutByteOnTx>
 8001a3a:	f7ff ffab 	bl	8001994 <CalcAndPutCksOnTx>
 8001a3e:	2303      	movs	r3, #3
 8001a40:	80ab      	strh	r3, [r5, #4]
 8001a42:	bd38      	pop	{r3, r4, r5, pc}
 8001a44:	220e      	movs	r2, #14
 8001a46:	4628      	mov	r0, r5
 8001a48:	f7ff ff68 	bl	800191c <PutHeaderOnTx>
 8001a4c:	49ac      	ldr	r1, [pc, #688]	; (8001d00 <DecodeCMD+0x314>)
 8001a4e:	f7ff ffba 	bl	80019c6 <PutStrOnTx>
 8001a52:	e8bd 4038 	ldmia.w	sp!, {r3, r4, r5, lr}
 8001a56:	f7ff bf9d 	b.w	8001994 <CalcAndPutCksOnTx>
 8001a5a:	2211      	movs	r2, #17
 8001a5c:	21a0      	movs	r1, #160	; 0xa0
 8001a5e:	4628      	mov	r0, r5
 8001a60:	f7ff ff5c 	bl	800191c <PutHeaderOnTx>
 8001a64:	2210      	movs	r2, #16
 8001a66:	49a7      	ldr	r1, [pc, #668]	; (8001d04 <DecodeCMD+0x318>)
 8001a68:	f7ff ff3c 	bl	80018e4 <PutBufOnTx>
 8001a6c:	e7f1      	b.n	8001a52 <DecodeCMD+0x66>
 8001a6e:	2219      	movs	r2, #25
 8001a70:	21a1      	movs	r1, #161	; 0xa1
 8001a72:	4628      	mov	r0, r5
 8001a74:	f7ff ff52 	bl	800191c <PutHeaderOnTx>
 8001a78:	f7ff fd2a 	bl	80014d0 <MPU6050_Read_Accel>
 8001a7c:	4ba2      	ldr	r3, [pc, #648]	; (8001d08 <DecodeCMD+0x31c>)
 8001a7e:	4ca3      	ldr	r4, [pc, #652]	; (8001d0c <DecodeCMD+0x320>)
 8001a80:	6819      	ldr	r1, [r3, #0]
 8001a82:	4628      	mov	r0, r5
 8001a84:	6021      	str	r1, [r4, #0]
 8001a86:	b2c9      	uxtb	r1, r1
 8001a88:	f7ff ff3d 	bl	8001906 <PutByteOnTx>
 8001a8c:	7861      	ldrb	r1, [r4, #1]
 8001a8e:	f7ff ff3a 	bl	8001906 <PutByteOnTx>
 8001a92:	78a1      	ldrb	r1, [r4, #2]
 8001a94:	f7ff ff37 	bl	8001906 <PutByteOnTx>
 8001a98:	78e1      	ldrb	r1, [r4, #3]
 8001a9a:	f7ff ff34 	bl	8001906 <PutByteOnTx>
 8001a9e:	4b9c      	ldr	r3, [pc, #624]	; (8001d10 <DecodeCMD+0x324>)
 8001aa0:	6819      	ldr	r1, [r3, #0]
 8001aa2:	6021      	str	r1, [r4, #0]
 8001aa4:	b2c9      	uxtb	r1, r1
 8001aa6:	f7ff ff2e 	bl	8001906 <PutByteOnTx>
 8001aaa:	7861      	ldrb	r1, [r4, #1]
 8001aac:	f7ff ff2b 	bl	8001906 <PutByteOnTx>
 8001ab0:	78a1      	ldrb	r1, [r4, #2]
 8001ab2:	f7ff ff28 	bl	8001906 <PutByteOnTx>
 8001ab6:	78e1      	ldrb	r1, [r4, #3]
 8001ab8:	f7ff ff25 	bl	8001906 <PutByteOnTx>
 8001abc:	4b95      	ldr	r3, [pc, #596]	; (8001d14 <DecodeCMD+0x328>)
 8001abe:	6819      	ldr	r1, [r3, #0]
 8001ac0:	6021      	str	r1, [r4, #0]
 8001ac2:	b2c9      	uxtb	r1, r1
 8001ac4:	f7ff ff1f 	bl	8001906 <PutByteOnTx>
 8001ac8:	7861      	ldrb	r1, [r4, #1]
 8001aca:	f7ff ff1c 	bl	8001906 <PutByteOnTx>
 8001ace:	78a1      	ldrb	r1, [r4, #2]
 8001ad0:	f7ff ff19 	bl	8001906 <PutByteOnTx>
 8001ad4:	78e1      	ldrb	r1, [r4, #3]
 8001ad6:	f7ff ff16 	bl	8001906 <PutByteOnTx>
 8001ada:	f7ff fd91 	bl	8001600 <MPU6050_Read_Gyro>
 8001ade:	4b8e      	ldr	r3, [pc, #568]	; (8001d18 <DecodeCMD+0x32c>)
 8001ae0:	4628      	mov	r0, r5
 8001ae2:	6819      	ldr	r1, [r3, #0]
 8001ae4:	6021      	str	r1, [r4, #0]
 8001ae6:	b2c9      	uxtb	r1, r1
 8001ae8:	f7ff ff0d 	bl	8001906 <PutByteOnTx>
 8001aec:	7861      	ldrb	r1, [r4, #1]
 8001aee:	f7ff ff0a 	bl	8001906 <PutByteOnTx>
 8001af2:	78a1      	ldrb	r1, [r4, #2]
 8001af4:	f7ff ff07 	bl	8001906 <PutByteOnTx>
 8001af8:	78e1      	ldrb	r1, [r4, #3]
 8001afa:	f7ff ff04 	bl	8001906 <PutByteOnTx>
 8001afe:	4b87      	ldr	r3, [pc, #540]	; (8001d1c <DecodeCMD+0x330>)
 8001b00:	6819      	ldr	r1, [r3, #0]
 8001b02:	6021      	str	r1, [r4, #0]
 8001b04:	b2c9      	uxtb	r1, r1
 8001b06:	f7ff fefe 	bl	8001906 <PutByteOnTx>
 8001b0a:	7861      	ldrb	r1, [r4, #1]
 8001b0c:	f7ff fefb 	bl	8001906 <PutByteOnTx>
 8001b10:	78a1      	ldrb	r1, [r4, #2]
 8001b12:	f7ff fef8 	bl	8001906 <PutByteOnTx>
 8001b16:	78e1      	ldrb	r1, [r4, #3]
 8001b18:	f7ff fef5 	bl	8001906 <PutByteOnTx>
 8001b1c:	4b80      	ldr	r3, [pc, #512]	; (8001d20 <DecodeCMD+0x334>)
 8001b1e:	6819      	ldr	r1, [r3, #0]
 8001b20:	6021      	str	r1, [r4, #0]
 8001b22:	b2c9      	uxtb	r1, r1
 8001b24:	f7ff feef 	bl	8001906 <PutByteOnTx>
 8001b28:	7861      	ldrb	r1, [r4, #1]
 8001b2a:	f7ff feec 	bl	8001906 <PutByteOnTx>
 8001b2e:	78a1      	ldrb	r1, [r4, #2]
 8001b30:	f7ff fee9 	bl	8001906 <PutByteOnTx>
 8001b34:	78e1      	ldrb	r1, [r4, #3]
 8001b36:	e075      	b.n	8001c24 <DecodeCMD+0x238>
 8001b38:	2220      	movs	r2, #32
 8001b3a:	4628      	mov	r0, r5
 8001b3c:	21a2      	movs	r1, #162	; 0xa2
 8001b3e:	f7ff feed 	bl	800191c <PutHeaderOnTx>
 8001b42:	4b78      	ldr	r3, [pc, #480]	; (8001d24 <DecodeCMD+0x338>)
 8001b44:	4c71      	ldr	r4, [pc, #452]	; (8001d0c <DecodeCMD+0x320>)
 8001b46:	6819      	ldr	r1, [r3, #0]
 8001b48:	6021      	str	r1, [r4, #0]
 8001b4a:	b2c9      	uxtb	r1, r1
 8001b4c:	f7ff fedb 	bl	8001906 <PutByteOnTx>
 8001b50:	7861      	ldrb	r1, [r4, #1]
 8001b52:	f7ff fed8 	bl	8001906 <PutByteOnTx>
 8001b56:	78a1      	ldrb	r1, [r4, #2]
 8001b58:	f7ff fed5 	bl	8001906 <PutByteOnTx>
 8001b5c:	78e1      	ldrb	r1, [r4, #3]
 8001b5e:	f7ff fed2 	bl	8001906 <PutByteOnTx>
 8001b62:	4b71      	ldr	r3, [pc, #452]	; (8001d28 <DecodeCMD+0x33c>)
 8001b64:	6819      	ldr	r1, [r3, #0]
 8001b66:	6021      	str	r1, [r4, #0]
 8001b68:	b2c9      	uxtb	r1, r1
 8001b6a:	f7ff fecc 	bl	8001906 <PutByteOnTx>
 8001b6e:	7861      	ldrb	r1, [r4, #1]
 8001b70:	f7ff fec9 	bl	8001906 <PutByteOnTx>
 8001b74:	78a1      	ldrb	r1, [r4, #2]
 8001b76:	f7ff fec6 	bl	8001906 <PutByteOnTx>
 8001b7a:	78e1      	ldrb	r1, [r4, #3]
 8001b7c:	f7ff fec3 	bl	8001906 <PutByteOnTx>
 8001b80:	4b6a      	ldr	r3, [pc, #424]	; (8001d2c <DecodeCMD+0x340>)
 8001b82:	6819      	ldr	r1, [r3, #0]
 8001b84:	6021      	str	r1, [r4, #0]
 8001b86:	b2c9      	uxtb	r1, r1
 8001b88:	f7ff febd 	bl	8001906 <PutByteOnTx>
 8001b8c:	7861      	ldrb	r1, [r4, #1]
 8001b8e:	f7ff feba 	bl	8001906 <PutByteOnTx>
 8001b92:	78a1      	ldrb	r1, [r4, #2]
 8001b94:	f7ff feb7 	bl	8001906 <PutByteOnTx>
 8001b98:	78e1      	ldrb	r1, [r4, #3]
 8001b9a:	f7ff feb4 	bl	8001906 <PutByteOnTx>
 8001b9e:	4b64      	ldr	r3, [pc, #400]	; (8001d30 <DecodeCMD+0x344>)
 8001ba0:	f9b3 1000 	ldrsh.w	r1, [r3]
 8001ba4:	8021      	strh	r1, [r4, #0]
 8001ba6:	b2c9      	uxtb	r1, r1
 8001ba8:	f7ff fead 	bl	8001906 <PutByteOnTx>
 8001bac:	7861      	ldrb	r1, [r4, #1]
 8001bae:	f7ff feaa 	bl	8001906 <PutByteOnTx>
 8001bb2:	4b60      	ldr	r3, [pc, #384]	; (8001d34 <DecodeCMD+0x348>)
 8001bb4:	6819      	ldr	r1, [r3, #0]
 8001bb6:	6021      	str	r1, [r4, #0]
 8001bb8:	b2c9      	uxtb	r1, r1
 8001bba:	f7ff fea4 	bl	8001906 <PutByteOnTx>
 8001bbe:	7861      	ldrb	r1, [r4, #1]
 8001bc0:	f7ff fea1 	bl	8001906 <PutByteOnTx>
 8001bc4:	78a1      	ldrb	r1, [r4, #2]
 8001bc6:	f7ff fe9e 	bl	8001906 <PutByteOnTx>
 8001bca:	78e1      	ldrb	r1, [r4, #3]
 8001bcc:	f7ff fe9b 	bl	8001906 <PutByteOnTx>
 8001bd0:	4b59      	ldr	r3, [pc, #356]	; (8001d38 <DecodeCMD+0x34c>)
 8001bd2:	6819      	ldr	r1, [r3, #0]
 8001bd4:	6021      	str	r1, [r4, #0]
 8001bd6:	b2c9      	uxtb	r1, r1
 8001bd8:	f7ff fe95 	bl	8001906 <PutByteOnTx>
 8001bdc:	7861      	ldrb	r1, [r4, #1]
 8001bde:	f7ff fe92 	bl	8001906 <PutByteOnTx>
 8001be2:	78a1      	ldrb	r1, [r4, #2]
 8001be4:	f7ff fe8f 	bl	8001906 <PutByteOnTx>
 8001be8:	78e1      	ldrb	r1, [r4, #3]
 8001bea:	f7ff fe8c 	bl	8001906 <PutByteOnTx>
 8001bee:	4b53      	ldr	r3, [pc, #332]	; (8001d3c <DecodeCMD+0x350>)
 8001bf0:	6819      	ldr	r1, [r3, #0]
 8001bf2:	6021      	str	r1, [r4, #0]
 8001bf4:	b2c9      	uxtb	r1, r1
 8001bf6:	f7ff fe86 	bl	8001906 <PutByteOnTx>
 8001bfa:	7861      	ldrb	r1, [r4, #1]
 8001bfc:	f7ff fe83 	bl	8001906 <PutByteOnTx>
 8001c00:	78a1      	ldrb	r1, [r4, #2]
 8001c02:	f7ff fe80 	bl	8001906 <PutByteOnTx>
 8001c06:	78e1      	ldrb	r1, [r4, #3]
 8001c08:	f7ff fe7d 	bl	8001906 <PutByteOnTx>
 8001c0c:	4b4c      	ldr	r3, [pc, #304]	; (8001d40 <DecodeCMD+0x354>)
 8001c0e:	f9b3 1000 	ldrsh.w	r1, [r3]
 8001c12:	8021      	strh	r1, [r4, #0]
 8001c14:	b2c9      	uxtb	r1, r1
 8001c16:	f7ff fe76 	bl	8001906 <PutByteOnTx>
 8001c1a:	7861      	ldrb	r1, [r4, #1]
 8001c1c:	f7ff fe73 	bl	8001906 <PutByteOnTx>
 8001c20:	4b48      	ldr	r3, [pc, #288]	; (8001d44 <DecodeCMD+0x358>)
 8001c22:	7819      	ldrb	r1, [r3, #0]
 8001c24:	f7ff fe6f 	bl	8001906 <PutByteOnTx>
 8001c28:	e713      	b.n	8001a52 <DecodeCMD+0x66>
 8001c2a:	441a      	add	r2, r3
 8001c2c:	7851      	ldrb	r1, [r2, #1]
 8001c2e:	4b37      	ldr	r3, [pc, #220]	; (8001d0c <DecodeCMD+0x320>)
 8001c30:	7019      	strb	r1, [r3, #0]
 8001c32:	7891      	ldrb	r1, [r2, #2]
 8001c34:	7059      	strb	r1, [r3, #1]
 8001c36:	78d1      	ldrb	r1, [r2, #3]
 8001c38:	7099      	strb	r1, [r3, #2]
 8001c3a:	7911      	ldrb	r1, [r2, #4]
 8001c3c:	70d9      	strb	r1, [r3, #3]
 8001c3e:	6818      	ldr	r0, [r3, #0]
 8001c40:	4938      	ldr	r1, [pc, #224]	; (8001d24 <DecodeCMD+0x338>)
 8001c42:	6008      	str	r0, [r1, #0]
 8001c44:	7951      	ldrb	r1, [r2, #5]
 8001c46:	7019      	strb	r1, [r3, #0]
 8001c48:	7991      	ldrb	r1, [r2, #6]
 8001c4a:	7059      	strb	r1, [r3, #1]
 8001c4c:	79d1      	ldrb	r1, [r2, #7]
 8001c4e:	7099      	strb	r1, [r3, #2]
 8001c50:	7a11      	ldrb	r1, [r2, #8]
 8001c52:	70d9      	strb	r1, [r3, #3]
 8001c54:	6818      	ldr	r0, [r3, #0]
 8001c56:	4934      	ldr	r1, [pc, #208]	; (8001d28 <DecodeCMD+0x33c>)
 8001c58:	6008      	str	r0, [r1, #0]
 8001c5a:	7a51      	ldrb	r1, [r2, #9]
 8001c5c:	7019      	strb	r1, [r3, #0]
 8001c5e:	7a91      	ldrb	r1, [r2, #10]
 8001c60:	7059      	strb	r1, [r3, #1]
 8001c62:	7ad1      	ldrb	r1, [r2, #11]
 8001c64:	7099      	strb	r1, [r3, #2]
 8001c66:	7b11      	ldrb	r1, [r2, #12]
 8001c68:	70d9      	strb	r1, [r3, #3]
 8001c6a:	6818      	ldr	r0, [r3, #0]
 8001c6c:	492f      	ldr	r1, [pc, #188]	; (8001d2c <DecodeCMD+0x340>)
 8001c6e:	6008      	str	r0, [r1, #0]
 8001c70:	7b51      	ldrb	r1, [r2, #13]
 8001c72:	7019      	strb	r1, [r3, #0]
 8001c74:	7b91      	ldrb	r1, [r2, #14]
 8001c76:	7059      	strb	r1, [r3, #1]
 8001c78:	8818      	ldrh	r0, [r3, #0]
 8001c7a:	492d      	ldr	r1, [pc, #180]	; (8001d30 <DecodeCMD+0x344>)
 8001c7c:	8008      	strh	r0, [r1, #0]
 8001c7e:	7bd1      	ldrb	r1, [r2, #15]
 8001c80:	7019      	strb	r1, [r3, #0]
 8001c82:	7c11      	ldrb	r1, [r2, #16]
 8001c84:	7059      	strb	r1, [r3, #1]
 8001c86:	7c51      	ldrb	r1, [r2, #17]
 8001c88:	7099      	strb	r1, [r3, #2]
 8001c8a:	7c91      	ldrb	r1, [r2, #18]
 8001c8c:	70d9      	strb	r1, [r3, #3]
 8001c8e:	6818      	ldr	r0, [r3, #0]
 8001c90:	4928      	ldr	r1, [pc, #160]	; (8001d34 <DecodeCMD+0x348>)
 8001c92:	6008      	str	r0, [r1, #0]
 8001c94:	7cd1      	ldrb	r1, [r2, #19]
 8001c96:	7019      	strb	r1, [r3, #0]
 8001c98:	7d11      	ldrb	r1, [r2, #20]
 8001c9a:	7059      	strb	r1, [r3, #1]
 8001c9c:	7d51      	ldrb	r1, [r2, #21]
 8001c9e:	7099      	strb	r1, [r3, #2]
 8001ca0:	7d91      	ldrb	r1, [r2, #22]
 8001ca2:	70d9      	strb	r1, [r3, #3]
 8001ca4:	6818      	ldr	r0, [r3, #0]
 8001ca6:	4924      	ldr	r1, [pc, #144]	; (8001d38 <DecodeCMD+0x34c>)
 8001ca8:	6008      	str	r0, [r1, #0]
 8001caa:	7dd1      	ldrb	r1, [r2, #23]
 8001cac:	7019      	strb	r1, [r3, #0]
 8001cae:	7e11      	ldrb	r1, [r2, #24]
 8001cb0:	7059      	strb	r1, [r3, #1]
 8001cb2:	7e51      	ldrb	r1, [r2, #25]
 8001cb4:	7099      	strb	r1, [r3, #2]
 8001cb6:	7e91      	ldrb	r1, [r2, #26]
 8001cb8:	70d9      	strb	r1, [r3, #3]
 8001cba:	6818      	ldr	r0, [r3, #0]
 8001cbc:	491f      	ldr	r1, [pc, #124]	; (8001d3c <DecodeCMD+0x350>)
 8001cbe:	6008      	str	r0, [r1, #0]
 8001cc0:	7ed1      	ldrb	r1, [r2, #27]
 8001cc2:	4628      	mov	r0, r5
 8001cc4:	7019      	strb	r1, [r3, #0]
 8001cc6:	7f12      	ldrb	r2, [r2, #28]
 8001cc8:	21a3      	movs	r1, #163	; 0xa3
 8001cca:	705a      	strb	r2, [r3, #1]
 8001ccc:	881a      	ldrh	r2, [r3, #0]
 8001cce:	4b1c      	ldr	r3, [pc, #112]	; (8001d40 <DecodeCMD+0x354>)
 8001cd0:	801a      	strh	r2, [r3, #0]
 8001cd2:	2202      	movs	r2, #2
 8001cd4:	f7ff fe22 	bl	800191c <PutHeaderOnTx>
 8001cd8:	210d      	movs	r1, #13
 8001cda:	e7a3      	b.n	8001c24 <DecodeCMD+0x238>
 8001cdc:	2205      	movs	r2, #5
 8001cde:	21a4      	movs	r1, #164	; 0xa4
 8001ce0:	4628      	mov	r0, r5
 8001ce2:	f7ff fe1b 	bl	800191c <PutHeaderOnTx>
 8001ce6:	4b18      	ldr	r3, [pc, #96]	; (8001d48 <DecodeCMD+0x35c>)
 8001ce8:	4c08      	ldr	r4, [pc, #32]	; (8001d0c <DecodeCMD+0x320>)
 8001cea:	6819      	ldr	r1, [r3, #0]
 8001cec:	e718      	b.n	8001b20 <DecodeCMD+0x134>
 8001cee:	441a      	add	r2, r3
 8001cf0:	7852      	ldrb	r2, [r2, #1]
 8001cf2:	4b14      	ldr	r3, [pc, #80]	; (8001d44 <DecodeCMD+0x358>)
 8001cf4:	701a      	strb	r2, [r3, #0]
 8001cf6:	e6a4      	b.n	8001a42 <DecodeCMD+0x56>
 8001cf8:	2205      	movs	r2, #5
 8001cfa:	21a6      	movs	r1, #166	; 0xa6
 8001cfc:	e7f0      	b.n	8001ce0 <DecodeCMD+0x2f4>
 8001cfe:	bf00      	nop
 8001d00:	08007fb3 	.word	0x08007fb3
 8001d04:	20000658 	.word	0x20000658
 8001d08:	20000408 	.word	0x20000408
 8001d0c:	20000dc8 	.word	0x20000dc8
 8001d10:	2000040c 	.word	0x2000040c
 8001d14:	20000410 	.word	0x20000410
 8001d18:	20000414 	.word	0x20000414
 8001d1c:	20000418 	.word	0x20000418
 8001d20:	20000424 	.word	0x20000424
 8001d24:	20000008 	.word	0x20000008
 8001d28:	2000064c 	.word	0x2000064c
 8001d2c:	20000644 	.word	0x20000644
 8001d30:	2000001a 	.word	0x2000001a
 8001d34:	20000004 	.word	0x20000004
 8001d38:	20000648 	.word	0x20000648
 8001d3c:	20000640 	.word	0x20000640
 8001d40:	20000018 	.word	0x20000018
 8001d44:	20000d60 	.word	0x20000d60
 8001d48:	20000b84 	.word	0x20000b84

08001d4c <GetESP01StateChange>:
 8001d4c:	2803      	cmp	r0, #3
 8001d4e:	b508      	push	{r3, lr}
 8001d50:	d102      	bne.n	8001d58 <GetESP01StateChange+0xc>
 8001d52:	490e      	ldr	r1, [pc, #56]	; (8001d8c <GetESP01StateChange+0x40>)
 8001d54:	480e      	ldr	r0, [pc, #56]	; (8001d90 <GetESP01StateChange+0x44>)
 8001d56:	e010      	b.n	8001d7a <GetESP01StateChange+0x2e>
 8001d58:	2804      	cmp	r0, #4
 8001d5a:	d003      	beq.n	8001d64 <GetESP01StateChange+0x18>
 8001d5c:	2807      	cmp	r0, #7
 8001d5e:	d110      	bne.n	8001d82 <GetESP01StateChange+0x36>
 8001d60:	490c      	ldr	r1, [pc, #48]	; (8001d94 <GetESP01StateChange+0x48>)
 8001d62:	e7f7      	b.n	8001d54 <GetESP01StateChange+0x8>
 8001d64:	490c      	ldr	r1, [pc, #48]	; (8001d98 <GetESP01StateChange+0x4c>)
 8001d66:	480a      	ldr	r0, [pc, #40]	; (8001d90 <GetESP01StateChange+0x44>)
 8001d68:	f7ff fe2d 	bl	80019c6 <PutStrOnTx>
 8001d6c:	f7fe fe86 	bl	8000a7c <ESP01_GetLocalIP>
 8001d70:	4601      	mov	r1, r0
 8001d72:	4807      	ldr	r0, [pc, #28]	; (8001d90 <GetESP01StateChange+0x44>)
 8001d74:	f7ff fe27 	bl	80019c6 <PutStrOnTx>
 8001d78:	4908      	ldr	r1, [pc, #32]	; (8001d9c <GetESP01StateChange+0x50>)
 8001d7a:	e8bd 4008 	ldmia.w	sp!, {r3, lr}
 8001d7e:	f7ff be22 	b.w	80019c6 <PutStrOnTx>
 8001d82:	280a      	cmp	r0, #10
 8001d84:	d000      	beq.n	8001d88 <GetESP01StateChange+0x3c>
 8001d86:	bd08      	pop	{r3, pc}
 8001d88:	4905      	ldr	r1, [pc, #20]	; (8001da0 <GetESP01StateChange+0x54>)
 8001d8a:	e7e3      	b.n	8001d54 <GetESP01StateChange+0x8>
 8001d8c:	08007f74 	.word	0x08007f74
 8001d90:	20000db0 	.word	0x20000db0
 8001d94:	08007f93 	.word	0x08007f93
 8001d98:	08007f89 	.word	0x08007f89
 8001d9c:	08007d2e 	.word	0x08007d2e
 8001da0:	08007fa4 	.word	0x08007fa4

08001da4 <TransmitUSB>:
 8001da4:	e92d 41f0 	stmdb	sp!, {r4, r5, r6, r7, r8, lr}
 8001da8:	4e1f      	ldr	r6, [pc, #124]	; (8001e28 <TransmitUSB+0x84>)
 8001daa:	4c20      	ldr	r4, [pc, #128]	; (8001e2c <TransmitUSB+0x88>)
 8001dac:	7833      	ldrb	r3, [r6, #0]
 8001dae:	88a1      	ldrh	r1, [r4, #4]
 8001db0:	f013 0f01 	tst.w	r3, #1
 8001db4:	bf09      	itett	eq
 8001db6:	8925      	ldrheq	r5, [r4, #8]
 8001db8:	2500      	movne	r5, #0
 8001dba:	43ed      	mvneq	r5, r5
 8001dbc:	f043 0301 	orreq.w	r3, r3, #1
 8001dc0:	4f1b      	ldr	r7, [pc, #108]	; (8001e30 <TransmitUSB+0x8c>)
 8001dc2:	bf08      	it	eq
 8001dc4:	b2ed      	uxtbeq	r5, r5
 8001dc6:	f101 0206 	add.w	r2, r1, #6
 8001dca:	bf08      	it	eq
 8001dcc:	7033      	strbeq	r3, [r6, #0]
 8001dce:	42aa      	cmp	r2, r5
 8001dd0:	783b      	ldrb	r3, [r7, #0]
 8001dd2:	da11      	bge.n	8001df8 <TransmitUSB+0x54>
 8001dd4:	bb13      	cbnz	r3, 8001e1c <TransmitUSB+0x78>
 8001dd6:	3107      	adds	r1, #7
 8001dd8:	8923      	ldrh	r3, [r4, #8]
 8001dda:	6820      	ldr	r0, [r4, #0]
 8001ddc:	b289      	uxth	r1, r1
 8001dde:	4418      	add	r0, r3
 8001de0:	f005 fd0c 	bl	80077fc <CDC_Transmit_FS>
 8001de4:	b930      	cbnz	r0, 8001df4 <TransmitUSB+0x50>
 8001de6:	88e3      	ldrh	r3, [r4, #6]
 8001de8:	7038      	strb	r0, [r7, #0]
 8001dea:	8123      	strh	r3, [r4, #8]
 8001dec:	7833      	ldrb	r3, [r6, #0]
 8001dee:	f360 0300 	bfi	r3, r0, #0, #1
 8001df2:	7033      	strb	r3, [r6, #0]
 8001df4:	e8bd 81f0 	ldmia.w	sp!, {r4, r5, r6, r7, r8, pc}
 8001df8:	b983      	cbnz	r3, 8001e1c <TransmitUSB+0x78>
 8001dfa:	8923      	ldrh	r3, [r4, #8]
 8001dfc:	6820      	ldr	r0, [r4, #0]
 8001dfe:	fa1f f885 	uxth.w	r8, r5
 8001e02:	4641      	mov	r1, r8
 8001e04:	4418      	add	r0, r3
 8001e06:	f005 fcf9 	bl	80077fc <CDC_Transmit_FS>
 8001e0a:	b938      	cbnz	r0, 8001e1c <TransmitUSB+0x78>
 8001e0c:	8923      	ldrh	r3, [r4, #8]
 8001e0e:	4498      	add	r8, r3
 8001e10:	88a3      	ldrh	r3, [r4, #4]
 8001e12:	f8a4 8008 	strh.w	r8, [r4, #8]
 8001e16:	3307      	adds	r3, #7
 8001e18:	1b5b      	subs	r3, r3, r5
 8001e1a:	703b      	strb	r3, [r7, #0]
 8001e1c:	7839      	ldrb	r1, [r7, #0]
 8001e1e:	2900      	cmp	r1, #0
 8001e20:	d0e8      	beq.n	8001df4 <TransmitUSB+0x50>
 8001e22:	8923      	ldrh	r3, [r4, #8]
 8001e24:	6820      	ldr	r0, [r4, #0]
 8001e26:	e7da      	b.n	8001dde <TransmitUSB+0x3a>
 8001e28:	20000b94 	.word	0x20000b94
 8001e2c:	20000db0 	.word	0x20000db0
 8001e30:	20000b6c 	.word	0x20000b6c

08001e34 <TransmitUSART>:
 8001e34:	b510      	push	{r4, lr}
 8001e36:	4c07      	ldr	r4, [pc, #28]	; (8001e54 <TransmitUSART+0x20>)
 8001e38:	f44f 7380 	mov.w	r3, #256	; 0x100
 8001e3c:	8921      	ldrh	r1, [r4, #8]
 8001e3e:	88e2      	ldrh	r2, [r4, #6]
 8001e40:	6820      	ldr	r0, [r4, #0]
 8001e42:	1a52      	subs	r2, r2, r1
 8001e44:	b2d2      	uxtb	r2, r2
 8001e46:	f7fe fe41 	bl	8000acc <ESP01_Send>
 8001e4a:	2809      	cmp	r0, #9
 8001e4c:	bf04      	itt	eq
 8001e4e:	88e3      	ldrheq	r3, [r4, #6]
 8001e50:	8123      	strheq	r3, [r4, #8]
 8001e52:	bd10      	pop	{r4, pc}
 8001e54:	20000da4 	.word	0x20000da4

08001e58 <hearbeatTask>:
 8001e58:	b570      	push	{r4, r5, r6, lr}
 8001e5a:	2501      	movs	r5, #1
 8001e5c:	4c1c      	ldr	r4, [pc, #112]	; (8001ed0 <hearbeatTask+0x78>)
 8001e5e:	4a1d      	ldr	r2, [pc, #116]	; (8001ed4 <hearbeatTask+0x7c>)
 8001e60:	7823      	ldrb	r3, [r4, #0]
 8001e62:	7812      	ldrb	r2, [r2, #0]
 8001e64:	fa05 f303 	lsl.w	r3, r5, r3
 8001e68:	0792      	lsls	r2, r2, #30
 8001e6a:	b2db      	uxtb	r3, r3
 8001e6c:	d51a      	bpl.n	8001ea4 <hearbeatTask+0x4c>
 8001e6e:	4e1a      	ldr	r6, [pc, #104]	; (8001ed8 <hearbeatTask+0x80>)
 8001e70:	f44f 5100 	mov.w	r1, #8192	; 0x2000
 8001e74:	6832      	ldr	r2, [r6, #0]
 8001e76:	4819      	ldr	r0, [pc, #100]	; (8001edc <hearbeatTask+0x84>)
 8001e78:	401a      	ands	r2, r3
 8001e7a:	f001 fe05 	bl	8003a88 <HAL_GPIO_WritePin>
 8001e7e:	7822      	ldrb	r2, [r4, #0]
 8001e80:	6833      	ldr	r3, [r6, #0]
 8001e82:	fa05 f202 	lsl.w	r2, r5, r2
 8001e86:	401a      	ands	r2, r3
 8001e88:	2120      	movs	r1, #32
 8001e8a:	4815      	ldr	r0, [pc, #84]	; (8001ee0 <hearbeatTask+0x88>)
 8001e8c:	b2d2      	uxtb	r2, r2
 8001e8e:	f001 fdfb 	bl	8003a88 <HAL_GPIO_WritePin>
 8001e92:	7823      	ldrb	r3, [r4, #0]
 8001e94:	442b      	add	r3, r5
 8001e96:	b2db      	uxtb	r3, r3
 8001e98:	2b1f      	cmp	r3, #31
 8001e9a:	7023      	strb	r3, [r4, #0]
 8001e9c:	d901      	bls.n	8001ea2 <hearbeatTask+0x4a>
 8001e9e:	2300      	movs	r3, #0
 8001ea0:	7023      	strb	r3, [r4, #0]
 8001ea2:	bd70      	pop	{r4, r5, r6, pc}
 8001ea4:	4e0f      	ldr	r6, [pc, #60]	; (8001ee4 <hearbeatTask+0x8c>)
 8001ea6:	f44f 5100 	mov.w	r1, #8192	; 0x2000
 8001eaa:	6832      	ldr	r2, [r6, #0]
 8001eac:	480b      	ldr	r0, [pc, #44]	; (8001edc <hearbeatTask+0x84>)
 8001eae:	401a      	ands	r2, r3
 8001eb0:	f001 fdea 	bl	8003a88 <HAL_GPIO_WritePin>
 8001eb4:	7823      	ldrb	r3, [r4, #0]
 8001eb6:	2120      	movs	r1, #32
 8001eb8:	fa05 f203 	lsl.w	r2, r5, r3
 8001ebc:	6833      	ldr	r3, [r6, #0]
 8001ebe:	4808      	ldr	r0, [pc, #32]	; (8001ee0 <hearbeatTask+0x88>)
 8001ec0:	401a      	ands	r2, r3
 8001ec2:	b2d2      	uxtb	r2, r2
 8001ec4:	f001 fde0 	bl	8003a88 <HAL_GPIO_WritePin>
 8001ec8:	7823      	ldrb	r3, [r4, #0]
 8001eca:	3301      	adds	r3, #1
 8001ecc:	e7e3      	b.n	8001e96 <hearbeatTask+0x3e>
 8001ece:	bf00      	nop
 8001ed0:	20000d42 	.word	0x20000d42
 8001ed4:	20000b94 	.word	0x20000b94
 8001ed8:	20000014 	.word	0x20000014
 8001edc:	40011000 	.word	0x40011000
 8001ee0:	40010c00 	.word	0x40010c00
 8001ee4:	20000010 	.word	0x20000010

08001ee8 <PWM_init>:
 8001ee8:	b510      	push	{r4, lr}
 8001eea:	4c0d      	ldr	r4, [pc, #52]	; (8001f20 <PWM_init+0x38>)
 8001eec:	4620      	mov	r0, r4
 8001eee:	f003 fc4f 	bl	8005790 <HAL_TIM_Base_Start>
 8001ef2:	2100      	movs	r1, #0
 8001ef4:	4620      	mov	r0, r4
 8001ef6:	f003 ff59 	bl	8005dac <HAL_TIM_PWM_Start>
 8001efa:	2104      	movs	r1, #4
 8001efc:	4620      	mov	r0, r4
 8001efe:	f003 ff55 	bl	8005dac <HAL_TIM_PWM_Start>
 8001f02:	2108      	movs	r1, #8
 8001f04:	4620      	mov	r0, r4
 8001f06:	f003 ff51 	bl	8005dac <HAL_TIM_PWM_Start>
 8001f0a:	210c      	movs	r1, #12
 8001f0c:	4620      	mov	r0, r4
 8001f0e:	f003 ff4d 	bl	8005dac <HAL_TIM_PWM_Start>
 8001f12:	2200      	movs	r2, #0
 8001f14:	6823      	ldr	r3, [r4, #0]
 8001f16:	635a      	str	r2, [r3, #52]	; 0x34
 8001f18:	639a      	str	r2, [r3, #56]	; 0x38
 8001f1a:	63da      	str	r2, [r3, #60]	; 0x3c
 8001f1c:	641a      	str	r2, [r3, #64]	; 0x40
 8001f1e:	bd10      	pop	{r4, pc}
 8001f20:	20000cb0 	.word	0x20000cb0

08001f24 <On10ms>:
 8001f24:	4a17      	ldr	r2, [pc, #92]	; (8001f84 <On10ms+0x60>)
 8001f26:	b508      	push	{r3, lr}
 8001f28:	8813      	ldrh	r3, [r2, #0]
 8001f2a:	3b01      	subs	r3, #1
 8001f2c:	b29b      	uxth	r3, r3
 8001f2e:	8013      	strh	r3, [r2, #0]
 8001f30:	b93b      	cbnz	r3, 8001f42 <On10ms+0x1e>
 8001f32:	4915      	ldr	r1, [pc, #84]	; (8001f88 <On10ms+0x64>)
 8001f34:	780b      	ldrb	r3, [r1, #0]
 8001f36:	f043 0310 	orr.w	r3, r3, #16
 8001f3a:	700b      	strb	r3, [r1, #0]
 8001f3c:	f44f 73fa 	mov.w	r3, #500	; 0x1f4
 8001f40:	8013      	strh	r3, [r2, #0]
 8001f42:	4a12      	ldr	r2, [pc, #72]	; (8001f8c <On10ms+0x68>)
 8001f44:	7813      	ldrb	r3, [r2, #0]
 8001f46:	3b01      	subs	r3, #1
 8001f48:	b2db      	uxtb	r3, r3
 8001f4a:	7013      	strb	r3, [r2, #0]
 8001f4c:	b933      	cbnz	r3, 8001f5c <On10ms+0x38>
 8001f4e:	490e      	ldr	r1, [pc, #56]	; (8001f88 <On10ms+0x64>)
 8001f50:	780b      	ldrb	r3, [r1, #0]
 8001f52:	f043 0340 	orr.w	r3, r3, #64	; 0x40
 8001f56:	700b      	strb	r3, [r1, #0]
 8001f58:	2364      	movs	r3, #100	; 0x64
 8001f5a:	7013      	strb	r3, [r2, #0]
 8001f5c:	4a0c      	ldr	r2, [pc, #48]	; (8001f90 <On10ms+0x6c>)
 8001f5e:	7813      	ldrb	r3, [r2, #0]
 8001f60:	3b01      	subs	r3, #1
 8001f62:	b2db      	uxtb	r3, r3
 8001f64:	7013      	strb	r3, [r2, #0]
 8001f66:	b943      	cbnz	r3, 8001f7a <On10ms+0x56>
 8001f68:	4907      	ldr	r1, [pc, #28]	; (8001f88 <On10ms+0x64>)
 8001f6a:	780b      	ldrb	r3, [r1, #0]
 8001f6c:	f043 0380 	orr.w	r3, r3, #128	; 0x80
 8001f70:	700b      	strb	r3, [r1, #0]
 8001f72:	230a      	movs	r3, #10
 8001f74:	7013      	strb	r3, [r2, #0]
 8001f76:	f7ff ff6f 	bl	8001e58 <hearbeatTask>
 8001f7a:	e8bd 4008 	ldmia.w	sp!, {r3, lr}
 8001f7e:	f7fe be53 	b.w	8000c28 <ESP01_Timeout10ms>
 8001f82:	bf00      	nop
 8001f84:	20000d96 	.word	0x20000d96
 8001f88:	20000b94 	.word	0x20000b94
 8001f8c:	20000d94 	.word	0x20000d94
 8001f90:	20000d92 	.word	0x20000d92

08001f94 <On5s>:
 8001f94:	b508      	push	{r3, lr}
 8001f96:	2202      	movs	r2, #2
 8001f98:	21f0      	movs	r1, #240	; 0xf0
 8001f9a:	4805      	ldr	r0, [pc, #20]	; (8001fb0 <On5s+0x1c>)
 8001f9c:	f7ff fcbe 	bl	800191c <PutHeaderOnTx>
 8001fa0:	210d      	movs	r1, #13
 8001fa2:	f7ff fcb0 	bl	8001906 <PutByteOnTx>
 8001fa6:	e8bd 4008 	ldmia.w	sp!, {r3, lr}
 8001faa:	f7ff bcf3 	b.w	8001994 <CalcAndPutCksOnTx>
 8001fae:	bf00      	nop
 8001fb0:	20000da4 	.word	0x20000da4

08001fb4 <MotorControl>:
 8001fb4:	b510      	push	{r4, lr}
 8001fb6:	4c15      	ldr	r4, [pc, #84]	; (800200c <MotorControl+0x58>)
 8001fb8:	ea80 73e0 	eor.w	r3, r0, r0, asr #31
 8001fbc:	6ae2      	ldr	r2, [r4, #44]	; 0x2c
 8001fbe:	eba3 73e0 	sub.w	r3, r3, r0, asr #31
 8001fc2:	b29b      	uxth	r3, r3
 8001fc4:	4353      	muls	r3, r2
 8001fc6:	2264      	movs	r2, #100	; 0x64
 8001fc8:	fbb3 f3f2 	udiv	r3, r3, r2
 8001fcc:	2800      	cmp	r0, #0
 8001fce:	f04f 0000 	mov.w	r0, #0
 8001fd2:	4a0f      	ldr	r2, [pc, #60]	; (8002010 <MotorControl+0x5c>)
 8001fd4:	b21b      	sxth	r3, r3
 8001fd6:	6812      	ldr	r2, [r2, #0]
 8001fd8:	bfab      	itete	ge
 8001fda:	6353      	strge	r3, [r2, #52]	; 0x34
 8001fdc:	6350      	strlt	r0, [r2, #52]	; 0x34
 8001fde:	6390      	strge	r0, [r2, #56]	; 0x38
 8001fe0:	6393      	strlt	r3, [r2, #56]	; 0x38
 8001fe2:	ea81 73e1 	eor.w	r3, r1, r1, asr #31
 8001fe6:	6ae0      	ldr	r0, [r4, #44]	; 0x2c
 8001fe8:	eba3 73e1 	sub.w	r3, r3, r1, asr #31
 8001fec:	b29b      	uxth	r3, r3
 8001fee:	4343      	muls	r3, r0
 8001ff0:	2064      	movs	r0, #100	; 0x64
 8001ff2:	fbb3 f3f0 	udiv	r3, r3, r0
 8001ff6:	2900      	cmp	r1, #0
 8001ff8:	f04f 0100 	mov.w	r1, #0
 8001ffc:	b21b      	sxth	r3, r3
 8001ffe:	bfab      	itete	ge
 8002000:	63d1      	strge	r1, [r2, #60]	; 0x3c
 8002002:	63d3      	strlt	r3, [r2, #60]	; 0x3c
 8002004:	6413      	strge	r3, [r2, #64]	; 0x40
 8002006:	6411      	strlt	r1, [r2, #64]	; 0x40
 8002008:	bd10      	pop	{r4, pc}
 800200a:	bf00      	nop
 800200c:	40000800 	.word	0x40000800
 8002010:	20000cb0 	.word	0x20000cb0

08002014 <setMode>:
 8002014:	490e      	ldr	r1, [pc, #56]	; (8002050 <setMode+0x3c>)
 8002016:	480f      	ldr	r0, [pc, #60]	; (8002054 <setMode+0x40>)
 8002018:	780b      	ldrb	r3, [r1, #0]
 800201a:	4a0f      	ldr	r2, [pc, #60]	; (8002058 <setMode+0x44>)
 800201c:	f013 0f01 	tst.w	r3, #1
 8002020:	d00b      	beq.n	800203a <setMode+0x26>
 8002022:	f36f 0300 	bfc	r3, #0, #1
 8002026:	700b      	strb	r3, [r1, #0]
 8002028:	2100      	movs	r1, #0
 800202a:	7813      	ldrb	r3, [r2, #0]
 800202c:	7001      	strb	r1, [r0, #0]
 800202e:	f361 0341 	bfi	r3, r1, #1, #1
 8002032:	4608      	mov	r0, r1
 8002034:	7013      	strb	r3, [r2, #0]
 8002036:	f7ff bfbd 	b.w	8001fb4 <MotorControl>
 800203a:	f043 0301 	orr.w	r3, r3, #1
 800203e:	700b      	strb	r3, [r1, #0]
 8002040:	2301      	movs	r3, #1
 8002042:	7003      	strb	r3, [r0, #0]
 8002044:	7813      	ldrb	r3, [r2, #0]
 8002046:	f043 0302 	orr.w	r3, r3, #2
 800204a:	7013      	strb	r3, [r2, #0]
 800204c:	4770      	bx	lr
 800204e:	bf00      	nop
 8002050:	20000b95 	.word	0x20000b95
 8002054:	20000d60 	.word	0x20000d60
 8002058:	20000b94 	.word	0x20000b94

0800205c <findLine>:
 800205c:	2000      	movs	r0, #0
 800205e:	2301      	movs	r3, #1
 8002060:	b5f0      	push	{r4, r5, r6, r7, lr}
 8002062:	4c35      	ldr	r4, [pc, #212]	; (8002138 <findLine+0xdc>)
 8002064:	b08b      	sub	sp, #44	; 0x2c
 8002066:	7023      	strb	r3, [r4, #0]
 8002068:	46ec      	mov	ip, sp
 800206a:	4607      	mov	r7, r0
 800206c:	4603      	mov	r3, r0
 800206e:	4a33      	ldr	r2, [pc, #204]	; (800213c <findLine+0xe0>)
 8002070:	4e33      	ldr	r6, [pc, #204]	; (8002140 <findLine+0xe4>)
 8002072:	8811      	ldrh	r1, [r2, #0]
 8002074:	8031      	strh	r1, [r6, #0]
 8002076:	f832 5b02 	ldrh.w	r5, [r2], #2
 800207a:	3301      	adds	r3, #1
 800207c:	428d      	cmp	r5, r1
 800207e:	b2db      	uxtb	r3, r3
 8002080:	bf3e      	ittt	cc
 8002082:	4618      	movcc	r0, r3
 8002084:	4629      	movcc	r1, r5
 8002086:	2701      	movcc	r7, #1
 8002088:	2b08      	cmp	r3, #8
 800208a:	f84c 5f04 	str.w	r5, [ip, #4]!
 800208e:	d1f2      	bne.n	8002076 <findLine+0x1a>
 8002090:	b10f      	cbz	r7, 8002096 <findLine+0x3a>
 8002092:	7020      	strb	r0, [r4, #0]
 8002094:	8031      	strh	r1, [r6, #0]
 8002096:	9b02      	ldr	r3, [sp, #8]
 8002098:	7824      	ldrb	r4, [r4, #0]
 800209a:	9300      	str	r3, [sp, #0]
 800209c:	9b07      	ldr	r3, [sp, #28]
 800209e:	1e62      	subs	r2, r4, #1
 80020a0:	9309      	str	r3, [sp, #36]	; 0x24
 80020a2:	4b28      	ldr	r3, [pc, #160]	; (8002144 <findLine+0xe8>)
 80020a4:	b2d2      	uxtb	r2, r2
 80020a6:	701a      	strb	r2, [r3, #0]
 80020a8:	1c61      	adds	r1, r4, #1
 80020aa:	4b27      	ldr	r3, [pc, #156]	; (8002148 <findLine+0xec>)
 80020ac:	b2c9      	uxtb	r1, r1
 80020ae:	7019      	strb	r1, [r3, #0]
 80020b0:	ab0a      	add	r3, sp, #40	; 0x28
 80020b2:	eb03 0384 	add.w	r3, r3, r4, lsl #2
 80020b6:	f853 0c28 	ldr.w	r0, [r3, #-40]
 80020ba:	ab0a      	add	r3, sp, #40	; 0x28
 80020bc:	eb03 0382 	add.w	r3, r3, r2, lsl #2
 80020c0:	f853 3c28 	ldr.w	r3, [r3, #-40]
 80020c4:	4d21      	ldr	r5, [pc, #132]	; (800214c <findLine+0xf0>)
 80020c6:	1ac3      	subs	r3, r0, r3
 80020c8:	602b      	str	r3, [r5, #0]
 80020ca:	ad0a      	add	r5, sp, #40	; 0x28
 80020cc:	eb05 0581 	add.w	r5, r5, r1, lsl #2
 80020d0:	f855 5c28 	ldr.w	r5, [r5, #-40]
 80020d4:	4e1e      	ldr	r6, [pc, #120]	; (8002150 <findLine+0xf4>)
 80020d6:	1b40      	subs	r0, r0, r5
 80020d8:	4d1e      	ldr	r5, [pc, #120]	; (8002154 <findLine+0xf8>)
 80020da:	f8df c07c 	ldr.w	ip, [pc, #124]	; 8002158 <findLine+0xfc>
 80020de:	6028      	str	r0, [r5, #0]
 80020e0:	4d1e      	ldr	r5, [pc, #120]	; (800215c <findLine+0x100>)
 80020e2:	f855 4024 	ldr.w	r4, [r5, r4, lsl #2]
 80020e6:	f855 1021 	ldr.w	r1, [r5, r1, lsl #2]
 80020ea:	f855 2022 	ldr.w	r2, [r5, r2, lsl #2]
 80020ee:	1a61      	subs	r1, r4, r1
 80020f0:	fb01 f701 	mul.w	r7, r1, r1
 80020f4:	4d1a      	ldr	r5, [pc, #104]	; (8002160 <findLine+0x104>)
 80020f6:	1aa2      	subs	r2, r4, r2
 80020f8:	602a      	str	r2, [r5, #0]
 80020fa:	6031      	str	r1, [r6, #0]
 80020fc:	4d19      	ldr	r5, [pc, #100]	; (8002164 <findLine+0x108>)
 80020fe:	fb02 f602 	mul.w	r6, r2, r2
 8002102:	4359      	muls	r1, r3
 8002104:	4342      	muls	r2, r0
 8002106:	602f      	str	r7, [r5, #0]
 8002108:	4d17      	ldr	r5, [pc, #92]	; (8002168 <findLine+0x10c>)
 800210a:	4291      	cmp	r1, r2
 800210c:	602e      	str	r6, [r5, #0]
 800210e:	eba1 0502 	sub.w	r5, r1, r2
 8002112:	ea4f 0545 	mov.w	r5, r5, lsl #1
 8002116:	4a15      	ldr	r2, [pc, #84]	; (800216c <findLine+0x110>)
 8002118:	f8cc 5000 	str.w	r5, [ip]
 800211c:	d006      	beq.n	800212c <findLine+0xd0>
 800211e:	437b      	muls	r3, r7
 8002120:	fb06 3310 	mls	r3, r6, r0, r3
 8002124:	fb93 f3f5 	sdiv	r3, r3, r5
 8002128:	1ae4      	subs	r4, r4, r3
 800212a:	6014      	str	r4, [r2, #0]
 800212c:	6813      	ldr	r3, [r2, #0]
 800212e:	4a10      	ldr	r2, [pc, #64]	; (8002170 <findLine+0x114>)
 8002130:	425b      	negs	r3, r3
 8002132:	6013      	str	r3, [r2, #0]
 8002134:	b00b      	add	sp, #44	; 0x2c
 8002136:	bdf0      	pop	{r4, r5, r6, r7, pc}
 8002138:	20000d43 	.word	0x20000d43
 800213c:	20000658 	.word	0x20000658
 8002140:	20000d8c 	.word	0x20000d8c
 8002144:	20000d45 	.word	0x20000d45
 8002148:	20000d44 	.word	0x20000d44
 800214c:	20000b9c 	.word	0x20000b9c
 8002150:	20000dcc 	.word	0x20000dcc
 8002154:	20000b98 	.word	0x20000b98
 8002158:	20000b70 	.word	0x20000b70
 800215c:	08007ff0 	.word	0x08007ff0
 8002160:	20000dd4 	.word	0x20000dd4
 8002164:	20000dd0 	.word	0x20000dd0
 8002168:	20000dd8 	.word	0x20000dd8
 800216c:	20000ddc 	.word	0x20000ddc
 8002170:	20000b84 	.word	0x20000b84

08002174 <correctionPID>:
 8002174:	4a3b      	ldr	r2, [pc, #236]	; (8002264 <correctionPID+0xf0>)
 8002176:	b570      	push	{r4, r5, r6, lr}
 8002178:	6813      	ldr	r3, [r2, #0]
 800217a:	2b64      	cmp	r3, #100	; 0x64
 800217c:	dd54      	ble.n	8002228 <correctionPID+0xb4>
 800217e:	2364      	movs	r3, #100	; 0x64
 8002180:	6013      	str	r3, [r2, #0]
 8002182:	4c39      	ldr	r4, [pc, #228]	; (8002268 <correctionPID+0xf4>)
 8002184:	4b39      	ldr	r3, [pc, #228]	; (800226c <correctionPID+0xf8>)
 8002186:	6821      	ldr	r1, [r4, #0]
 8002188:	4839      	ldr	r0, [pc, #228]	; (8002270 <correctionPID+0xfc>)
 800218a:	6019      	str	r1, [r3, #0]
 800218c:	6805      	ldr	r5, [r0, #0]
 800218e:	4b39      	ldr	r3, [pc, #228]	; (8002274 <correctionPID+0x100>)
 8002190:	4839      	ldr	r0, [pc, #228]	; (8002278 <correctionPID+0x104>)
 8002192:	681b      	ldr	r3, [r3, #0]
 8002194:	6800      	ldr	r0, [r0, #0]
 8002196:	6812      	ldr	r2, [r2, #0]
 8002198:	4358      	muls	r0, r3
 800219a:	fb05 0001 	mla	r0, r5, r1, r0
 800219e:	4d37      	ldr	r5, [pc, #220]	; (800227c <correctionPID+0x108>)
 80021a0:	4e37      	ldr	r6, [pc, #220]	; (8002280 <correctionPID+0x10c>)
 80021a2:	682d      	ldr	r5, [r5, #0]
 80021a4:	6836      	ldr	r6, [r6, #0]
 80021a6:	fb05 0002 	mla	r0, r5, r2, r0
 80021aa:	4d36      	ldr	r5, [pc, #216]	; (8002284 <correctionPID+0x110>)
 80021ac:	4373      	muls	r3, r6
 80021ae:	6028      	str	r0, [r5, #0]
 80021b0:	4d35      	ldr	r5, [pc, #212]	; (8002288 <correctionPID+0x114>)
 80021b2:	682d      	ldr	r5, [r5, #0]
 80021b4:	fb05 3301 	mla	r3, r5, r1, r3
 80021b8:	4934      	ldr	r1, [pc, #208]	; (800228c <correctionPID+0x118>)
 80021ba:	6809      	ldr	r1, [r1, #0]
 80021bc:	fb01 3302 	mla	r3, r1, r2, r3
 80021c0:	4a33      	ldr	r2, [pc, #204]	; (8002290 <correctionPID+0x11c>)
 80021c2:	6013      	str	r3, [r2, #0]
 80021c4:	4a33      	ldr	r2, [pc, #204]	; (8002294 <correctionPID+0x120>)
 80021c6:	f9b2 5000 	ldrsh.w	r5, [r2]
 80021ca:	4a33      	ldr	r2, [pc, #204]	; (8002298 <correctionPID+0x124>)
 80021cc:	f9b2 1000 	ldrsh.w	r1, [r2]
 80021d0:	4a32      	ldr	r2, [pc, #200]	; (800229c <correctionPID+0x128>)
 80021d2:	f9b2 2000 	ldrsh.w	r2, [r2]
 80021d6:	2a40      	cmp	r2, #64	; 0x40
 80021d8:	dd2b      	ble.n	8002232 <correctionPID+0xbe>
 80021da:	4b31      	ldr	r3, [pc, #196]	; (80022a0 <correctionPID+0x12c>)
 80021dc:	f9b3 1000 	ldrsh.w	r1, [r3]
 80021e0:	4b30      	ldr	r3, [pc, #192]	; (80022a4 <correctionPID+0x130>)
 80021e2:	f9b3 0000 	ldrsh.w	r0, [r3]
 80021e6:	f7ff fee5 	bl	8001fb4 <MotorControl>
 80021ea:	4a2f      	ldr	r2, [pc, #188]	; (80022a8 <correctionPID+0x134>)
 80021ec:	7813      	ldrb	r3, [r2, #0]
 80021ee:	0659      	lsls	r1, r3, #25
 80021f0:	d536      	bpl.n	8002260 <correctionPID+0xec>
 80021f2:	f36f 1386 	bfc	r3, #6, #1
 80021f6:	7013      	strb	r3, [r2, #0]
 80021f8:	482c      	ldr	r0, [pc, #176]	; (80022ac <correctionPID+0x138>)
 80021fa:	2205      	movs	r2, #5
 80021fc:	21a4      	movs	r1, #164	; 0xa4
 80021fe:	f7ff fb8d 	bl	800191c <PutHeaderOnTx>
 8002202:	6821      	ldr	r1, [r4, #0]
 8002204:	4c2a      	ldr	r4, [pc, #168]	; (80022b0 <correctionPID+0x13c>)
 8002206:	6021      	str	r1, [r4, #0]
 8002208:	b2c9      	uxtb	r1, r1
 800220a:	f7ff fb7c 	bl	8001906 <PutByteOnTx>
 800220e:	7861      	ldrb	r1, [r4, #1]
 8002210:	f7ff fb79 	bl	8001906 <PutByteOnTx>
 8002214:	78a1      	ldrb	r1, [r4, #2]
 8002216:	f7ff fb76 	bl	8001906 <PutByteOnTx>
 800221a:	78e1      	ldrb	r1, [r4, #3]
 800221c:	f7ff fb73 	bl	8001906 <PutByteOnTx>
 8002220:	e8bd 4070 	ldmia.w	sp!, {r4, r5, r6, lr}
 8002224:	f7ff bbb6 	b.w	8001994 <CalcAndPutCksOnTx>
 8002228:	3364      	adds	r3, #100	; 0x64
 800222a:	daaa      	bge.n	8002182 <correctionPID+0xe>
 800222c:	f06f 0363 	mvn.w	r3, #99	; 0x63
 8002230:	e7a6      	b.n	8002180 <correctionPID+0xc>
 8002232:	2a05      	cmp	r2, #5
 8002234:	dc04      	bgt.n	8002240 <correctionPID+0xcc>
 8002236:	4b1b      	ldr	r3, [pc, #108]	; (80022a4 <correctionPID+0x130>)
 8002238:	f9b3 1000 	ldrsh.w	r1, [r3]
 800223c:	4b18      	ldr	r3, [pc, #96]	; (80022a0 <correctionPID+0x12c>)
 800223e:	e7d0      	b.n	80021e2 <correctionPID+0x6e>
 8002240:	220a      	movs	r2, #10
 8002242:	fb93 f3f2 	sdiv	r3, r3, r2
 8002246:	fb90 f0f2 	sdiv	r0, r0, r2
 800224a:	1ac9      	subs	r1, r1, r3
 800224c:	b209      	sxth	r1, r1
 800224e:	4428      	add	r0, r5
 8002250:	b200      	sxth	r0, r0
 8002252:	2964      	cmp	r1, #100	; 0x64
 8002254:	bfa8      	it	ge
 8002256:	2164      	movge	r1, #100	; 0x64
 8002258:	2864      	cmp	r0, #100	; 0x64
 800225a:	bfa8      	it	ge
 800225c:	2064      	movge	r0, #100	; 0x64
 800225e:	e7c2      	b.n	80021e6 <correctionPID+0x72>
 8002260:	bd70      	pop	{r4, r5, r6, pc}
 8002262:	bf00      	nop
 8002264:	20000b8c 	.word	0x20000b8c
 8002268:	20000b84 	.word	0x20000b84
 800226c:	20000b90 	.word	0x20000b90
 8002270:	20000004 	.word	0x20000004
 8002274:	20000b88 	.word	0x20000b88
 8002278:	20000640 	.word	0x20000640
 800227c:	20000648 	.word	0x20000648
 8002280:	20000644 	.word	0x20000644
 8002284:	20000dbc 	.word	0x20000dbc
 8002288:	20000008 	.word	0x20000008
 800228c:	2000064c 	.word	0x2000064c
 8002290:	20000dc0 	.word	0x20000dc0
 8002294:	20000018 	.word	0x20000018
 8002298:	2000001a 	.word	0x2000001a
 800229c:	20000d46 	.word	0x20000d46
 80022a0:	2000001e 	.word	0x2000001e
 80022a4:	2000001c 	.word	0x2000001c
 80022a8:	20000b94 	.word	0x20000b94
 80022ac:	20000da4 	.word	0x20000da4
 80022b0:	20000dc8 	.word	0x20000dc8

080022b4 <analogToDigital>:
 80022b4:	e92d 41f0 	stmdb	sp!, {r4, r5, r6, r7, r8, lr}
 80022b8:	482a      	ldr	r0, [pc, #168]	; (8002364 <analogToDigital+0xb0>)
 80022ba:	4c2b      	ldr	r4, [pc, #172]	; (8002368 <analogToDigital+0xb4>)
 80022bc:	2200      	movs	r2, #0
 80022be:	4621      	mov	r1, r4
 80022c0:	4686      	mov	lr, r0
 80022c2:	4b2a      	ldr	r3, [pc, #168]	; (800236c <analogToDigital+0xb8>)
 80022c4:	4e2a      	ldr	r6, [pc, #168]	; (8002370 <analogToDigital+0xbc>)
 80022c6:	881f      	ldrh	r7, [r3, #0]
 80022c8:	f836 3b02 	ldrh.w	r3, [r6], #2
 80022cc:	3201      	adds	r2, #1
 80022ce:	42bb      	cmp	r3, r7
 80022d0:	bf2c      	ite	cs
 80022d2:	2300      	movcs	r3, #0
 80022d4:	2301      	movcc	r3, #1
 80022d6:	2a08      	cmp	r2, #8
 80022d8:	f824 3b02 	strh.w	r3, [r4], #2
 80022dc:	f820 3b02 	strh.w	r3, [r0], #2
 80022e0:	d1f2      	bne.n	80022c8 <analogToDigital+0x14>
 80022e2:	880f      	ldrh	r7, [r1, #0]
 80022e4:	f8b1 c002 	ldrh.w	ip, [r1, #2]
 80022e8:	eb07 0387 	add.w	r3, r7, r7, lsl #2
 80022ec:	88ce      	ldrh	r6, [r1, #6]
 80022ee:	ebc3 08c3 	rsb	r8, r3, r3, lsl #3
 80022f2:	ebcc 130c 	rsb	r3, ip, ip, lsl #4
 80022f6:	888d      	ldrh	r5, [r1, #4]
 80022f8:	009b      	lsls	r3, r3, #2
 80022fa:	eb03 0348 	add.w	r3, r3, r8, lsl #1
 80022fe:	4467      	add	r7, ip
 8002300:	eb06 0886 	add.w	r8, r6, r6, lsl #2
 8002304:	894c      	ldrh	r4, [r1, #10]
 8002306:	eb03 03c8 	add.w	r3, r3, r8, lsl #3
 800230a:	443e      	add	r6, r7
 800230c:	eb05 0885 	add.w	r8, r5, r5, lsl #2
 8002310:	8908      	ldrh	r0, [r1, #8]
 8002312:	eb08 0888 	add.w	r8, r8, r8, lsl #2
 8002316:	4435      	add	r5, r6
 8002318:	898a      	ldrh	r2, [r1, #12]
 800231a:	eb03 0348 	add.w	r3, r3, r8, lsl #1
 800231e:	eb04 0884 	add.w	r8, r4, r4, lsl #2
 8002322:	442c      	add	r4, r5
 8002324:	89c9      	ldrh	r1, [r1, #14]
 8002326:	eb03 0388 	add.w	r3, r3, r8, lsl #2
 800232a:	ebc0 1800 	rsb	r8, r0, r0, lsl #4
 800232e:	4420      	add	r0, r4
 8002330:	eb03 0348 	add.w	r3, r3, r8, lsl #1
 8002334:	eb02 0882 	add.w	r8, r2, r2, lsl #2
 8002338:	4402      	add	r2, r0
 800233a:	eb03 0348 	add.w	r3, r3, r8, lsl #1
 800233e:	440a      	add	r2, r1
 8002340:	f8df 8030 	ldr.w	r8, [pc, #48]	; 8002374 <analogToDigital+0xc0>
 8002344:	490c      	ldr	r1, [pc, #48]	; (8002378 <analogToDigital+0xc4>)
 8002346:	b21b      	sxth	r3, r3
 8002348:	b212      	sxth	r2, r2
 800234a:	800a      	strh	r2, [r1, #0]
 800234c:	f8a8 3000 	strh.w	r3, [r8]
 8002350:	490a      	ldr	r1, [pc, #40]	; (800237c <analogToDigital+0xc8>)
 8002352:	b112      	cbz	r2, 800235a <analogToDigital+0xa6>
 8002354:	fb93 f3f2 	sdiv	r3, r3, r2
 8002358:	800b      	strh	r3, [r1, #0]
 800235a:	880b      	ldrh	r3, [r1, #0]
 800235c:	f8ae 3010 	strh.w	r3, [lr, #16]
 8002360:	e8bd 81f0 	ldmia.w	sp!, {r4, r5, r6, r7, r8, pc}
 8002364:	20000d48 	.word	0x20000d48
 8002368:	20000b74 	.word	0x20000b74
 800236c:	20000020 	.word	0x20000020
 8002370:	20000658 	.word	0x20000658
 8002374:	20000d90 	.word	0x20000d90
 8002378:	20000d8e 	.word	0x20000d8e
 800237c:	20000d46 	.word	0x20000d46

08002380 <position_calculation>:
 8002380:	b5f8      	push	{r3, r4, r5, r6, r7, lr}
 8002382:	f7ff f8a5 	bl	80014d0 <MPU6050_Read_Accel>
 8002386:	f7ff f93b 	bl	8001600 <MPU6050_Read_Gyro>
 800238a:	4b29      	ldr	r3, [pc, #164]	; (8002430 <position_calculation+0xb0>)
 800238c:	4e29      	ldr	r6, [pc, #164]	; (8002434 <position_calculation+0xb4>)
 800238e:	6818      	ldr	r0, [r3, #0]
 8002390:	f7fe f838 	bl	8000404 <__aeabi_i2d>
 8002394:	a324      	add	r3, pc, #144	; (adr r3, 8002428 <position_calculation+0xa8>)
 8002396:	e9d3 2300 	ldrd	r2, r3, [r3]
 800239a:	f7fe f89d 	bl	80004d8 <__aeabi_dmul>
 800239e:	4604      	mov	r4, r0
 80023a0:	6830      	ldr	r0, [r6, #0]
 80023a2:	460d      	mov	r5, r1
 80023a4:	f7fe f82e 	bl	8000404 <__aeabi_i2d>
 80023a8:	4602      	mov	r2, r0
 80023aa:	460b      	mov	r3, r1
 80023ac:	4620      	mov	r0, r4
 80023ae:	4629      	mov	r1, r5
 80023b0:	f7fd fedc 	bl	800016c <__adddf3>
 80023b4:	f7fe faa2 	bl	80008fc <__aeabi_d2iz>
 80023b8:	4b1f      	ldr	r3, [pc, #124]	; (8002438 <position_calculation+0xb8>)
 80023ba:	6030      	str	r0, [r6, #0]
 80023bc:	6018      	str	r0, [r3, #0]
 80023be:	4b1f      	ldr	r3, [pc, #124]	; (800243c <position_calculation+0xbc>)
 80023c0:	4e1f      	ldr	r6, [pc, #124]	; (8002440 <position_calculation+0xc0>)
 80023c2:	6818      	ldr	r0, [r3, #0]
 80023c4:	f7fe f81e 	bl	8000404 <__aeabi_i2d>
 80023c8:	a317      	add	r3, pc, #92	; (adr r3, 8002428 <position_calculation+0xa8>)
 80023ca:	e9d3 2300 	ldrd	r2, r3, [r3]
 80023ce:	f7fe f883 	bl	80004d8 <__aeabi_dmul>
 80023d2:	4604      	mov	r4, r0
 80023d4:	6830      	ldr	r0, [r6, #0]
 80023d6:	460d      	mov	r5, r1
 80023d8:	f7fe f814 	bl	8000404 <__aeabi_i2d>
 80023dc:	4602      	mov	r2, r0
 80023de:	460b      	mov	r3, r1
 80023e0:	4620      	mov	r0, r4
 80023e2:	4629      	mov	r1, r5
 80023e4:	f7fd fec2 	bl	800016c <__adddf3>
 80023e8:	f7fe fa88 	bl	80008fc <__aeabi_d2iz>
 80023ec:	4d15      	ldr	r5, [pc, #84]	; (8002444 <position_calculation+0xc4>)
 80023ee:	4b16      	ldr	r3, [pc, #88]	; (8002448 <position_calculation+0xc8>)
 80023f0:	6030      	str	r0, [r6, #0]
 80023f2:	6018      	str	r0, [r3, #0]
 80023f4:	4604      	mov	r4, r0
 80023f6:	6828      	ldr	r0, [r5, #0]
 80023f8:	f7fe f804 	bl	8000404 <__aeabi_i2d>
 80023fc:	4606      	mov	r6, r0
 80023fe:	4620      	mov	r0, r4
 8002400:	460f      	mov	r7, r1
 8002402:	f7fd ffff 	bl	8000404 <__aeabi_i2d>
 8002406:	a308      	add	r3, pc, #32	; (adr r3, 8002428 <position_calculation+0xa8>)
 8002408:	e9d3 2300 	ldrd	r2, r3, [r3]
 800240c:	f7fe f864 	bl	80004d8 <__aeabi_dmul>
 8002410:	460b      	mov	r3, r1
 8002412:	4602      	mov	r2, r0
 8002414:	4639      	mov	r1, r7
 8002416:	4630      	mov	r0, r6
 8002418:	f7fd fea8 	bl	800016c <__adddf3>
 800241c:	f7fe fa6e 	bl	80008fc <__aeabi_d2iz>
 8002420:	4b0a      	ldr	r3, [pc, #40]	; (800244c <position_calculation+0xcc>)
 8002422:	6028      	str	r0, [r5, #0]
 8002424:	6018      	str	r0, [r3, #0]
 8002426:	bdf8      	pop	{r3, r4, r5, r6, r7, pc}
 8002428:	47ae147b 	.word	0x47ae147b
 800242c:	3f847ae1 	.word	0x3f847ae1
 8002430:	20000424 	.word	0x20000424
 8002434:	20000668 	.word	0x20000668
 8002438:	20000628 	.word	0x20000628
 800243c:	20000408 	.word	0x20000408
 8002440:	20000dc4 	.word	0x20000dc4
 8002444:	20000d5c 	.word	0x20000d5c
 8002448:	20000654 	.word	0x20000654
 800244c:	20000650 	.word	0x20000650

08002450 <RobotWorkout>:
 8002450:	b508      	push	{r3, lr}
 8002452:	f7ff ff95 	bl	8002380 <position_calculation>
 8002456:	4b06      	ldr	r3, [pc, #24]	; (8002470 <RobotWorkout+0x20>)
 8002458:	781b      	ldrb	r3, [r3, #0]
 800245a:	2b01      	cmp	r3, #1
 800245c:	d107      	bne.n	800246e <RobotWorkout+0x1e>
 800245e:	f7ff fdfd 	bl	800205c <findLine>
 8002462:	f7ff ff27 	bl	80022b4 <analogToDigital>
 8002466:	e8bd 4008 	ldmia.w	sp!, {r3, lr}
 800246a:	f7ff be83 	b.w	8002174 <correctionPID>
 800246e:	bd08      	pop	{r3, pc}
 8002470:	20000d60 	.word	0x20000d60

08002474 <SystemClock_Config>:
 8002474:	b510      	push	{r4, lr}
 8002476:	b094      	sub	sp, #80	; 0x50
 8002478:	2214      	movs	r2, #20
 800247a:	2100      	movs	r1, #0
 800247c:	a80c      	add	r0, sp, #48	; 0x30
 800247e:	f005 fbc1 	bl	8007c04 <memset>
 8002482:	2214      	movs	r2, #20
 8002484:	2100      	movs	r1, #0
 8002486:	eb0d 0002 	add.w	r0, sp, r2
 800248a:	f005 fbbb 	bl	8007c04 <memset>
 800248e:	2210      	movs	r2, #16
 8002490:	2100      	movs	r1, #0
 8002492:	a801      	add	r0, sp, #4
 8002494:	f005 fbb6 	bl	8007c04 <memset>
 8002498:	2402      	movs	r4, #2
 800249a:	f44f 3380 	mov.w	r3, #65536	; 0x10000
 800249e:	2201      	movs	r2, #1
 80024a0:	e9cd 4311 	strd	r4, r3, [sp, #68]	; 0x44
 80024a4:	e9cd 230a 	strd	r2, r3, [sp, #40]	; 0x28
 80024a8:	f44f 13e0 	mov.w	r3, #1835008	; 0x1c0000
 80024ac:	a80a      	add	r0, sp, #40	; 0x28
 80024ae:	920e      	str	r2, [sp, #56]	; 0x38
 80024b0:	9313      	str	r3, [sp, #76]	; 0x4c
 80024b2:	f002 fe01 	bl	80050b8 <HAL_RCC_OscConfig>
 80024b6:	b108      	cbz	r0, 80024bc <SystemClock_Config+0x48>
 80024b8:	b672      	cpsid	i
 80024ba:	e7fe      	b.n	80024ba <SystemClock_Config+0x46>
 80024bc:	230f      	movs	r3, #15
 80024be:	e9cd 3405 	strd	r3, r4, [sp, #20]
 80024c2:	f44f 6380 	mov.w	r3, #1024	; 0x400
 80024c6:	9007      	str	r0, [sp, #28]
 80024c8:	e9cd 3008 	strd	r3, r0, [sp, #32]
 80024cc:	4621      	mov	r1, r4
 80024ce:	a805      	add	r0, sp, #20
 80024d0:	f002 ffb4 	bl	800543c <HAL_RCC_ClockConfig>
 80024d4:	b108      	cbz	r0, 80024da <SystemClock_Config+0x66>
 80024d6:	b672      	cpsid	i
 80024d8:	e7fe      	b.n	80024d8 <SystemClock_Config+0x64>
 80024da:	2312      	movs	r3, #18
 80024dc:	9301      	str	r3, [sp, #4]
 80024de:	f44f 4300 	mov.w	r3, #32768	; 0x8000
 80024e2:	e9cd 3003 	strd	r3, r0, [sp, #12]
 80024e6:	a801      	add	r0, sp, #4
 80024e8:	f003 f864 	bl	80055b4 <HAL_RCCEx_PeriphCLKConfig>
 80024ec:	b108      	cbz	r0, 80024f2 <SystemClock_Config+0x7e>
 80024ee:	b672      	cpsid	i
 80024f0:	e7fe      	b.n	80024f0 <SystemClock_Config+0x7c>
 80024f2:	b014      	add	sp, #80	; 0x50
 80024f4:	bd10      	pop	{r4, pc}
	...

080024f8 <main>:
 80024f8:	2400      	movs	r4, #0
 80024fa:	e92d 4880 	stmdb	sp!, {r7, fp, lr}
 80024fe:	b093      	sub	sp, #76	; 0x4c
 8002500:	f000 fd46 	bl	8002f90 <HAL_Init>
 8002504:	4baf      	ldr	r3, [pc, #700]	; (80027c4 <main+0x2cc>)
 8002506:	4eb0      	ldr	r6, [pc, #704]	; (80027c8 <main+0x2d0>)
 8002508:	701c      	strb	r4, [r3, #0]
 800250a:	4bb0      	ldr	r3, [pc, #704]	; (80027cc <main+0x2d4>)
 800250c:	4db0      	ldr	r5, [pc, #704]	; (80027d0 <main+0x2d8>)
 800250e:	6033      	str	r3, [r6, #0]
 8002510:	23ff      	movs	r3, #255	; 0xff
 8002512:	49b0      	ldr	r1, [pc, #704]	; (80027d4 <main+0x2dc>)
 8002514:	8134      	strh	r4, [r6, #8]
 8002516:	4ab0      	ldr	r2, [pc, #704]	; (80027d8 <main+0x2e0>)
 8002518:	80f4      	strh	r4, [r6, #6]
 800251a:	8233      	strh	r3, [r6, #16]
 800251c:	7134      	strb	r4, [r6, #4]
 800251e:	6029      	str	r1, [r5, #0]
 8002520:	812c      	strh	r4, [r5, #8]
 8002522:	80ec      	strh	r4, [r5, #6]
 8002524:	822b      	strh	r3, [r5, #16]
 8002526:	4bad      	ldr	r3, [pc, #692]	; (80027dc <main+0x2e4>)
 8002528:	f8df 82b4 	ldr.w	r8, [pc, #692]	; 80027e0 <main+0x2e8>
 800252c:	601a      	str	r2, [r3, #0]
 800252e:	f44f 027f 	mov.w	r2, #16711680	; 0xff0000
 8002532:	80dc      	strh	r4, [r3, #6]
 8002534:	609a      	str	r2, [r3, #8]
 8002536:	4bab      	ldr	r3, [pc, #684]	; (80027e4 <main+0x2ec>)
 8002538:	48ab      	ldr	r0, [pc, #684]	; (80027e8 <main+0x2f0>)
 800253a:	f8c8 3000 	str.w	r3, [r8]
 800253e:	4bab      	ldr	r3, [pc, #684]	; (80027ec <main+0x2f4>)
 8002540:	f8c8 2008 	str.w	r2, [r8, #8]
 8002544:	6018      	str	r0, [r3, #0]
 8002546:	2028      	movs	r0, #40	; 0x28
 8002548:	609a      	str	r2, [r3, #8]
 800254a:	4aa9      	ldr	r2, [pc, #676]	; (80027f0 <main+0x2f8>)
 800254c:	80dc      	strh	r4, [r3, #6]
 800254e:	7014      	strb	r4, [r2, #0]
 8002550:	4aa8      	ldr	r2, [pc, #672]	; (80027f4 <main+0x2fc>)
 8002552:	3306      	adds	r3, #6
 8002554:	7010      	strb	r0, [r2, #0]
 8002556:	f44f 70fa 	mov.w	r0, #500	; 0x1f4
 800255a:	4aa7      	ldr	r2, [pc, #668]	; (80027f8 <main+0x300>)
 800255c:	f04f 0a10 	mov.w	sl, #16
 8002560:	8010      	strh	r0, [r2, #0]
 8002562:	4aa6      	ldr	r2, [pc, #664]	; (80027fc <main+0x304>)
 8002564:	48a6      	ldr	r0, [pc, #664]	; (8002800 <main+0x308>)
 8002566:	60d3      	str	r3, [r2, #12]
 8002568:	f44f 7380 	mov.w	r3, #256	; 0x100
 800256c:	6010      	str	r0, [r2, #0]
 800256e:	4fa5      	ldr	r7, [pc, #660]	; (8002804 <main+0x30c>)
 8002570:	48a5      	ldr	r0, [pc, #660]	; (8002808 <main+0x310>)
 8002572:	f8df b298 	ldr.w	fp, [pc, #664]	; 800280c <main+0x314>
 8002576:	8213      	strh	r3, [r2, #16]
 8002578:	e9c2 0101 	strd	r0, r1, [r2, #4]
 800257c:	703c      	strb	r4, [r7, #0]
 800257e:	712c      	strb	r4, [r5, #4]
 8002580:	f8a8 4006 	strh.w	r4, [r8, #6]
 8002584:	f7ff ff76 	bl	8002474 <SystemClock_Config>
 8002588:	4621      	mov	r1, r4
 800258a:	4652      	mov	r2, sl
 800258c:	a80b      	add	r0, sp, #44	; 0x2c
 800258e:	f005 fb39 	bl	8007c04 <memset>
 8002592:	f8db 2018 	ldr.w	r2, [fp, #24]
 8002596:	f44f 5100 	mov.w	r1, #8192	; 0x2000
 800259a:	ea42 020a 	orr.w	r2, r2, sl
 800259e:	f8cb 2018 	str.w	r2, [fp, #24]
 80025a2:	f8db 2018 	ldr.w	r2, [fp, #24]
 80025a6:	489a      	ldr	r0, [pc, #616]	; (8002810 <main+0x318>)
 80025a8:	ea02 020a 	and.w	r2, r2, sl
 80025ac:	9201      	str	r2, [sp, #4]
 80025ae:	9a01      	ldr	r2, [sp, #4]
 80025b0:	f8db 2018 	ldr.w	r2, [fp, #24]
 80025b4:	f04f 0901 	mov.w	r9, #1
 80025b8:	f042 0220 	orr.w	r2, r2, #32
 80025bc:	f8cb 2018 	str.w	r2, [fp, #24]
 80025c0:	f8db 2018 	ldr.w	r2, [fp, #24]
 80025c4:	f002 0220 	and.w	r2, r2, #32
 80025c8:	9202      	str	r2, [sp, #8]
 80025ca:	9a02      	ldr	r2, [sp, #8]
 80025cc:	f8db 2018 	ldr.w	r2, [fp, #24]
 80025d0:	f042 0204 	orr.w	r2, r2, #4
 80025d4:	f8cb 2018 	str.w	r2, [fp, #24]
 80025d8:	f8db 2018 	ldr.w	r2, [fp, #24]
 80025dc:	f002 0204 	and.w	r2, r2, #4
 80025e0:	9203      	str	r2, [sp, #12]
 80025e2:	9a03      	ldr	r2, [sp, #12]
 80025e4:	f8db 2018 	ldr.w	r2, [fp, #24]
 80025e8:	f042 0208 	orr.w	r2, r2, #8
 80025ec:	f8cb 2018 	str.w	r2, [fp, #24]
 80025f0:	f8db 2018 	ldr.w	r2, [fp, #24]
 80025f4:	f002 0208 	and.w	r2, r2, #8
 80025f8:	9204      	str	r2, [sp, #16]
 80025fa:	9a04      	ldr	r2, [sp, #16]
 80025fc:	4622      	mov	r2, r4
 80025fe:	f001 fa43 	bl	8003a88 <HAL_GPIO_WritePin>
 8002602:	4622      	mov	r2, r4
 8002604:	2122      	movs	r1, #34	; 0x22
 8002606:	4883      	ldr	r0, [pc, #524]	; (8002814 <main+0x31c>)
 8002608:	f001 fa3e 	bl	8003a88 <HAL_GPIO_WritePin>
 800260c:	f44f 5200 	mov.w	r2, #8192	; 0x2000
 8002610:	2302      	movs	r3, #2
 8002612:	487f      	ldr	r0, [pc, #508]	; (8002810 <main+0x318>)
 8002614:	a90b      	add	r1, sp, #44	; 0x2c
 8002616:	e9cd 290b 	strd	r2, r9, [sp, #44]	; 0x2c
 800261a:	940d      	str	r4, [sp, #52]	; 0x34
 800261c:	930e      	str	r3, [sp, #56]	; 0x38
 800261e:	f001 f959 	bl	80038d4 <HAL_GPIO_Init>
 8002622:	2302      	movs	r3, #2
 8002624:	2222      	movs	r2, #34	; 0x22
 8002626:	487b      	ldr	r0, [pc, #492]	; (8002814 <main+0x31c>)
 8002628:	a90b      	add	r1, sp, #44	; 0x2c
 800262a:	930e      	str	r3, [sp, #56]	; 0x38
 800262c:	e9cd 290b 	strd	r2, r9, [sp, #44]	; 0x2c
 8002630:	940d      	str	r4, [sp, #52]	; 0x34
 8002632:	f001 f94f 	bl	80038d4 <HAL_GPIO_Init>
 8002636:	4a78      	ldr	r2, [pc, #480]	; (8002818 <main+0x320>)
 8002638:	4876      	ldr	r0, [pc, #472]	; (8002814 <main+0x31c>)
 800263a:	a90b      	add	r1, sp, #44	; 0x2c
 800263c:	e9cd 290c 	strd	r2, r9, [sp, #48]	; 0x30
 8002640:	f8cd a02c 	str.w	sl, [sp, #44]	; 0x2c
 8002644:	f001 f946 	bl	80038d4 <HAL_GPIO_Init>
 8002648:	4622      	mov	r2, r4
 800264a:	4621      	mov	r1, r4
 800264c:	200a      	movs	r0, #10
 800264e:	f000 ff83 	bl	8003558 <HAL_NVIC_SetPriority>
 8002652:	200a      	movs	r0, #10
 8002654:	f000 ffb0 	bl	80035b8 <HAL_NVIC_EnableIRQ>
 8002658:	f8db 2014 	ldr.w	r2, [fp, #20]
 800265c:	4621      	mov	r1, r4
 800265e:	ea42 0209 	orr.w	r2, r2, r9
 8002662:	f8cb 2014 	str.w	r2, [fp, #20]
 8002666:	f8db 3014 	ldr.w	r3, [fp, #20]
 800266a:	4622      	mov	r2, r4
 800266c:	ea03 0309 	and.w	r3, r3, r9
 8002670:	200b      	movs	r0, #11
 8002672:	9300      	str	r3, [sp, #0]
 8002674:	9b00      	ldr	r3, [sp, #0]
 8002676:	f000 ff6f 	bl	8003558 <HAL_NVIC_SetPriority>
 800267a:	200b      	movs	r0, #11
 800267c:	f000 ff9c 	bl	80035b8 <HAL_NVIC_EnableIRQ>
 8002680:	f8df b198 	ldr.w	fp, [pc, #408]	; 800281c <main+0x324>
 8002684:	4a66      	ldr	r2, [pc, #408]	; (8002820 <main+0x328>)
 8002686:	f44f 7380 	mov.w	r3, #256	; 0x100
 800268a:	e9cd 440b 	strd	r4, r4, [sp, #44]	; 0x2c
 800268e:	940d      	str	r4, [sp, #52]	; 0x34
 8002690:	f8cb 2000 	str.w	r2, [fp]
 8002694:	f88b 400c 	strb.w	r4, [fp, #12]
 8002698:	f44f 2260 	mov.w	r2, #917504	; 0xe0000
 800269c:	f88b 4014 	strb.w	r4, [fp, #20]
 80026a0:	f8cb 4004 	str.w	r4, [fp, #4]
 80026a4:	2408      	movs	r4, #8
 80026a6:	4658      	mov	r0, fp
 80026a8:	f8cb 3008 	str.w	r3, [fp, #8]
 80026ac:	f8cb 201c 	str.w	r2, [fp, #28]
 80026b0:	f8cb 4010 	str.w	r4, [fp, #16]
 80026b4:	f000 febe 	bl	8003434 <HAL_ADC_Init>
 80026b8:	b108      	cbz	r0, 80026be <main+0x1c6>
 80026ba:	b672      	cpsid	i
 80026bc:	e7fe      	b.n	80026bc <main+0x1c4>
 80026be:	e9cd 090b 	strd	r0, r9, [sp, #44]	; 0x2c
 80026c2:	900d      	str	r0, [sp, #52]	; 0x34
 80026c4:	a90b      	add	r1, sp, #44	; 0x2c
 80026c6:	4658      	mov	r0, fp
 80026c8:	f000 fd46 	bl	8003158 <HAL_ADC_ConfigChannel>
 80026cc:	b108      	cbz	r0, 80026d2 <main+0x1da>
 80026ce:	b672      	cpsid	i
 80026d0:	e7fe      	b.n	80026d0 <main+0x1d8>
 80026d2:	2302      	movs	r3, #2
 80026d4:	4658      	mov	r0, fp
 80026d6:	a90b      	add	r1, sp, #44	; 0x2c
 80026d8:	930c      	str	r3, [sp, #48]	; 0x30
 80026da:	f000 fd3d 	bl	8003158 <HAL_ADC_ConfigChannel>
 80026de:	b108      	cbz	r0, 80026e4 <main+0x1ec>
 80026e0:	b672      	cpsid	i
 80026e2:	e7fe      	b.n	80026e2 <main+0x1ea>
 80026e4:	2203      	movs	r2, #3
 80026e6:	4658      	mov	r0, fp
 80026e8:	a90b      	add	r1, sp, #44	; 0x2c
 80026ea:	920c      	str	r2, [sp, #48]	; 0x30
 80026ec:	f000 fd34 	bl	8003158 <HAL_ADC_ConfigChannel>
 80026f0:	b108      	cbz	r0, 80026f6 <main+0x1fe>
 80026f2:	b672      	cpsid	i
 80026f4:	e7fe      	b.n	80026f4 <main+0x1fc>
 80026f6:	2204      	movs	r2, #4
 80026f8:	4658      	mov	r0, fp
 80026fa:	a90b      	add	r1, sp, #44	; 0x2c
 80026fc:	920c      	str	r2, [sp, #48]	; 0x30
 80026fe:	f000 fd2b 	bl	8003158 <HAL_ADC_ConfigChannel>
 8002702:	b108      	cbz	r0, 8002708 <main+0x210>
 8002704:	b672      	cpsid	i
 8002706:	e7fe      	b.n	8002706 <main+0x20e>
 8002708:	2205      	movs	r2, #5
 800270a:	4658      	mov	r0, fp
 800270c:	a90b      	add	r1, sp, #44	; 0x2c
 800270e:	920c      	str	r2, [sp, #48]	; 0x30
 8002710:	f000 fd22 	bl	8003158 <HAL_ADC_ConfigChannel>
 8002714:	b108      	cbz	r0, 800271a <main+0x222>
 8002716:	b672      	cpsid	i
 8002718:	e7fe      	b.n	8002718 <main+0x220>
 800271a:	2206      	movs	r2, #6
 800271c:	4658      	mov	r0, fp
 800271e:	a90b      	add	r1, sp, #44	; 0x2c
 8002720:	920c      	str	r2, [sp, #48]	; 0x30
 8002722:	f000 fd19 	bl	8003158 <HAL_ADC_ConfigChannel>
 8002726:	b108      	cbz	r0, 800272c <main+0x234>
 8002728:	b672      	cpsid	i
 800272a:	e7fe      	b.n	800272a <main+0x232>
 800272c:	2207      	movs	r2, #7
 800272e:	4658      	mov	r0, fp
 8002730:	a90b      	add	r1, sp, #44	; 0x2c
 8002732:	920c      	str	r2, [sp, #48]	; 0x30
 8002734:	f000 fd10 	bl	8003158 <HAL_ADC_ConfigChannel>
 8002738:	b108      	cbz	r0, 800273e <main+0x246>
 800273a:	b672      	cpsid	i
 800273c:	e7fe      	b.n	800273c <main+0x244>
 800273e:	4658      	mov	r0, fp
 8002740:	a90b      	add	r1, sp, #44	; 0x2c
 8002742:	940c      	str	r4, [sp, #48]	; 0x30
 8002744:	f000 fd08 	bl	8003158 <HAL_ADC_ConfigChannel>
 8002748:	4604      	mov	r4, r0
 800274a:	b108      	cbz	r0, 8002750 <main+0x258>
 800274c:	b672      	cpsid	i
 800274e:	e7fe      	b.n	800274e <main+0x256>
 8002750:	4601      	mov	r1, r0
 8002752:	4652      	mov	r2, sl
 8002754:	a807      	add	r0, sp, #28
 8002756:	f005 fa55 	bl	8007c04 <memset>
 800275a:	221c      	movs	r2, #28
 800275c:	4621      	mov	r1, r4
 800275e:	a80b      	add	r0, sp, #44	; 0x2c
 8002760:	e9cd 4405 	strd	r4, r4, [sp, #20]
 8002764:	f005 fa4e 	bl	8007c04 <memset>
 8002768:	f240 23cf 	movw	r3, #719	; 0x2cf
 800276c:	482d      	ldr	r0, [pc, #180]	; (8002824 <main+0x32c>)
 800276e:	f8df 90b8 	ldr.w	r9, [pc, #184]	; 8002828 <main+0x330>
 8002772:	6084      	str	r4, [r0, #8]
 8002774:	e9c0 9300 	strd	r9, r3, [r0]
 8002778:	f44f 737a 	mov.w	r3, #1000	; 0x3e8
 800277c:	6184      	str	r4, [r0, #24]
 800277e:	e9c0 3403 	strd	r3, r4, [r0, #12]
 8002782:	f003 f935 	bl	80059f0 <HAL_TIM_Base_Init>
 8002786:	b108      	cbz	r0, 800278c <main+0x294>
 8002788:	b672      	cpsid	i
 800278a:	e7fe      	b.n	800278a <main+0x292>
 800278c:	f44f 5a80 	mov.w	sl, #4096	; 0x1000
 8002790:	4824      	ldr	r0, [pc, #144]	; (8002824 <main+0x32c>)
 8002792:	a907      	add	r1, sp, #28
 8002794:	f8cd a01c 	str.w	sl, [sp, #28]
 8002798:	f003 fa11 	bl	8005bbe <HAL_TIM_ConfigClockSource>
 800279c:	b108      	cbz	r0, 80027a2 <main+0x2aa>
 800279e:	b672      	cpsid	i
 80027a0:	e7fe      	b.n	80027a0 <main+0x2a8>
 80027a2:	4820      	ldr	r0, [pc, #128]	; (8002824 <main+0x32c>)
 80027a4:	f003 f950 	bl	8005a48 <HAL_TIM_PWM_Init>
 80027a8:	b108      	cbz	r0, 80027ae <main+0x2b6>
 80027aa:	b672      	cpsid	i
 80027ac:	e7fe      	b.n	80027ac <main+0x2b4>
 80027ae:	e9cd 0005 	strd	r0, r0, [sp, #20]
 80027b2:	a905      	add	r1, sp, #20
 80027b4:	481b      	ldr	r0, [pc, #108]	; (8002824 <main+0x32c>)
 80027b6:	f003 fafb 	bl	8005db0 <HAL_TIMEx_MasterConfigSynchronization>
 80027ba:	4602      	mov	r2, r0
 80027bc:	b3b0      	cbz	r0, 800282c <main+0x334>
 80027be:	b672      	cpsid	i
 80027c0:	e7fe      	b.n	80027c0 <main+0x2c8>
 80027c2:	bf00      	nop
 80027c4:	20000b95 	.word	0x20000b95
 80027c8:	20000d78 	.word	0x20000d78
 80027cc:	2000096c 	.word	0x2000096c
 80027d0:	20000d64 	.word	0x20000d64
 80027d4:	2000076c 	.word	0x2000076c
 80027d8:	2000066c 	.word	0x2000066c
 80027dc:	20000d98 	.word	0x20000d98
 80027e0:	20000db0 	.word	0x20000db0
 80027e4:	20000a6c 	.word	0x20000a6c
 80027e8:	2000086c 	.word	0x2000086c
 80027ec:	20000da4 	.word	0x20000da4
 80027f0:	20000b6c 	.word	0x20000b6c
 80027f4:	20000d93 	.word	0x20000d93
 80027f8:	20000d96 	.word	0x20000d96
 80027fc:	2000062c 	.word	0x2000062c
 8002800:	08001729 	.word	0x08001729
 8002804:	20000b94 	.word	0x20000b94
 8002808:	08001705 	.word	0x08001705
 800280c:	40021000 	.word	0x40021000
 8002810:	40011000 	.word	0x40011000
 8002814:	40010c00 	.word	0x40010c00
 8002818:	10210000 	.word	0x10210000
 800281c:	20000ba0 	.word	0x20000ba0
 8002820:	40012400 	.word	0x40012400
 8002824:	20000cb0 	.word	0x20000cb0
 8002828:	40000800 	.word	0x40000800
 800282c:	2360      	movs	r3, #96	; 0x60
 800282e:	900d      	str	r0, [sp, #52]	; 0x34
 8002830:	e9cd 300b 	strd	r3, r0, [sp, #44]	; 0x2c
 8002834:	900f      	str	r0, [sp, #60]	; 0x3c
 8002836:	a90b      	add	r1, sp, #44	; 0x2c
 8002838:	4879      	ldr	r0, [pc, #484]	; (8002a20 <main+0x528>)
 800283a:	f003 f95d 	bl	8005af8 <HAL_TIM_PWM_ConfigChannel>
 800283e:	b108      	cbz	r0, 8002844 <main+0x34c>
 8002840:	b672      	cpsid	i
 8002842:	e7fe      	b.n	8002842 <main+0x34a>
 8002844:	2204      	movs	r2, #4
 8002846:	4876      	ldr	r0, [pc, #472]	; (8002a20 <main+0x528>)
 8002848:	a90b      	add	r1, sp, #44	; 0x2c
 800284a:	f003 f955 	bl	8005af8 <HAL_TIM_PWM_ConfigChannel>
 800284e:	b108      	cbz	r0, 8002854 <main+0x35c>
 8002850:	b672      	cpsid	i
 8002852:	e7fe      	b.n	8002852 <main+0x35a>
 8002854:	2208      	movs	r2, #8
 8002856:	4872      	ldr	r0, [pc, #456]	; (8002a20 <main+0x528>)
 8002858:	a90b      	add	r1, sp, #44	; 0x2c
 800285a:	f003 f94d 	bl	8005af8 <HAL_TIM_PWM_ConfigChannel>
 800285e:	b108      	cbz	r0, 8002864 <main+0x36c>
 8002860:	b672      	cpsid	i
 8002862:	e7fe      	b.n	8002862 <main+0x36a>
 8002864:	220c      	movs	r2, #12
 8002866:	486e      	ldr	r0, [pc, #440]	; (8002a20 <main+0x528>)
 8002868:	a90b      	add	r1, sp, #44	; 0x2c
 800286a:	f003 f945 	bl	8005af8 <HAL_TIM_PWM_ConfigChannel>
 800286e:	4604      	mov	r4, r0
 8002870:	b108      	cbz	r0, 8002876 <main+0x37e>
 8002872:	b672      	cpsid	i
 8002874:	e7fe      	b.n	8002874 <main+0x37c>
 8002876:	486a      	ldr	r0, [pc, #424]	; (8002a20 <main+0x528>)
 8002878:	f000 faa2 	bl	8002dc0 <HAL_TIM_MspPostInit>
 800287c:	2210      	movs	r2, #16
 800287e:	4621      	mov	r1, r4
 8002880:	a80b      	add	r0, sp, #44	; 0x2c
 8002882:	f005 f9bf 	bl	8007c04 <memset>
 8002886:	f04f 4380 	mov.w	r3, #1073741824	; 0x40000000
 800288a:	f8df 9198 	ldr.w	r9, [pc, #408]	; 8002a24 <main+0x52c>
 800288e:	e9cd 4407 	strd	r4, r4, [sp, #28]
 8002892:	e9c9 3400 	strd	r3, r4, [r9]
 8002896:	f244 6350 	movw	r3, #18000	; 0x4650
 800289a:	4648      	mov	r0, r9
 800289c:	e9c9 3403 	strd	r3, r4, [r9, #12]
 80028a0:	f8c9 4008 	str.w	r4, [r9, #8]
 80028a4:	f8c9 4018 	str.w	r4, [r9, #24]
 80028a8:	f003 f8a2 	bl	80059f0 <HAL_TIM_Base_Init>
 80028ac:	b108      	cbz	r0, 80028b2 <main+0x3ba>
 80028ae:	b672      	cpsid	i
 80028b0:	e7fe      	b.n	80028b0 <main+0x3b8>
 80028b2:	4648      	mov	r0, r9
 80028b4:	a90b      	add	r1, sp, #44	; 0x2c
 80028b6:	f8cd a02c 	str.w	sl, [sp, #44]	; 0x2c
 80028ba:	f003 f980 	bl	8005bbe <HAL_TIM_ConfigClockSource>
 80028be:	b108      	cbz	r0, 80028c4 <main+0x3cc>
 80028c0:	b672      	cpsid	i
 80028c2:	e7fe      	b.n	80028c2 <main+0x3ca>
 80028c4:	e9cd 0007 	strd	r0, r0, [sp, #28]
 80028c8:	a907      	add	r1, sp, #28
 80028ca:	4648      	mov	r0, r9
 80028cc:	f003 fa70 	bl	8005db0 <HAL_TIMEx_MasterConfigSynchronization>
 80028d0:	b108      	cbz	r0, 80028d6 <main+0x3de>
 80028d2:	b672      	cpsid	i
 80028d4:	e7fe      	b.n	80028d4 <main+0x3dc>
 80028d6:	4854      	ldr	r0, [pc, #336]	; (8002a28 <main+0x530>)
 80028d8:	4b54      	ldr	r3, [pc, #336]	; (8002a2c <main+0x534>)
 80028da:	f8df e154 	ldr.w	lr, [pc, #340]	; 8002a30 <main+0x538>
 80028de:	f44f 4280 	mov.w	r2, #16384	; 0x4000
 80028e2:	e9c0 e300 	strd	lr, r3, [r0]
 80028e6:	2300      	movs	r3, #0
 80028e8:	e9c0 3302 	strd	r3, r3, [r0, #8]
 80028ec:	e9c0 2304 	strd	r2, r3, [r0, #16]
 80028f0:	e9c0 3306 	strd	r3, r3, [r0, #24]
 80028f4:	6203      	str	r3, [r0, #32]
 80028f6:	f001 fad7 	bl	8003ea8 <HAL_I2C_Init>
 80028fa:	b108      	cbz	r0, 8002900 <main+0x408>
 80028fc:	b672      	cpsid	i
 80028fe:	e7fe      	b.n	80028fe <main+0x406>
 8002900:	f44f 33e1 	mov.w	r3, #115200	; 0x1c200
 8002904:	4c4b      	ldr	r4, [pc, #300]	; (8002a34 <main+0x53c>)
 8002906:	f8df c130 	ldr.w	ip, [pc, #304]	; 8002a38 <main+0x540>
 800290a:	e9c4 0002 	strd	r0, r0, [r4, #8]
 800290e:	e9c4 c300 	strd	ip, r3, [r4]
 8002912:	230c      	movs	r3, #12
 8002914:	6120      	str	r0, [r4, #16]
 8002916:	e9c4 3005 	strd	r3, r0, [r4, #20]
 800291a:	61e0      	str	r0, [r4, #28]
 800291c:	4620      	mov	r0, r4
 800291e:	f003 fadf 	bl	8005ee0 <HAL_UART_Init>
 8002922:	4681      	mov	r9, r0
 8002924:	b108      	cbz	r0, 800292a <main+0x432>
 8002926:	b672      	cpsid	i
 8002928:	e7fe      	b.n	8002928 <main+0x430>
 800292a:	f004 ff13 	bl	8007754 <MX_USB_DEVICE_Init>
 800292e:	f44f 707a 	mov.w	r0, #1000	; 0x3e8
 8002932:	f000 fb51 	bl	8002fd8 <HAL_Delay>
 8002936:	4841      	ldr	r0, [pc, #260]	; (8002a3c <main+0x544>)
 8002938:	f004 ff76 	bl	8007828 <CDC_Attach_RxFun>
 800293c:	783b      	ldrb	r3, [r7, #0]
 800293e:	4840      	ldr	r0, [pc, #256]	; (8002a40 <main+0x548>)
 8002940:	f369 0382 	bfi	r3, r9, #2, #1
 8002944:	703b      	strb	r3, [r7, #0]
 8002946:	f7fe f93f 	bl	8000bc8 <ESP01_Init>
 800294a:	493e      	ldr	r1, [pc, #248]	; (8002a44 <main+0x54c>)
 800294c:	483e      	ldr	r0, [pc, #248]	; (8002a48 <main+0x550>)
 800294e:	f7fe f82b 	bl	80009a8 <ESP01_SetWIFI>
 8002952:	4b3e      	ldr	r3, [pc, #248]	; (8002a4c <main+0x554>)
 8002954:	483e      	ldr	r0, [pc, #248]	; (8002a50 <main+0x558>)
 8002956:	881a      	ldrh	r2, [r3, #0]
 8002958:	4b3e      	ldr	r3, [pc, #248]	; (8002a54 <main+0x55c>)
 800295a:	f8df 90fc 	ldr.w	r9, [pc, #252]	; 8002a58 <main+0x560>
 800295e:	8819      	ldrh	r1, [r3, #0]
 8002960:	f7fe f84c 	bl	80009fc <ESP01_StartUDP>
 8002964:	483d      	ldr	r0, [pc, #244]	; (8002a5c <main+0x564>)
 8002966:	f7fe fd5d 	bl	8001424 <ESP01_AttachChangeState>
 800296a:	483d      	ldr	r0, [pc, #244]	; (8002a60 <main+0x568>)
 800296c:	f7fe fd60 	bl	8001430 <ESP01_AttachDebugStr>
 8002970:	6829      	ldr	r1, [r5, #0]
 8002972:	88eb      	ldrh	r3, [r5, #6]
 8002974:	2201      	movs	r2, #1
 8002976:	b29b      	uxth	r3, r3
 8002978:	4419      	add	r1, r3
 800297a:	4620      	mov	r0, r4
 800297c:	f003 fca9 	bl	80062d2 <HAL_UART_Receive_IT>
 8002980:	4828      	ldr	r0, [pc, #160]	; (8002a24 <main+0x52c>)
 8002982:	f002 ff2b 	bl	80057dc <HAL_TIM_Base_Start_IT>
 8002986:	f7ff faaf 	bl	8001ee8 <PWM_init>
 800298a:	f7fe fd57 	bl	800143c <MPU6050_Init>
 800298e:	f000 f8dd 	bl	8002b4c <sh1106_Init>
 8002992:	f8df a0d0 	ldr.w	sl, [pc, #208]	; 8002a64 <main+0x56c>
 8002996:	4c34      	ldr	r4, [pc, #208]	; (8002a68 <main+0x570>)
 8002998:	f7fe f962 	bl	8000c60 <ESP01_Task>
 800299c:	783b      	ldrb	r3, [r7, #0]
 800299e:	0719      	lsls	r1, r3, #28
 80029a0:	d506      	bpl.n	80029b0 <main+0x4b8>
 80029a2:	f36f 03c3 	bfc	r3, #3, #1
 80029a6:	703b      	strb	r3, [r7, #0]
 80029a8:	f7ff fabc 	bl	8001f24 <On10ms>
 80029ac:	f7ff fd50 	bl	8002450 <RobotWorkout>
 80029b0:	783b      	ldrb	r3, [r7, #0]
 80029b2:	06da      	lsls	r2, r3, #27
 80029b4:	d504      	bpl.n	80029c0 <main+0x4c8>
 80029b6:	f36f 1304 	bfc	r3, #4, #1
 80029ba:	703b      	strb	r3, [r7, #0]
 80029bc:	f7ff faea 	bl	8001f94 <On5s>
 80029c0:	7cb3      	ldrb	r3, [r6, #18]
 80029c2:	b11b      	cbz	r3, 80029cc <main+0x4d4>
 80029c4:	4649      	mov	r1, r9
 80029c6:	4650      	mov	r0, sl
 80029c8:	f7ff f810 	bl	80019ec <DecodeCMD>
 80029cc:	88f2      	ldrh	r2, [r6, #6]
 80029ce:	8933      	ldrh	r3, [r6, #8]
 80029d0:	b292      	uxth	r2, r2
 80029d2:	b29b      	uxth	r3, r3
 80029d4:	429a      	cmp	r2, r3
 80029d6:	d003      	beq.n	80029e0 <main+0x4e8>
 80029d8:	4649      	mov	r1, r9
 80029da:	4650      	mov	r0, sl
 80029dc:	f7fe ff12 	bl	8001804 <DecodeHeader>
 80029e0:	f8b8 2006 	ldrh.w	r2, [r8, #6]
 80029e4:	f8b8 3008 	ldrh.w	r3, [r8, #8]
 80029e8:	429a      	cmp	r2, r3
 80029ea:	d001      	beq.n	80029f0 <main+0x4f8>
 80029ec:	f7ff f9da 	bl	8001da4 <TransmitUSB>
 80029f0:	7cab      	ldrb	r3, [r5, #18]
 80029f2:	b11b      	cbz	r3, 80029fc <main+0x504>
 80029f4:	4621      	mov	r1, r4
 80029f6:	481d      	ldr	r0, [pc, #116]	; (8002a6c <main+0x574>)
 80029f8:	f7fe fff8 	bl	80019ec <DecodeCMD>
 80029fc:	88ea      	ldrh	r2, [r5, #6]
 80029fe:	892b      	ldrh	r3, [r5, #8]
 8002a00:	b292      	uxth	r2, r2
 8002a02:	b29b      	uxth	r3, r3
 8002a04:	429a      	cmp	r2, r3
 8002a06:	d003      	beq.n	8002a10 <main+0x518>
 8002a08:	4621      	mov	r1, r4
 8002a0a:	4818      	ldr	r0, [pc, #96]	; (8002a6c <main+0x574>)
 8002a0c:	f7fe fefa 	bl	8001804 <DecodeHeader>
 8002a10:	88e2      	ldrh	r2, [r4, #6]
 8002a12:	8923      	ldrh	r3, [r4, #8]
 8002a14:	429a      	cmp	r2, r3
 8002a16:	d0bf      	beq.n	8002998 <main+0x4a0>
 8002a18:	f7ff fa0c 	bl	8001e34 <TransmitUSART>
 8002a1c:	e7bc      	b.n	8002998 <main+0x4a0>
 8002a1e:	bf00      	nop
 8002a20:	20000cb0 	.word	0x20000cb0
 8002a24:	20000c68 	.word	0x20000c68
 8002a28:	20000c14 	.word	0x20000c14
 8002a2c:	00061a80 	.word	0x00061a80
 8002a30:	40005800 	.word	0x40005800
 8002a34:	20000cf8 	.word	0x20000cf8
 8002a38:	40013800 	.word	0x40013800
 8002a3c:	080016c9 	.word	0x080016c9
 8002a40:	2000062c 	.word	0x2000062c
 8002a44:	08007fc1 	.word	0x08007fc1
 8002a48:	08007fdf 	.word	0x08007fdf
 8002a4c:	2000000c 	.word	0x2000000c
 8002a50:	08007fd0 	.word	0x08007fd0
 8002a54:	2000000e 	.word	0x2000000e
 8002a58:	20000db0 	.word	0x20000db0
 8002a5c:	08001d4d 	.word	0x08001d4d
 8002a60:	08001725 	.word	0x08001725
 8002a64:	20000d78 	.word	0x20000d78
 8002a68:	20000da4 	.word	0x20000da4
 8002a6c:	20000d64 	.word	0x20000d64

08002a70 <Error_Handler>:
 8002a70:	b672      	cpsid	i
 8002a72:	e7fe      	b.n	8002a72 <Error_Handler+0x2>

08002a74 <sh1106_WriteCommand>:
 8002a74:	b57f      	push	{r0, r1, r2, r3, r4, r5, r6, lr}
 8002a76:	2301      	movs	r3, #1
 8002a78:	f04f 32ff 	mov.w	r2, #4294967295
 8002a7c:	e9cd 3201 	strd	r3, r2, [sp, #4]
 8002a80:	f10d 0217 	add.w	r2, sp, #23
 8002a84:	f88d 0017 	strb.w	r0, [sp, #23]
 8002a88:	9200      	str	r2, [sp, #0]
 8002a8a:	2178      	movs	r1, #120	; 0x78
 8002a8c:	2200      	movs	r2, #0
 8002a8e:	4803      	ldr	r0, [pc, #12]	; (8002a9c <sh1106_WriteCommand+0x28>)
 8002a90:	f001 fab2 	bl	8003ff8 <HAL_I2C_Mem_Write>
 8002a94:	b007      	add	sp, #28
 8002a96:	f85d fb04 	ldr.w	pc, [sp], #4
 8002a9a:	bf00      	nop
 8002a9c:	20000c14 	.word	0x20000c14

08002aa0 <sh1106_WriteData>:
 8002aa0:	b51f      	push	{r0, r1, r2, r3, r4, lr}
 8002aa2:	f04f 33ff 	mov.w	r3, #4294967295
 8002aa6:	b289      	uxth	r1, r1
 8002aa8:	e9cd 0100 	strd	r0, r1, [sp]
 8002aac:	9302      	str	r3, [sp, #8]
 8002aae:	2240      	movs	r2, #64	; 0x40
 8002ab0:	2301      	movs	r3, #1
 8002ab2:	2178      	movs	r1, #120	; 0x78
 8002ab4:	4802      	ldr	r0, [pc, #8]	; (8002ac0 <sh1106_WriteData+0x20>)
 8002ab6:	f001 fa9f 	bl	8003ff8 <HAL_I2C_Mem_Write>
 8002aba:	b005      	add	sp, #20
 8002abc:	f85d fb04 	ldr.w	pc, [sp], #4
 8002ac0:	20000c14 	.word	0x20000c14

08002ac4 <sh1106_Fill>:
 8002ac4:	2300      	movs	r3, #0
 8002ac6:	4906      	ldr	r1, [pc, #24]	; (8002ae0 <sh1106_Fill+0x1c>)
 8002ac8:	1e02      	subs	r2, r0, #0
 8002aca:	bf18      	it	ne
 8002acc:	2201      	movne	r2, #1
 8002ace:	3301      	adds	r3, #1
 8002ad0:	4252      	negs	r2, r2
 8002ad2:	f5b3 6f80 	cmp.w	r3, #1024	; 0x400
 8002ad6:	f801 2b01 	strb.w	r2, [r1], #1
 8002ada:	d1f5      	bne.n	8002ac8 <sh1106_Fill+0x4>
 8002adc:	4770      	bx	lr
 8002ade:	bf00      	nop
 8002ae0:	20000de6 	.word	0x20000de6

08002ae4 <sh1106_UpdateScreen>:
 8002ae4:	b538      	push	{r3, r4, r5, lr}
 8002ae6:	24b0      	movs	r4, #176	; 0xb0
 8002ae8:	4d0a      	ldr	r5, [pc, #40]	; (8002b14 <sh1106_UpdateScreen+0x30>)
 8002aea:	4620      	mov	r0, r4
 8002aec:	f7ff ffc2 	bl	8002a74 <sh1106_WriteCommand>
 8002af0:	2000      	movs	r0, #0
 8002af2:	f7ff ffbf 	bl	8002a74 <sh1106_WriteCommand>
 8002af6:	3401      	adds	r4, #1
 8002af8:	2010      	movs	r0, #16
 8002afa:	f7ff ffbb 	bl	8002a74 <sh1106_WriteCommand>
 8002afe:	b2e4      	uxtb	r4, r4
 8002b00:	4628      	mov	r0, r5
 8002b02:	2180      	movs	r1, #128	; 0x80
 8002b04:	f7ff ffcc 	bl	8002aa0 <sh1106_WriteData>
 8002b08:	2cb8      	cmp	r4, #184	; 0xb8
 8002b0a:	f105 0580 	add.w	r5, r5, #128	; 0x80
 8002b0e:	d1ec      	bne.n	8002aea <sh1106_UpdateScreen+0x6>
 8002b10:	bd38      	pop	{r3, r4, r5, pc}
 8002b12:	bf00      	nop
 8002b14:	20000de6 	.word	0x20000de6

08002b18 <sh1106_SetContrast>:
 8002b18:	b510      	push	{r4, lr}
 8002b1a:	4604      	mov	r4, r0
 8002b1c:	2081      	movs	r0, #129	; 0x81
 8002b1e:	f7ff ffa9 	bl	8002a74 <sh1106_WriteCommand>
 8002b22:	4620      	mov	r0, r4
 8002b24:	e8bd 4010 	ldmia.w	sp!, {r4, lr}
 8002b28:	f7ff bfa4 	b.w	8002a74 <sh1106_WriteCommand>

08002b2c <sh1106_SetDisplayOn>:
 8002b2c:	4602      	mov	r2, r0
 8002b2e:	2800      	cmp	r0, #0
 8002b30:	4603      	mov	r3, r0
 8002b32:	bf0c      	ite	eq
 8002b34:	4613      	moveq	r3, r2
 8002b36:	2301      	movne	r3, #1
 8002b38:	4a03      	ldr	r2, [pc, #12]	; (8002b48 <sh1106_SetDisplayOn+0x1c>)
 8002b3a:	bf14      	ite	ne
 8002b3c:	20af      	movne	r0, #175	; 0xaf
 8002b3e:	20ae      	moveq	r0, #174	; 0xae
 8002b40:	7153      	strb	r3, [r2, #5]
 8002b42:	f7ff bf97 	b.w	8002a74 <sh1106_WriteCommand>
 8002b46:	bf00      	nop
 8002b48:	20000de0 	.word	0x20000de0

08002b4c <sh1106_Init>:
 8002b4c:	b508      	push	{r3, lr}
 8002b4e:	2064      	movs	r0, #100	; 0x64
 8002b50:	f000 fa42 	bl	8002fd8 <HAL_Delay>
 8002b54:	2000      	movs	r0, #0
 8002b56:	f7ff ffe9 	bl	8002b2c <sh1106_SetDisplayOn>
 8002b5a:	2020      	movs	r0, #32
 8002b5c:	f7ff ff8a 	bl	8002a74 <sh1106_WriteCommand>
 8002b60:	2000      	movs	r0, #0
 8002b62:	f7ff ff87 	bl	8002a74 <sh1106_WriteCommand>
 8002b66:	20b0      	movs	r0, #176	; 0xb0
 8002b68:	f7ff ff84 	bl	8002a74 <sh1106_WriteCommand>
 8002b6c:	20c8      	movs	r0, #200	; 0xc8
 8002b6e:	f7ff ff81 	bl	8002a74 <sh1106_WriteCommand>
 8002b72:	2000      	movs	r0, #0
 8002b74:	f7ff ff7e 	bl	8002a74 <sh1106_WriteCommand>
 8002b78:	2010      	movs	r0, #16
 8002b7a:	f7ff ff7b 	bl	8002a74 <sh1106_WriteCommand>
 8002b7e:	2040      	movs	r0, #64	; 0x40
 8002b80:	f7ff ff78 	bl	8002a74 <sh1106_WriteCommand>
 8002b84:	20ff      	movs	r0, #255	; 0xff
 8002b86:	f7ff ffc7 	bl	8002b18 <sh1106_SetContrast>
 8002b8a:	20a1      	movs	r0, #161	; 0xa1
 8002b8c:	f7ff ff72 	bl	8002a74 <sh1106_WriteCommand>
 8002b90:	20a6      	movs	r0, #166	; 0xa6
 8002b92:	f7ff ff6f 	bl	8002a74 <sh1106_WriteCommand>
 8002b96:	20a8      	movs	r0, #168	; 0xa8
 8002b98:	f7ff ff6c 	bl	8002a74 <sh1106_WriteCommand>
 8002b9c:	203f      	movs	r0, #63	; 0x3f
 8002b9e:	f7ff ff69 	bl	8002a74 <sh1106_WriteCommand>
 8002ba2:	20a4      	movs	r0, #164	; 0xa4
 8002ba4:	f7ff ff66 	bl	8002a74 <sh1106_WriteCommand>
 8002ba8:	20d3      	movs	r0, #211	; 0xd3
 8002baa:	f7ff ff63 	bl	8002a74 <sh1106_WriteCommand>
 8002bae:	2000      	movs	r0, #0
 8002bb0:	f7ff ff60 	bl	8002a74 <sh1106_WriteCommand>
 8002bb4:	20d5      	movs	r0, #213	; 0xd5
 8002bb6:	f7ff ff5d 	bl	8002a74 <sh1106_WriteCommand>
 8002bba:	20f0      	movs	r0, #240	; 0xf0
 8002bbc:	f7ff ff5a 	bl	8002a74 <sh1106_WriteCommand>
 8002bc0:	20d9      	movs	r0, #217	; 0xd9
 8002bc2:	f7ff ff57 	bl	8002a74 <sh1106_WriteCommand>
 8002bc6:	2022      	movs	r0, #34	; 0x22
 8002bc8:	f7ff ff54 	bl	8002a74 <sh1106_WriteCommand>
 8002bcc:	20da      	movs	r0, #218	; 0xda
 8002bce:	f7ff ff51 	bl	8002a74 <sh1106_WriteCommand>
 8002bd2:	2012      	movs	r0, #18
 8002bd4:	f7ff ff4e 	bl	8002a74 <sh1106_WriteCommand>
 8002bd8:	20db      	movs	r0, #219	; 0xdb
 8002bda:	f7ff ff4b 	bl	8002a74 <sh1106_WriteCommand>
 8002bde:	2020      	movs	r0, #32
 8002be0:	f7ff ff48 	bl	8002a74 <sh1106_WriteCommand>
 8002be4:	208d      	movs	r0, #141	; 0x8d
 8002be6:	f7ff ff45 	bl	8002a74 <sh1106_WriteCommand>
 8002bea:	2014      	movs	r0, #20
 8002bec:	f7ff ff42 	bl	8002a74 <sh1106_WriteCommand>
 8002bf0:	2001      	movs	r0, #1
 8002bf2:	f7ff ff9b 	bl	8002b2c <sh1106_SetDisplayOn>
 8002bf6:	2000      	movs	r0, #0
 8002bf8:	f7ff ff64 	bl	8002ac4 <sh1106_Fill>
 8002bfc:	f7ff ff72 	bl	8002ae4 <sh1106_UpdateScreen>
 8002c00:	2200      	movs	r2, #0
 8002c02:	4b03      	ldr	r3, [pc, #12]	; (8002c10 <sh1106_Init+0xc4>)
 8002c04:	801a      	strh	r2, [r3, #0]
 8002c06:	805a      	strh	r2, [r3, #2]
 8002c08:	2201      	movs	r2, #1
 8002c0a:	711a      	strb	r2, [r3, #4]
 8002c0c:	bd08      	pop	{r3, pc}
 8002c0e:	bf00      	nop
 8002c10:	20000de0 	.word	0x20000de0

08002c14 <HAL_MspInit>:
 8002c14:	4b0e      	ldr	r3, [pc, #56]	; (8002c50 <HAL_MspInit+0x3c>)
 8002c16:	b082      	sub	sp, #8
 8002c18:	699a      	ldr	r2, [r3, #24]
 8002c1a:	f042 0201 	orr.w	r2, r2, #1
 8002c1e:	619a      	str	r2, [r3, #24]
 8002c20:	699a      	ldr	r2, [r3, #24]
 8002c22:	f002 0201 	and.w	r2, r2, #1
 8002c26:	9200      	str	r2, [sp, #0]
 8002c28:	9a00      	ldr	r2, [sp, #0]
 8002c2a:	69da      	ldr	r2, [r3, #28]
 8002c2c:	f042 5280 	orr.w	r2, r2, #268435456	; 0x10000000
 8002c30:	61da      	str	r2, [r3, #28]
 8002c32:	69db      	ldr	r3, [r3, #28]
 8002c34:	4a07      	ldr	r2, [pc, #28]	; (8002c54 <HAL_MspInit+0x40>)
 8002c36:	f003 5380 	and.w	r3, r3, #268435456	; 0x10000000
 8002c3a:	9301      	str	r3, [sp, #4]
 8002c3c:	9b01      	ldr	r3, [sp, #4]
 8002c3e:	6853      	ldr	r3, [r2, #4]
 8002c40:	f023 63e0 	bic.w	r3, r3, #117440512	; 0x7000000
 8002c44:	f043 7300 	orr.w	r3, r3, #33554432	; 0x2000000
 8002c48:	6053      	str	r3, [r2, #4]
 8002c4a:	b002      	add	sp, #8
 8002c4c:	4770      	bx	lr
 8002c4e:	bf00      	nop
 8002c50:	40021000 	.word	0x40021000
 8002c54:	40010000 	.word	0x40010000

08002c58 <HAL_ADC_MspInit>:
 8002c58:	b530      	push	{r4, r5, lr}
 8002c5a:	4605      	mov	r5, r0
 8002c5c:	b087      	sub	sp, #28
 8002c5e:	2210      	movs	r2, #16
 8002c60:	2100      	movs	r1, #0
 8002c62:	a802      	add	r0, sp, #8
 8002c64:	f004 ffce 	bl	8007c04 <memset>
 8002c68:	682a      	ldr	r2, [r5, #0]
 8002c6a:	4b20      	ldr	r3, [pc, #128]	; (8002cec <HAL_ADC_MspInit+0x94>)
 8002c6c:	429a      	cmp	r2, r3
 8002c6e:	d13b      	bne.n	8002ce8 <HAL_ADC_MspInit+0x90>
 8002c70:	f503 436c 	add.w	r3, r3, #60416	; 0xec00
 8002c74:	699a      	ldr	r2, [r3, #24]
 8002c76:	481e      	ldr	r0, [pc, #120]	; (8002cf0 <HAL_ADC_MspInit+0x98>)
 8002c78:	f442 7200 	orr.w	r2, r2, #512	; 0x200
 8002c7c:	619a      	str	r2, [r3, #24]
 8002c7e:	699a      	ldr	r2, [r3, #24]
 8002c80:	a902      	add	r1, sp, #8
 8002c82:	f402 7200 	and.w	r2, r2, #512	; 0x200
 8002c86:	9200      	str	r2, [sp, #0]
 8002c88:	9a00      	ldr	r2, [sp, #0]
 8002c8a:	699a      	ldr	r2, [r3, #24]
 8002c8c:	4c19      	ldr	r4, [pc, #100]	; (8002cf4 <HAL_ADC_MspInit+0x9c>)
 8002c8e:	f042 0204 	orr.w	r2, r2, #4
 8002c92:	619a      	str	r2, [r3, #24]
 8002c94:	699b      	ldr	r3, [r3, #24]
 8002c96:	22ff      	movs	r2, #255	; 0xff
 8002c98:	f003 0304 	and.w	r3, r3, #4
 8002c9c:	9301      	str	r3, [sp, #4]
 8002c9e:	9b01      	ldr	r3, [sp, #4]
 8002ca0:	2303      	movs	r3, #3
 8002ca2:	e9cd 2302 	strd	r2, r3, [sp, #8]
 8002ca6:	f000 fe15 	bl	80038d4 <HAL_GPIO_Init>
 8002caa:	2080      	movs	r0, #128	; 0x80
 8002cac:	f44f 7280 	mov.w	r2, #256	; 0x100
 8002cb0:	2300      	movs	r3, #0
 8002cb2:	e9c4 0203 	strd	r0, r2, [r4, #12]
 8002cb6:	f44f 6280 	mov.w	r2, #1024	; 0x400
 8002cba:	490f      	ldr	r1, [pc, #60]	; (8002cf8 <HAL_ADC_MspInit+0xa0>)
 8002cbc:	4620      	mov	r0, r4
 8002cbe:	e9c4 1300 	strd	r1, r3, [r4]
 8002cc2:	e9c4 2305 	strd	r2, r3, [r4, #20]
 8002cc6:	60a3      	str	r3, [r4, #8]
 8002cc8:	61e3      	str	r3, [r4, #28]
 8002cca:	f000 fc97 	bl	80035fc <HAL_DMA_Init>
 8002cce:	b108      	cbz	r0, 8002cd4 <HAL_ADC_MspInit+0x7c>
 8002cd0:	f7ff fece 	bl	8002a70 <Error_Handler>
 8002cd4:	2200      	movs	r2, #0
 8002cd6:	2012      	movs	r0, #18
 8002cd8:	622c      	str	r4, [r5, #32]
 8002cda:	4611      	mov	r1, r2
 8002cdc:	6265      	str	r5, [r4, #36]	; 0x24
 8002cde:	f000 fc3b 	bl	8003558 <HAL_NVIC_SetPriority>
 8002ce2:	2012      	movs	r0, #18
 8002ce4:	f000 fc68 	bl	80035b8 <HAL_NVIC_EnableIRQ>
 8002ce8:	b007      	add	sp, #28
 8002cea:	bd30      	pop	{r4, r5, pc}
 8002cec:	40012400 	.word	0x40012400
 8002cf0:	40010800 	.word	0x40010800
 8002cf4:	20000bd0 	.word	0x20000bd0
 8002cf8:	40020008 	.word	0x40020008

08002cfc <HAL_I2C_MspInit>:
 8002cfc:	b510      	push	{r4, lr}
 8002cfe:	4604      	mov	r4, r0
 8002d00:	b086      	sub	sp, #24
 8002d02:	2210      	movs	r2, #16
 8002d04:	2100      	movs	r1, #0
 8002d06:	a802      	add	r0, sp, #8
 8002d08:	f004 ff7c 	bl	8007c04 <memset>
 8002d0c:	6822      	ldr	r2, [r4, #0]
 8002d0e:	4b11      	ldr	r3, [pc, #68]	; (8002d54 <HAL_I2C_MspInit+0x58>)
 8002d10:	429a      	cmp	r2, r3
 8002d12:	d11d      	bne.n	8002d50 <HAL_I2C_MspInit+0x54>
 8002d14:	4c10      	ldr	r4, [pc, #64]	; (8002d58 <HAL_I2C_MspInit+0x5c>)
 8002d16:	f44f 6240 	mov.w	r2, #3072	; 0xc00
 8002d1a:	69a3      	ldr	r3, [r4, #24]
 8002d1c:	480f      	ldr	r0, [pc, #60]	; (8002d5c <HAL_I2C_MspInit+0x60>)
 8002d1e:	f043 0308 	orr.w	r3, r3, #8
 8002d22:	61a3      	str	r3, [r4, #24]
 8002d24:	69a3      	ldr	r3, [r4, #24]
 8002d26:	a902      	add	r1, sp, #8
 8002d28:	f003 0308 	and.w	r3, r3, #8
 8002d2c:	9300      	str	r3, [sp, #0]
 8002d2e:	9b00      	ldr	r3, [sp, #0]
 8002d30:	2312      	movs	r3, #18
 8002d32:	e9cd 2302 	strd	r2, r3, [sp, #8]
 8002d36:	2303      	movs	r3, #3
 8002d38:	9305      	str	r3, [sp, #20]
 8002d3a:	f000 fdcb 	bl	80038d4 <HAL_GPIO_Init>
 8002d3e:	69e3      	ldr	r3, [r4, #28]
 8002d40:	f443 0380 	orr.w	r3, r3, #4194304	; 0x400000
 8002d44:	61e3      	str	r3, [r4, #28]
 8002d46:	69e3      	ldr	r3, [r4, #28]
 8002d48:	f403 0380 	and.w	r3, r3, #4194304	; 0x400000
 8002d4c:	9301      	str	r3, [sp, #4]
 8002d4e:	9b01      	ldr	r3, [sp, #4]
 8002d50:	b006      	add	sp, #24
 8002d52:	bd10      	pop	{r4, pc}
 8002d54:	40005800 	.word	0x40005800
 8002d58:	40021000 	.word	0x40021000
 8002d5c:	40010c00 	.word	0x40010c00

08002d60 <HAL_TIM_Base_MspInit>:
 8002d60:	6803      	ldr	r3, [r0, #0]
 8002d62:	b507      	push	{r0, r1, r2, lr}
 8002d64:	f1b3 4f80 	cmp.w	r3, #1073741824	; 0x40000000
 8002d68:	d115      	bne.n	8002d96 <HAL_TIM_Base_MspInit+0x36>
 8002d6a:	f503 3304 	add.w	r3, r3, #135168	; 0x21000
 8002d6e:	69da      	ldr	r2, [r3, #28]
 8002d70:	201c      	movs	r0, #28
 8002d72:	f042 0201 	orr.w	r2, r2, #1
 8002d76:	61da      	str	r2, [r3, #28]
 8002d78:	2200      	movs	r2, #0
 8002d7a:	69db      	ldr	r3, [r3, #28]
 8002d7c:	4611      	mov	r1, r2
 8002d7e:	f003 0301 	and.w	r3, r3, #1
 8002d82:	9300      	str	r3, [sp, #0]
 8002d84:	9b00      	ldr	r3, [sp, #0]
 8002d86:	f000 fbe7 	bl	8003558 <HAL_NVIC_SetPriority>
 8002d8a:	201c      	movs	r0, #28
 8002d8c:	b003      	add	sp, #12
 8002d8e:	f85d eb04 	ldr.w	lr, [sp], #4
 8002d92:	f000 bc11 	b.w	80035b8 <HAL_NVIC_EnableIRQ>
 8002d96:	4a08      	ldr	r2, [pc, #32]	; (8002db8 <HAL_TIM_Base_MspInit+0x58>)
 8002d98:	4293      	cmp	r3, r2
 8002d9a:	d109      	bne.n	8002db0 <HAL_TIM_Base_MspInit+0x50>
 8002d9c:	4b07      	ldr	r3, [pc, #28]	; (8002dbc <HAL_TIM_Base_MspInit+0x5c>)
 8002d9e:	69da      	ldr	r2, [r3, #28]
 8002da0:	f042 0204 	orr.w	r2, r2, #4
 8002da4:	61da      	str	r2, [r3, #28]
 8002da6:	69db      	ldr	r3, [r3, #28]
 8002da8:	f003 0304 	and.w	r3, r3, #4
 8002dac:	9301      	str	r3, [sp, #4]
 8002dae:	9b01      	ldr	r3, [sp, #4]
 8002db0:	b003      	add	sp, #12
 8002db2:	f85d fb04 	ldr.w	pc, [sp], #4
 8002db6:	bf00      	nop
 8002db8:	40000800 	.word	0x40000800
 8002dbc:	40021000 	.word	0x40021000

08002dc0 <HAL_TIM_MspPostInit>:
 8002dc0:	b510      	push	{r4, lr}
 8002dc2:	4604      	mov	r4, r0
 8002dc4:	b086      	sub	sp, #24
 8002dc6:	2210      	movs	r2, #16
 8002dc8:	2100      	movs	r1, #0
 8002dca:	a802      	add	r0, sp, #8
 8002dcc:	f004 ff1a 	bl	8007c04 <memset>
 8002dd0:	6822      	ldr	r2, [r4, #0]
 8002dd2:	4b0d      	ldr	r3, [pc, #52]	; (8002e08 <HAL_TIM_MspPostInit+0x48>)
 8002dd4:	429a      	cmp	r2, r3
 8002dd6:	d114      	bne.n	8002e02 <HAL_TIM_MspPostInit+0x42>
 8002dd8:	f503 3302 	add.w	r3, r3, #133120	; 0x20800
 8002ddc:	699a      	ldr	r2, [r3, #24]
 8002dde:	480b      	ldr	r0, [pc, #44]	; (8002e0c <HAL_TIM_MspPostInit+0x4c>)
 8002de0:	f042 0208 	orr.w	r2, r2, #8
 8002de4:	619a      	str	r2, [r3, #24]
 8002de6:	699b      	ldr	r3, [r3, #24]
 8002de8:	f44f 7270 	mov.w	r2, #960	; 0x3c0
 8002dec:	f003 0308 	and.w	r3, r3, #8
 8002df0:	9301      	str	r3, [sp, #4]
 8002df2:	9b01      	ldr	r3, [sp, #4]
 8002df4:	2302      	movs	r3, #2
 8002df6:	a902      	add	r1, sp, #8
 8002df8:	e9cd 2302 	strd	r2, r3, [sp, #8]
 8002dfc:	9305      	str	r3, [sp, #20]
 8002dfe:	f000 fd69 	bl	80038d4 <HAL_GPIO_Init>
 8002e02:	b006      	add	sp, #24
 8002e04:	bd10      	pop	{r4, pc}
 8002e06:	bf00      	nop
 8002e08:	40000800 	.word	0x40000800
 8002e0c:	40010c00 	.word	0x40010c00

08002e10 <HAL_UART_MspInit>:
 8002e10:	b510      	push	{r4, lr}
 8002e12:	4604      	mov	r4, r0
 8002e14:	b086      	sub	sp, #24
 8002e16:	2210      	movs	r2, #16
 8002e18:	2100      	movs	r1, #0
 8002e1a:	a802      	add	r0, sp, #8
 8002e1c:	f004 fef2 	bl	8007c04 <memset>
 8002e20:	6822      	ldr	r2, [r4, #0]
 8002e22:	4b1b      	ldr	r3, [pc, #108]	; (8002e90 <HAL_UART_MspInit+0x80>)
 8002e24:	429a      	cmp	r2, r3
 8002e26:	d130      	bne.n	8002e8a <HAL_UART_MspInit+0x7a>
 8002e28:	f503 4358 	add.w	r3, r3, #55296	; 0xd800
 8002e2c:	699a      	ldr	r2, [r3, #24]
 8002e2e:	4819      	ldr	r0, [pc, #100]	; (8002e94 <HAL_UART_MspInit+0x84>)
 8002e30:	f442 4280 	orr.w	r2, r2, #16384	; 0x4000
 8002e34:	619a      	str	r2, [r3, #24]
 8002e36:	699a      	ldr	r2, [r3, #24]
 8002e38:	a902      	add	r1, sp, #8
 8002e3a:	f402 4280 	and.w	r2, r2, #16384	; 0x4000
 8002e3e:	9200      	str	r2, [sp, #0]
 8002e40:	9a00      	ldr	r2, [sp, #0]
 8002e42:	699a      	ldr	r2, [r3, #24]
 8002e44:	2400      	movs	r4, #0
 8002e46:	f042 0204 	orr.w	r2, r2, #4
 8002e4a:	619a      	str	r2, [r3, #24]
 8002e4c:	699b      	ldr	r3, [r3, #24]
 8002e4e:	f44f 7200 	mov.w	r2, #512	; 0x200
 8002e52:	f003 0304 	and.w	r3, r3, #4
 8002e56:	9301      	str	r3, [sp, #4]
 8002e58:	9b01      	ldr	r3, [sp, #4]
 8002e5a:	2302      	movs	r3, #2
 8002e5c:	e9cd 2302 	strd	r2, r3, [sp, #8]
 8002e60:	2303      	movs	r3, #3
 8002e62:	9305      	str	r3, [sp, #20]
 8002e64:	f000 fd36 	bl	80038d4 <HAL_GPIO_Init>
 8002e68:	f44f 6380 	mov.w	r3, #1024	; 0x400
 8002e6c:	4809      	ldr	r0, [pc, #36]	; (8002e94 <HAL_UART_MspInit+0x84>)
 8002e6e:	a902      	add	r1, sp, #8
 8002e70:	e9cd 3402 	strd	r3, r4, [sp, #8]
 8002e74:	9404      	str	r4, [sp, #16]
 8002e76:	f000 fd2d 	bl	80038d4 <HAL_GPIO_Init>
 8002e7a:	2025      	movs	r0, #37	; 0x25
 8002e7c:	4622      	mov	r2, r4
 8002e7e:	4621      	mov	r1, r4
 8002e80:	f000 fb6a 	bl	8003558 <HAL_NVIC_SetPriority>
 8002e84:	2025      	movs	r0, #37	; 0x25
 8002e86:	f000 fb97 	bl	80035b8 <HAL_NVIC_EnableIRQ>
 8002e8a:	b006      	add	sp, #24
 8002e8c:	bd10      	pop	{r4, pc}
 8002e8e:	bf00      	nop
 8002e90:	40013800 	.word	0x40013800
 8002e94:	40010800 	.word	0x40010800

08002e98 <NMI_Handler>:
 8002e98:	e7fe      	b.n	8002e98 <NMI_Handler>

08002e9a <HardFault_Handler>:
 8002e9a:	e7fe      	b.n	8002e9a <HardFault_Handler>

08002e9c <MemManage_Handler>:
 8002e9c:	e7fe      	b.n	8002e9c <MemManage_Handler>

08002e9e <BusFault_Handler>:
 8002e9e:	e7fe      	b.n	8002e9e <BusFault_Handler>

08002ea0 <UsageFault_Handler>:
 8002ea0:	e7fe      	b.n	8002ea0 <UsageFault_Handler>

08002ea2 <SVC_Handler>:
 8002ea2:	4770      	bx	lr

08002ea4 <DebugMon_Handler>:
 8002ea4:	4770      	bx	lr

08002ea6 <PendSV_Handler>:
 8002ea6:	4770      	bx	lr

08002ea8 <SysTick_Handler>:
 8002ea8:	f000 b884 	b.w	8002fb4 <HAL_IncTick>

08002eac <EXTI4_IRQHandler>:
 8002eac:	b508      	push	{r3, lr}
 8002eae:	f7ff f8b1 	bl	8002014 <setMode>
 8002eb2:	e8bd 4008 	ldmia.w	sp!, {r3, lr}
 8002eb6:	2010      	movs	r0, #16
 8002eb8:	f000 bdec 	b.w	8003a94 <HAL_GPIO_EXTI_IRQHandler>

08002ebc <DMA1_Channel1_IRQHandler>:
 8002ebc:	4801      	ldr	r0, [pc, #4]	; (8002ec4 <DMA1_Channel1_IRQHandler+0x8>)
 8002ebe:	f000 bc75 	b.w	80037ac <HAL_DMA_IRQHandler>
 8002ec2:	bf00      	nop
 8002ec4:	20000bd0 	.word	0x20000bd0

08002ec8 <ADC1_2_IRQHandler>:
 8002ec8:	4801      	ldr	r0, [pc, #4]	; (8002ed0 <ADC1_2_IRQHandler+0x8>)
 8002eca:	f000 b8c5 	b.w	8003058 <HAL_ADC_IRQHandler>
 8002ece:	bf00      	nop
 8002ed0:	20000ba0 	.word	0x20000ba0

08002ed4 <USB_LP_CAN1_RX0_IRQHandler>:
 8002ed4:	4801      	ldr	r0, [pc, #4]	; (8002edc <USB_LP_CAN1_RX0_IRQHandler+0x8>)
 8002ed6:	f001 bb03 	b.w	80044e0 <HAL_PCD_IRQHandler>
 8002eda:	bf00      	nop
 8002edc:	20001eb8 	.word	0x20001eb8

08002ee0 <TIM2_IRQHandler>:
 8002ee0:	4801      	ldr	r0, [pc, #4]	; (8002ee8 <TIM2_IRQHandler+0x8>)
 8002ee2:	f002 bcaa 	b.w	800583a <HAL_TIM_IRQHandler>
 8002ee6:	bf00      	nop
 8002ee8:	20000c68 	.word	0x20000c68

08002eec <USART1_IRQHandler>:
 8002eec:	4801      	ldr	r0, [pc, #4]	; (8002ef4 <USART1_IRQHandler+0x8>)
 8002eee:	f003 b88d 	b.w	800600c <HAL_UART_IRQHandler>
 8002ef2:	bf00      	nop
 8002ef4:	20000cf8 	.word	0x20000cf8

08002ef8 <SystemInit>:
 8002ef8:	4770      	bx	lr
	...

08002efc <Reset_Handler>:
 8002efc:	f7ff fffc 	bl	8002ef8 <SystemInit>
 8002f00:	480b      	ldr	r0, [pc, #44]	; (8002f30 <LoopFillZerobss+0xe>)
 8002f02:	490c      	ldr	r1, [pc, #48]	; (8002f34 <LoopFillZerobss+0x12>)
 8002f04:	4a0c      	ldr	r2, [pc, #48]	; (8002f38 <LoopFillZerobss+0x16>)
 8002f06:	2300      	movs	r3, #0
 8002f08:	e002      	b.n	8002f10 <LoopCopyDataInit>

08002f0a <CopyDataInit>:
 8002f0a:	58d4      	ldr	r4, [r2, r3]
 8002f0c:	50c4      	str	r4, [r0, r3]
 8002f0e:	3304      	adds	r3, #4

08002f10 <LoopCopyDataInit>:
 8002f10:	18c4      	adds	r4, r0, r3
 8002f12:	428c      	cmp	r4, r1
 8002f14:	d3f9      	bcc.n	8002f0a <CopyDataInit>
 8002f16:	4a09      	ldr	r2, [pc, #36]	; (8002f3c <LoopFillZerobss+0x1a>)
 8002f18:	4c09      	ldr	r4, [pc, #36]	; (8002f40 <LoopFillZerobss+0x1e>)
 8002f1a:	2300      	movs	r3, #0
 8002f1c:	e001      	b.n	8002f22 <LoopFillZerobss>

08002f1e <FillZerobss>:
 8002f1e:	6013      	str	r3, [r2, #0]
 8002f20:	3204      	adds	r2, #4

08002f22 <LoopFillZerobss>:
 8002f22:	42a2      	cmp	r2, r4
 8002f24:	d3fb      	bcc.n	8002f1e <FillZerobss>
 8002f26:	f004 fe89 	bl	8007c3c <__libc_init_array>
 8002f2a:	f7ff fae5 	bl	80024f8 <main>
 8002f2e:	4770      	bx	lr
 8002f30:	20000000 	.word	0x20000000
 8002f34:	200001a0 	.word	0x200001a0
 8002f38:	080080b8 	.word	0x080080b8
 8002f3c:	200001a0 	.word	0x200001a0
 8002f40:	200023c8 	.word	0x200023c8

08002f44 <CAN1_RX1_IRQHandler>:
 8002f44:	e7fe      	b.n	8002f44 <CAN1_RX1_IRQHandler>
	...

08002f48 <HAL_InitTick>:
 8002f48:	b538      	push	{r3, r4, r5, lr}
 8002f4a:	4b0e      	ldr	r3, [pc, #56]	; (8002f84 <HAL_InitTick+0x3c>)
 8002f4c:	4605      	mov	r5, r0
 8002f4e:	781a      	ldrb	r2, [r3, #0]
 8002f50:	f44f 737a 	mov.w	r3, #1000	; 0x3e8
 8002f54:	fbb3 f3f2 	udiv	r3, r3, r2
 8002f58:	4a0b      	ldr	r2, [pc, #44]	; (8002f88 <HAL_InitTick+0x40>)
 8002f5a:	6810      	ldr	r0, [r2, #0]
 8002f5c:	fbb0 f0f3 	udiv	r0, r0, r3
 8002f60:	f000 fb38 	bl	80035d4 <HAL_SYSTICK_Config>
 8002f64:	4604      	mov	r4, r0
 8002f66:	b958      	cbnz	r0, 8002f80 <HAL_InitTick+0x38>
 8002f68:	2d0f      	cmp	r5, #15
 8002f6a:	d809      	bhi.n	8002f80 <HAL_InitTick+0x38>
 8002f6c:	4602      	mov	r2, r0
 8002f6e:	4629      	mov	r1, r5
 8002f70:	f04f 30ff 	mov.w	r0, #4294967295
 8002f74:	f000 faf0 	bl	8003558 <HAL_NVIC_SetPriority>
 8002f78:	4620      	mov	r0, r4
 8002f7a:	4b04      	ldr	r3, [pc, #16]	; (8002f8c <HAL_InitTick+0x44>)
 8002f7c:	601d      	str	r5, [r3, #0]
 8002f7e:	bd38      	pop	{r3, r4, r5, pc}
 8002f80:	2001      	movs	r0, #1
 8002f82:	e7fc      	b.n	8002f7e <HAL_InitTick+0x36>
 8002f84:	20000028 	.word	0x20000028
 8002f88:	20000024 	.word	0x20000024
 8002f8c:	2000002c 	.word	0x2000002c

08002f90 <HAL_Init>:
 8002f90:	4a07      	ldr	r2, [pc, #28]	; (8002fb0 <HAL_Init+0x20>)
 8002f92:	b508      	push	{r3, lr}
 8002f94:	6813      	ldr	r3, [r2, #0]
 8002f96:	2003      	movs	r0, #3
 8002f98:	f043 0310 	orr.w	r3, r3, #16
 8002f9c:	6013      	str	r3, [r2, #0]
 8002f9e:	f000 fac9 	bl	8003534 <HAL_NVIC_SetPriorityGrouping>
 8002fa2:	200f      	movs	r0, #15
 8002fa4:	f7ff ffd0 	bl	8002f48 <HAL_InitTick>
 8002fa8:	f7ff fe34 	bl	8002c14 <HAL_MspInit>
 8002fac:	2000      	movs	r0, #0
 8002fae:	bd08      	pop	{r3, pc}
 8002fb0:	40022000 	.word	0x40022000

08002fb4 <HAL_IncTick>:
 8002fb4:	4a03      	ldr	r2, [pc, #12]	; (8002fc4 <HAL_IncTick+0x10>)
 8002fb6:	4b04      	ldr	r3, [pc, #16]	; (8002fc8 <HAL_IncTick+0x14>)
 8002fb8:	6811      	ldr	r1, [r2, #0]
 8002fba:	781b      	ldrb	r3, [r3, #0]
 8002fbc:	440b      	add	r3, r1
 8002fbe:	6013      	str	r3, [r2, #0]
 8002fc0:	4770      	bx	lr
 8002fc2:	bf00      	nop
 8002fc4:	200011e8 	.word	0x200011e8
 8002fc8:	20000028 	.word	0x20000028

08002fcc <HAL_GetTick>:
 8002fcc:	4b01      	ldr	r3, [pc, #4]	; (8002fd4 <HAL_GetTick+0x8>)
 8002fce:	6818      	ldr	r0, [r3, #0]
 8002fd0:	4770      	bx	lr
 8002fd2:	bf00      	nop
 8002fd4:	200011e8 	.word	0x200011e8

08002fd8 <HAL_Delay>:
 8002fd8:	b538      	push	{r3, r4, r5, lr}
 8002fda:	4604      	mov	r4, r0
 8002fdc:	f7ff fff6 	bl	8002fcc <HAL_GetTick>
 8002fe0:	4605      	mov	r5, r0
 8002fe2:	1c63      	adds	r3, r4, #1
 8002fe4:	bf1e      	ittt	ne
 8002fe6:	4b04      	ldrne	r3, [pc, #16]	; (8002ff8 <HAL_Delay+0x20>)
 8002fe8:	781b      	ldrbne	r3, [r3, #0]
 8002fea:	18e4      	addne	r4, r4, r3
 8002fec:	f7ff ffee 	bl	8002fcc <HAL_GetTick>
 8002ff0:	1b43      	subs	r3, r0, r5
 8002ff2:	42a3      	cmp	r3, r4
 8002ff4:	d3fa      	bcc.n	8002fec <HAL_Delay+0x14>
 8002ff6:	bd38      	pop	{r3, r4, r5, pc}
 8002ff8:	20000028 	.word	0x20000028

08002ffc <ADC_DMAConvCplt>:
 8002ffc:	6a43      	ldr	r3, [r0, #36]	; 0x24
 8002ffe:	b510      	push	{r4, lr}
 8003000:	6a9a      	ldr	r2, [r3, #40]	; 0x28
 8003002:	f012 0f50 	tst.w	r2, #80	; 0x50
 8003006:	d11b      	bne.n	8003040 <ADC_DMAConvCplt+0x44>
 8003008:	6a9a      	ldr	r2, [r3, #40]	; 0x28
 800300a:	f442 7200 	orr.w	r2, r2, #512	; 0x200
 800300e:	629a      	str	r2, [r3, #40]	; 0x28
 8003010:	681a      	ldr	r2, [r3, #0]
 8003012:	6892      	ldr	r2, [r2, #8]
 8003014:	f402 2260 	and.w	r2, r2, #917504	; 0xe0000
 8003018:	f5b2 2f60 	cmp.w	r2, #917504	; 0xe0000
 800301c:	d10c      	bne.n	8003038 <ADC_DMAConvCplt+0x3c>
 800301e:	7b1a      	ldrb	r2, [r3, #12]
 8003020:	b952      	cbnz	r2, 8003038 <ADC_DMAConvCplt+0x3c>
 8003022:	6a9a      	ldr	r2, [r3, #40]	; 0x28
 8003024:	f422 7280 	bic.w	r2, r2, #256	; 0x100
 8003028:	629a      	str	r2, [r3, #40]	; 0x28
 800302a:	6a9a      	ldr	r2, [r3, #40]	; 0x28
 800302c:	04d2      	lsls	r2, r2, #19
 800302e:	bf5e      	ittt	pl
 8003030:	6a9a      	ldrpl	r2, [r3, #40]	; 0x28
 8003032:	f042 0201 	orrpl.w	r2, r2, #1
 8003036:	629a      	strpl	r2, [r3, #40]	; 0x28
 8003038:	4618      	mov	r0, r3
 800303a:	f7fe fba3 	bl	8001784 <HAL_ADC_ConvCpltCallback>
 800303e:	bd10      	pop	{r4, pc}
 8003040:	6a1b      	ldr	r3, [r3, #32]
 8003042:	e8bd 4010 	ldmia.w	sp!, {r4, lr}
 8003046:	6b1b      	ldr	r3, [r3, #48]	; 0x30
 8003048:	4718      	bx	r3

0800304a <HAL_ADC_ConvHalfCpltCallback>:
 800304a:	4770      	bx	lr

0800304c <ADC_DMAHalfConvCplt>:
 800304c:	b508      	push	{r3, lr}
 800304e:	6a40      	ldr	r0, [r0, #36]	; 0x24
 8003050:	f7ff fffb 	bl	800304a <HAL_ADC_ConvHalfCpltCallback>
 8003054:	bd08      	pop	{r3, pc}

08003056 <HAL_ADC_LevelOutOfWindowCallback>:
 8003056:	4770      	bx	lr

08003058 <HAL_ADC_IRQHandler>:
 8003058:	6803      	ldr	r3, [r0, #0]
 800305a:	b570      	push	{r4, r5, r6, lr}
 800305c:	681d      	ldr	r5, [r3, #0]
 800305e:	685e      	ldr	r6, [r3, #4]
 8003060:	4604      	mov	r4, r0
 8003062:	06b0      	lsls	r0, r6, #26
 8003064:	d526      	bpl.n	80030b4 <HAL_ADC_IRQHandler+0x5c>
 8003066:	07a9      	lsls	r1, r5, #30
 8003068:	d524      	bpl.n	80030b4 <HAL_ADC_IRQHandler+0x5c>
 800306a:	6aa2      	ldr	r2, [r4, #40]	; 0x28
 800306c:	06d2      	lsls	r2, r2, #27
 800306e:	bf5e      	ittt	pl
 8003070:	6aa2      	ldrpl	r2, [r4, #40]	; 0x28
 8003072:	f442 7200 	orrpl.w	r2, r2, #512	; 0x200
 8003076:	62a2      	strpl	r2, [r4, #40]	; 0x28
 8003078:	689a      	ldr	r2, [r3, #8]
 800307a:	f402 2260 	and.w	r2, r2, #917504	; 0xe0000
 800307e:	f5b2 2f60 	cmp.w	r2, #917504	; 0xe0000
 8003082:	d110      	bne.n	80030a6 <HAL_ADC_IRQHandler+0x4e>
 8003084:	7b22      	ldrb	r2, [r4, #12]
 8003086:	b972      	cbnz	r2, 80030a6 <HAL_ADC_IRQHandler+0x4e>
 8003088:	685a      	ldr	r2, [r3, #4]
 800308a:	f022 0220 	bic.w	r2, r2, #32
 800308e:	605a      	str	r2, [r3, #4]
 8003090:	6aa3      	ldr	r3, [r4, #40]	; 0x28
 8003092:	f423 7380 	bic.w	r3, r3, #256	; 0x100
 8003096:	62a3      	str	r3, [r4, #40]	; 0x28
 8003098:	6aa3      	ldr	r3, [r4, #40]	; 0x28
 800309a:	04d8      	lsls	r0, r3, #19
 800309c:	bf5e      	ittt	pl
 800309e:	6aa3      	ldrpl	r3, [r4, #40]	; 0x28
 80030a0:	f043 0301 	orrpl.w	r3, r3, #1
 80030a4:	62a3      	strpl	r3, [r4, #40]	; 0x28
 80030a6:	4620      	mov	r0, r4
 80030a8:	f7fe fb6c 	bl	8001784 <HAL_ADC_ConvCpltCallback>
 80030ac:	f06f 0212 	mvn.w	r2, #18
 80030b0:	6823      	ldr	r3, [r4, #0]
 80030b2:	601a      	str	r2, [r3, #0]
 80030b4:	0631      	lsls	r1, r6, #24
 80030b6:	d530      	bpl.n	800311a <HAL_ADC_IRQHandler+0xc2>
 80030b8:	076a      	lsls	r2, r5, #29
 80030ba:	d52e      	bpl.n	800311a <HAL_ADC_IRQHandler+0xc2>
 80030bc:	6aa3      	ldr	r3, [r4, #40]	; 0x28
 80030be:	06db      	lsls	r3, r3, #27
 80030c0:	bf5e      	ittt	pl
 80030c2:	6aa3      	ldrpl	r3, [r4, #40]	; 0x28
 80030c4:	f443 5300 	orrpl.w	r3, r3, #8192	; 0x2000
 80030c8:	62a3      	strpl	r3, [r4, #40]	; 0x28
 80030ca:	6823      	ldr	r3, [r4, #0]
 80030cc:	689a      	ldr	r2, [r3, #8]
 80030ce:	f402 42e0 	and.w	r2, r2, #28672	; 0x7000
 80030d2:	f5b2 4fe0 	cmp.w	r2, #28672	; 0x7000
 80030d6:	d00a      	beq.n	80030ee <HAL_ADC_IRQHandler+0x96>
 80030d8:	685a      	ldr	r2, [r3, #4]
 80030da:	0550      	lsls	r0, r2, #21
 80030dc:	d416      	bmi.n	800310c <HAL_ADC_IRQHandler+0xb4>
 80030de:	689a      	ldr	r2, [r3, #8]
 80030e0:	f402 2260 	and.w	r2, r2, #917504	; 0xe0000
 80030e4:	f5b2 2f60 	cmp.w	r2, #917504	; 0xe0000
 80030e8:	d110      	bne.n	800310c <HAL_ADC_IRQHandler+0xb4>
 80030ea:	7b22      	ldrb	r2, [r4, #12]
 80030ec:	b972      	cbnz	r2, 800310c <HAL_ADC_IRQHandler+0xb4>
 80030ee:	685a      	ldr	r2, [r3, #4]
 80030f0:	f022 0280 	bic.w	r2, r2, #128	; 0x80
 80030f4:	605a      	str	r2, [r3, #4]
 80030f6:	6aa3      	ldr	r3, [r4, #40]	; 0x28
 80030f8:	f423 5380 	bic.w	r3, r3, #4096	; 0x1000
 80030fc:	62a3      	str	r3, [r4, #40]	; 0x28
 80030fe:	6aa3      	ldr	r3, [r4, #40]	; 0x28
 8003100:	05d9      	lsls	r1, r3, #23
 8003102:	bf5e      	ittt	pl
 8003104:	6aa3      	ldrpl	r3, [r4, #40]	; 0x28
 8003106:	f043 0301 	orrpl.w	r3, r3, #1
 800310a:	62a3      	strpl	r3, [r4, #40]	; 0x28
 800310c:	4620      	mov	r0, r4
 800310e:	f000 fa0f 	bl	8003530 <HAL_ADCEx_InjectedConvCpltCallback>
 8003112:	f06f 020c 	mvn.w	r2, #12
 8003116:	6823      	ldr	r3, [r4, #0]
 8003118:	601a      	str	r2, [r3, #0]
 800311a:	0672      	lsls	r2, r6, #25
 800311c:	d50c      	bpl.n	8003138 <HAL_ADC_IRQHandler+0xe0>
 800311e:	07eb      	lsls	r3, r5, #31
 8003120:	d50a      	bpl.n	8003138 <HAL_ADC_IRQHandler+0xe0>
 8003122:	6aa3      	ldr	r3, [r4, #40]	; 0x28
 8003124:	4620      	mov	r0, r4
 8003126:	f443 3380 	orr.w	r3, r3, #65536	; 0x10000
 800312a:	62a3      	str	r3, [r4, #40]	; 0x28
 800312c:	f7ff ff93 	bl	8003056 <HAL_ADC_LevelOutOfWindowCallback>
 8003130:	f06f 0201 	mvn.w	r2, #1
 8003134:	6823      	ldr	r3, [r4, #0]
 8003136:	601a      	str	r2, [r3, #0]
 8003138:	bd70      	pop	{r4, r5, r6, pc}

0800313a <HAL_ADC_ErrorCallback>:
 800313a:	4770      	bx	lr

0800313c <ADC_DMAError>:
 800313c:	6a40      	ldr	r0, [r0, #36]	; 0x24
 800313e:	b508      	push	{r3, lr}
 8003140:	6a83      	ldr	r3, [r0, #40]	; 0x28
 8003142:	f043 0340 	orr.w	r3, r3, #64	; 0x40
 8003146:	6283      	str	r3, [r0, #40]	; 0x28
 8003148:	6ac3      	ldr	r3, [r0, #44]	; 0x2c
 800314a:	f043 0304 	orr.w	r3, r3, #4
 800314e:	62c3      	str	r3, [r0, #44]	; 0x2c
 8003150:	f7ff fff3 	bl	800313a <HAL_ADC_ErrorCallback>
 8003154:	bd08      	pop	{r3, pc}
	...

08003158 <HAL_ADC_ConfigChannel>:
 8003158:	2300      	movs	r3, #0
 800315a:	b573      	push	{r0, r1, r4, r5, r6, lr}
 800315c:	9301      	str	r3, [sp, #4]
 800315e:	f890 3024 	ldrb.w	r3, [r0, #36]	; 0x24
 8003162:	4604      	mov	r4, r0
 8003164:	2b01      	cmp	r3, #1
 8003166:	d06c      	beq.n	8003242 <HAL_ADC_ConfigChannel+0xea>
 8003168:	2301      	movs	r3, #1
 800316a:	f880 3024 	strb.w	r3, [r0, #36]	; 0x24
 800316e:	684d      	ldr	r5, [r1, #4]
 8003170:	6802      	ldr	r2, [r0, #0]
 8003172:	2d06      	cmp	r5, #6
 8003174:	6808      	ldr	r0, [r1, #0]
 8003176:	eb05 0385 	add.w	r3, r5, r5, lsl #2
 800317a:	d822      	bhi.n	80031c2 <HAL_ADC_ConfigChannel+0x6a>
 800317c:	261f      	movs	r6, #31
 800317e:	6b55      	ldr	r5, [r2, #52]	; 0x34
 8003180:	3b05      	subs	r3, #5
 8003182:	409e      	lsls	r6, r3
 8003184:	ea25 0506 	bic.w	r5, r5, r6
 8003188:	fa00 f303 	lsl.w	r3, r0, r3
 800318c:	432b      	orrs	r3, r5
 800318e:	6353      	str	r3, [r2, #52]	; 0x34
 8003190:	2809      	cmp	r0, #9
 8003192:	688b      	ldr	r3, [r1, #8]
 8003194:	eb00 0540 	add.w	r5, r0, r0, lsl #1
 8003198:	f04f 0107 	mov.w	r1, #7
 800319c:	d929      	bls.n	80031f2 <HAL_ADC_ConfigChannel+0x9a>
 800319e:	68d6      	ldr	r6, [r2, #12]
 80031a0:	3d1e      	subs	r5, #30
 80031a2:	40a9      	lsls	r1, r5
 80031a4:	ea26 0101 	bic.w	r1, r6, r1
 80031a8:	40ab      	lsls	r3, r5
 80031aa:	430b      	orrs	r3, r1
 80031ac:	60d3      	str	r3, [r2, #12]
 80031ae:	f1a0 0310 	sub.w	r3, r0, #16
 80031b2:	2b01      	cmp	r3, #1
 80031b4:	d925      	bls.n	8003202 <HAL_ADC_ConfigChannel+0xaa>
 80031b6:	2000      	movs	r0, #0
 80031b8:	2300      	movs	r3, #0
 80031ba:	f884 3024 	strb.w	r3, [r4, #36]	; 0x24
 80031be:	b002      	add	sp, #8
 80031c0:	bd70      	pop	{r4, r5, r6, pc}
 80031c2:	2d0c      	cmp	r5, #12
 80031c4:	f04f 051f 	mov.w	r5, #31
 80031c8:	d809      	bhi.n	80031de <HAL_ADC_ConfigChannel+0x86>
 80031ca:	6b16      	ldr	r6, [r2, #48]	; 0x30
 80031cc:	3b23      	subs	r3, #35	; 0x23
 80031ce:	409d      	lsls	r5, r3
 80031d0:	ea26 0505 	bic.w	r5, r6, r5
 80031d4:	fa00 f303 	lsl.w	r3, r0, r3
 80031d8:	432b      	orrs	r3, r5
 80031da:	6313      	str	r3, [r2, #48]	; 0x30
 80031dc:	e7d8      	b.n	8003190 <HAL_ADC_ConfigChannel+0x38>
 80031de:	6ad6      	ldr	r6, [r2, #44]	; 0x2c
 80031e0:	3b41      	subs	r3, #65	; 0x41
 80031e2:	409d      	lsls	r5, r3
 80031e4:	ea26 0505 	bic.w	r5, r6, r5
 80031e8:	fa00 f303 	lsl.w	r3, r0, r3
 80031ec:	432b      	orrs	r3, r5
 80031ee:	62d3      	str	r3, [r2, #44]	; 0x2c
 80031f0:	e7ce      	b.n	8003190 <HAL_ADC_ConfigChannel+0x38>
 80031f2:	6910      	ldr	r0, [r2, #16]
 80031f4:	40a9      	lsls	r1, r5
 80031f6:	ea20 0101 	bic.w	r1, r0, r1
 80031fa:	40ab      	lsls	r3, r5
 80031fc:	430b      	orrs	r3, r1
 80031fe:	6113      	str	r3, [r2, #16]
 8003200:	e7d9      	b.n	80031b6 <HAL_ADC_ConfigChannel+0x5e>
 8003202:	4b11      	ldr	r3, [pc, #68]	; (8003248 <HAL_ADC_ConfigChannel+0xf0>)
 8003204:	429a      	cmp	r2, r3
 8003206:	d116      	bne.n	8003236 <HAL_ADC_ConfigChannel+0xde>
 8003208:	6893      	ldr	r3, [r2, #8]
 800320a:	021b      	lsls	r3, r3, #8
 800320c:	d4d3      	bmi.n	80031b6 <HAL_ADC_ConfigChannel+0x5e>
 800320e:	6893      	ldr	r3, [r2, #8]
 8003210:	2810      	cmp	r0, #16
 8003212:	f443 0300 	orr.w	r3, r3, #8388608	; 0x800000
 8003216:	6093      	str	r3, [r2, #8]
 8003218:	d1cd      	bne.n	80031b6 <HAL_ADC_ConfigChannel+0x5e>
 800321a:	4b0c      	ldr	r3, [pc, #48]	; (800324c <HAL_ADC_ConfigChannel+0xf4>)
 800321c:	4a0c      	ldr	r2, [pc, #48]	; (8003250 <HAL_ADC_ConfigChannel+0xf8>)
 800321e:	681b      	ldr	r3, [r3, #0]
 8003220:	fbb3 f3f2 	udiv	r3, r3, r2
 8003224:	220a      	movs	r2, #10
 8003226:	4353      	muls	r3, r2
 8003228:	9301      	str	r3, [sp, #4]
 800322a:	9b01      	ldr	r3, [sp, #4]
 800322c:	2b00      	cmp	r3, #0
 800322e:	d0c2      	beq.n	80031b6 <HAL_ADC_ConfigChannel+0x5e>
 8003230:	9b01      	ldr	r3, [sp, #4]
 8003232:	3b01      	subs	r3, #1
 8003234:	e7f8      	b.n	8003228 <HAL_ADC_ConfigChannel+0xd0>
 8003236:	6aa3      	ldr	r3, [r4, #40]	; 0x28
 8003238:	2001      	movs	r0, #1
 800323a:	f043 0320 	orr.w	r3, r3, #32
 800323e:	62a3      	str	r3, [r4, #40]	; 0x28
 8003240:	e7ba      	b.n	80031b8 <HAL_ADC_ConfigChannel+0x60>
 8003242:	2002      	movs	r0, #2
 8003244:	e7bb      	b.n	80031be <HAL_ADC_ConfigChannel+0x66>
 8003246:	bf00      	nop
 8003248:	40012400 	.word	0x40012400
 800324c:	20000024 	.word	0x20000024
 8003250:	000f4240 	.word	0x000f4240

08003254 <ADC_Enable>:
 8003254:	2300      	movs	r3, #0
 8003256:	b537      	push	{r0, r1, r2, r4, r5, lr}
 8003258:	9301      	str	r3, [sp, #4]
 800325a:	6803      	ldr	r3, [r0, #0]
 800325c:	4604      	mov	r4, r0
 800325e:	689a      	ldr	r2, [r3, #8]
 8003260:	07d2      	lsls	r2, r2, #31
 8003262:	d502      	bpl.n	800326a <ADC_Enable+0x16>
 8003264:	2000      	movs	r0, #0
 8003266:	b003      	add	sp, #12
 8003268:	bd30      	pop	{r4, r5, pc}
 800326a:	689a      	ldr	r2, [r3, #8]
 800326c:	f042 0201 	orr.w	r2, r2, #1
 8003270:	609a      	str	r2, [r3, #8]
 8003272:	4b14      	ldr	r3, [pc, #80]	; (80032c4 <ADC_Enable+0x70>)
 8003274:	4a14      	ldr	r2, [pc, #80]	; (80032c8 <ADC_Enable+0x74>)
 8003276:	681b      	ldr	r3, [r3, #0]
 8003278:	fbb3 f3f2 	udiv	r3, r3, r2
 800327c:	9301      	str	r3, [sp, #4]
 800327e:	9b01      	ldr	r3, [sp, #4]
 8003280:	b9e3      	cbnz	r3, 80032bc <ADC_Enable+0x68>
 8003282:	f7ff fea3 	bl	8002fcc <HAL_GetTick>
 8003286:	4605      	mov	r5, r0
 8003288:	6823      	ldr	r3, [r4, #0]
 800328a:	689b      	ldr	r3, [r3, #8]
 800328c:	07db      	lsls	r3, r3, #31
 800328e:	d4e9      	bmi.n	8003264 <ADC_Enable+0x10>
 8003290:	f7ff fe9c 	bl	8002fcc <HAL_GetTick>
 8003294:	1b40      	subs	r0, r0, r5
 8003296:	2802      	cmp	r0, #2
 8003298:	d9f6      	bls.n	8003288 <ADC_Enable+0x34>
 800329a:	6823      	ldr	r3, [r4, #0]
 800329c:	689b      	ldr	r3, [r3, #8]
 800329e:	f013 0301 	ands.w	r3, r3, #1
 80032a2:	d1f1      	bne.n	8003288 <ADC_Enable+0x34>
 80032a4:	6aa2      	ldr	r2, [r4, #40]	; 0x28
 80032a6:	2001      	movs	r0, #1
 80032a8:	f042 0210 	orr.w	r2, r2, #16
 80032ac:	62a2      	str	r2, [r4, #40]	; 0x28
 80032ae:	6ae2      	ldr	r2, [r4, #44]	; 0x2c
 80032b0:	f884 3024 	strb.w	r3, [r4, #36]	; 0x24
 80032b4:	f042 0201 	orr.w	r2, r2, #1
 80032b8:	62e2      	str	r2, [r4, #44]	; 0x2c
 80032ba:	e7d4      	b.n	8003266 <ADC_Enable+0x12>
 80032bc:	9b01      	ldr	r3, [sp, #4]
 80032be:	3b01      	subs	r3, #1
 80032c0:	e7dc      	b.n	800327c <ADC_Enable+0x28>
 80032c2:	bf00      	nop
 80032c4:	20000024 	.word	0x20000024
 80032c8:	000f4240 	.word	0x000f4240

080032cc <HAL_ADC_Start_DMA>:
 80032cc:	e92d 41f0 	stmdb	sp!, {r4, r5, r6, r7, r8, lr}
 80032d0:	4b40      	ldr	r3, [pc, #256]	; (80033d4 <HAL_ADC_Start_DMA+0x108>)
 80032d2:	4690      	mov	r8, r2
 80032d4:	6802      	ldr	r2, [r0, #0]
 80032d6:	4604      	mov	r4, r0
 80032d8:	429a      	cmp	r2, r3
 80032da:	460f      	mov	r7, r1
 80032dc:	d002      	beq.n	80032e4 <HAL_ADC_Start_DMA+0x18>
 80032de:	493e      	ldr	r1, [pc, #248]	; (80033d8 <HAL_ADC_Start_DMA+0x10c>)
 80032e0:	428a      	cmp	r2, r1
 80032e2:	d103      	bne.n	80032ec <HAL_ADC_Start_DMA+0x20>
 80032e4:	685b      	ldr	r3, [r3, #4]
 80032e6:	f413 2f70 	tst.w	r3, #983040	; 0xf0000
 80032ea:	d16e      	bne.n	80033ca <HAL_ADC_Start_DMA+0xfe>
 80032ec:	f894 3024 	ldrb.w	r3, [r4, #36]	; 0x24
 80032f0:	2b01      	cmp	r3, #1
 80032f2:	d06c      	beq.n	80033ce <HAL_ADC_Start_DMA+0x102>
 80032f4:	2301      	movs	r3, #1
 80032f6:	4620      	mov	r0, r4
 80032f8:	f884 3024 	strb.w	r3, [r4, #36]	; 0x24
 80032fc:	f7ff ffaa 	bl	8003254 <ADC_Enable>
 8003300:	4606      	mov	r6, r0
 8003302:	2800      	cmp	r0, #0
 8003304:	d15d      	bne.n	80033c2 <HAL_ADC_Start_DMA+0xf6>
 8003306:	6aa5      	ldr	r5, [r4, #40]	; 0x28
 8003308:	6821      	ldr	r1, [r4, #0]
 800330a:	4b33      	ldr	r3, [pc, #204]	; (80033d8 <HAL_ADC_Start_DMA+0x10c>)
 800330c:	f425 6570 	bic.w	r5, r5, #3840	; 0xf00
 8003310:	f025 0501 	bic.w	r5, r5, #1
 8003314:	f445 7580 	orr.w	r5, r5, #256	; 0x100
 8003318:	4299      	cmp	r1, r3
 800331a:	62a5      	str	r5, [r4, #40]	; 0x28
 800331c:	d104      	bne.n	8003328 <HAL_ADC_Start_DMA+0x5c>
 800331e:	4a2d      	ldr	r2, [pc, #180]	; (80033d4 <HAL_ADC_Start_DMA+0x108>)
 8003320:	6853      	ldr	r3, [r2, #4]
 8003322:	f413 2f70 	tst.w	r3, #983040	; 0xf0000
 8003326:	d13e      	bne.n	80033a6 <HAL_ADC_Start_DMA+0xda>
 8003328:	6aa3      	ldr	r3, [r4, #40]	; 0x28
 800332a:	f423 1380 	bic.w	r3, r3, #1048576	; 0x100000
 800332e:	62a3      	str	r3, [r4, #40]	; 0x28
 8003330:	684b      	ldr	r3, [r1, #4]
 8003332:	055a      	lsls	r2, r3, #21
 8003334:	d505      	bpl.n	8003342 <HAL_ADC_Start_DMA+0x76>
 8003336:	6aa3      	ldr	r3, [r4, #40]	; 0x28
 8003338:	f423 5340 	bic.w	r3, r3, #12288	; 0x3000
 800333c:	f443 5380 	orr.w	r3, r3, #4096	; 0x1000
 8003340:	62a3      	str	r3, [r4, #40]	; 0x28
 8003342:	6aa3      	ldr	r3, [r4, #40]	; 0x28
 8003344:	6a20      	ldr	r0, [r4, #32]
 8003346:	f413 5380 	ands.w	r3, r3, #4096	; 0x1000
 800334a:	bf18      	it	ne
 800334c:	6ae3      	ldrne	r3, [r4, #44]	; 0x2c
 800334e:	463a      	mov	r2, r7
 8003350:	bf18      	it	ne
 8003352:	f023 0306 	bicne.w	r3, r3, #6
 8003356:	62e3      	str	r3, [r4, #44]	; 0x2c
 8003358:	2300      	movs	r3, #0
 800335a:	f884 3024 	strb.w	r3, [r4, #36]	; 0x24
 800335e:	4b1f      	ldr	r3, [pc, #124]	; (80033dc <HAL_ADC_Start_DMA+0x110>)
 8003360:	314c      	adds	r1, #76	; 0x4c
 8003362:	6283      	str	r3, [r0, #40]	; 0x28
 8003364:	4b1e      	ldr	r3, [pc, #120]	; (80033e0 <HAL_ADC_Start_DMA+0x114>)
 8003366:	62c3      	str	r3, [r0, #44]	; 0x2c
 8003368:	4b1e      	ldr	r3, [pc, #120]	; (80033e4 <HAL_ADC_Start_DMA+0x118>)
 800336a:	6303      	str	r3, [r0, #48]	; 0x30
 800336c:	f06f 0302 	mvn.w	r3, #2
 8003370:	f841 3c4c 	str.w	r3, [r1, #-76]
 8003374:	f851 3c44 	ldr.w	r3, [r1, #-68]
 8003378:	f443 7380 	orr.w	r3, r3, #256	; 0x100
 800337c:	f841 3c44 	str.w	r3, [r1, #-68]
 8003380:	4643      	mov	r3, r8
 8003382:	f000 f96d 	bl	8003660 <HAL_DMA_Start_IT>
 8003386:	6823      	ldr	r3, [r4, #0]
 8003388:	689a      	ldr	r2, [r3, #8]
 800338a:	f402 2260 	and.w	r2, r2, #917504	; 0xe0000
 800338e:	f5b2 2f60 	cmp.w	r2, #917504	; 0xe0000
 8003392:	689a      	ldr	r2, [r3, #8]
 8003394:	bf0c      	ite	eq
 8003396:	f442 02a0 	orreq.w	r2, r2, #5242880	; 0x500000
 800339a:	f442 1280 	orrne.w	r2, r2, #1048576	; 0x100000
 800339e:	609a      	str	r2, [r3, #8]
 80033a0:	4630      	mov	r0, r6
 80033a2:	e8bd 81f0 	ldmia.w	sp!, {r4, r5, r6, r7, r8, pc}
 80033a6:	6aa3      	ldr	r3, [r4, #40]	; 0x28
 80033a8:	f443 1380 	orr.w	r3, r3, #1048576	; 0x100000
 80033ac:	62a3      	str	r3, [r4, #40]	; 0x28
 80033ae:	6853      	ldr	r3, [r2, #4]
 80033b0:	055b      	lsls	r3, r3, #21
 80033b2:	bf41      	itttt	mi
 80033b4:	6aa0      	ldrmi	r0, [r4, #40]	; 0x28
 80033b6:	f420 5040 	bicmi.w	r0, r0, #12288	; 0x3000
 80033ba:	f440 5080 	orrmi.w	r0, r0, #4096	; 0x1000
 80033be:	62a0      	strmi	r0, [r4, #40]	; 0x28
 80033c0:	e7bf      	b.n	8003342 <HAL_ADC_Start_DMA+0x76>
 80033c2:	2300      	movs	r3, #0
 80033c4:	f884 3024 	strb.w	r3, [r4, #36]	; 0x24
 80033c8:	e7ea      	b.n	80033a0 <HAL_ADC_Start_DMA+0xd4>
 80033ca:	2601      	movs	r6, #1
 80033cc:	e7e8      	b.n	80033a0 <HAL_ADC_Start_DMA+0xd4>
 80033ce:	2602      	movs	r6, #2
 80033d0:	e7e6      	b.n	80033a0 <HAL_ADC_Start_DMA+0xd4>
 80033d2:	bf00      	nop
 80033d4:	40012400 	.word	0x40012400
 80033d8:	40012800 	.word	0x40012800
 80033dc:	08002ffd 	.word	0x08002ffd
 80033e0:	0800304d 	.word	0x0800304d
 80033e4:	0800313d 	.word	0x0800313d

080033e8 <ADC_ConversionStop_Disable>:
 80033e8:	b538      	push	{r3, r4, r5, lr}
 80033ea:	6803      	ldr	r3, [r0, #0]
 80033ec:	4604      	mov	r4, r0
 80033ee:	689a      	ldr	r2, [r3, #8]
 80033f0:	07d1      	lsls	r1, r2, #31
 80033f2:	d401      	bmi.n	80033f8 <ADC_ConversionStop_Disable+0x10>
 80033f4:	2000      	movs	r0, #0
 80033f6:	bd38      	pop	{r3, r4, r5, pc}
 80033f8:	689a      	ldr	r2, [r3, #8]
 80033fa:	f022 0201 	bic.w	r2, r2, #1
 80033fe:	609a      	str	r2, [r3, #8]
 8003400:	f7ff fde4 	bl	8002fcc <HAL_GetTick>
 8003404:	4605      	mov	r5, r0
 8003406:	6823      	ldr	r3, [r4, #0]
 8003408:	689b      	ldr	r3, [r3, #8]
 800340a:	07db      	lsls	r3, r3, #31
 800340c:	d5f2      	bpl.n	80033f4 <ADC_ConversionStop_Disable+0xc>
 800340e:	f7ff fddd 	bl	8002fcc <HAL_GetTick>
 8003412:	1b40      	subs	r0, r0, r5
 8003414:	2802      	cmp	r0, #2
 8003416:	d9f6      	bls.n	8003406 <ADC_ConversionStop_Disable+0x1e>
 8003418:	6823      	ldr	r3, [r4, #0]
 800341a:	689b      	ldr	r3, [r3, #8]
 800341c:	07da      	lsls	r2, r3, #31
 800341e:	d5f2      	bpl.n	8003406 <ADC_ConversionStop_Disable+0x1e>
 8003420:	6aa3      	ldr	r3, [r4, #40]	; 0x28
 8003422:	2001      	movs	r0, #1
 8003424:	f043 0310 	orr.w	r3, r3, #16
 8003428:	62a3      	str	r3, [r4, #40]	; 0x28
 800342a:	6ae3      	ldr	r3, [r4, #44]	; 0x2c
 800342c:	f043 0301 	orr.w	r3, r3, #1
 8003430:	62e3      	str	r3, [r4, #44]	; 0x2c
 8003432:	e7e0      	b.n	80033f6 <ADC_ConversionStop_Disable+0xe>

08003434 <HAL_ADC_Init>:
 8003434:	b5f8      	push	{r3, r4, r5, r6, r7, lr}
 8003436:	4604      	mov	r4, r0
 8003438:	2800      	cmp	r0, #0
 800343a:	d06d      	beq.n	8003518 <HAL_ADC_Init+0xe4>
 800343c:	6a83      	ldr	r3, [r0, #40]	; 0x28
 800343e:	b923      	cbnz	r3, 800344a <HAL_ADC_Init+0x16>
 8003440:	62c3      	str	r3, [r0, #44]	; 0x2c
 8003442:	f880 3024 	strb.w	r3, [r0, #36]	; 0x24
 8003446:	f7ff fc07 	bl	8002c58 <HAL_ADC_MspInit>
 800344a:	4620      	mov	r0, r4
 800344c:	f7ff ffcc 	bl	80033e8 <ADC_ConversionStop_Disable>
 8003450:	6aa3      	ldr	r3, [r4, #40]	; 0x28
 8003452:	f013 0310 	ands.w	r3, r3, #16
 8003456:	d161      	bne.n	800351c <HAL_ADC_Init+0xe8>
 8003458:	2800      	cmp	r0, #0
 800345a:	d15f      	bne.n	800351c <HAL_ADC_Init+0xe8>
 800345c:	6aa2      	ldr	r2, [r4, #40]	; 0x28
 800345e:	6861      	ldr	r1, [r4, #4]
 8003460:	f422 5288 	bic.w	r2, r2, #4352	; 0x1100
 8003464:	f022 0202 	bic.w	r2, r2, #2
 8003468:	f042 0202 	orr.w	r2, r2, #2
 800346c:	69e5      	ldr	r5, [r4, #28]
 800346e:	68a6      	ldr	r6, [r4, #8]
 8003470:	62a2      	str	r2, [r4, #40]	; 0x28
 8003472:	7b22      	ldrb	r2, [r4, #12]
 8003474:	4329      	orrs	r1, r5
 8003476:	f5b6 7f80 	cmp.w	r6, #256	; 0x100
 800347a:	ea41 0142 	orr.w	r1, r1, r2, lsl #1
 800347e:	d036      	beq.n	80034ee <HAL_ADC_Init+0xba>
 8003480:	1e77      	subs	r7, r6, #1
 8003482:	427d      	negs	r5, r7
 8003484:	417d      	adcs	r5, r7
 8003486:	022d      	lsls	r5, r5, #8
 8003488:	7d27      	ldrb	r7, [r4, #20]
 800348a:	2f01      	cmp	r7, #1
 800348c:	d106      	bne.n	800349c <HAL_ADC_Init+0x68>
 800348e:	bb82      	cbnz	r2, 80034f2 <HAL_ADC_Init+0xbe>
 8003490:	69a2      	ldr	r2, [r4, #24]
 8003492:	3a01      	subs	r2, #1
 8003494:	ea45 3242 	orr.w	r2, r5, r2, lsl #13
 8003498:	f442 6500 	orr.w	r5, r2, #2048	; 0x800
 800349c:	6822      	ldr	r2, [r4, #0]
 800349e:	f5b6 7f80 	cmp.w	r6, #256	; 0x100
 80034a2:	6857      	ldr	r7, [r2, #4]
 80034a4:	f427 4769 	bic.w	r7, r7, #59648	; 0xe900
 80034a8:	ea45 0507 	orr.w	r5, r5, r7
 80034ac:	6055      	str	r5, [r2, #4]
 80034ae:	6897      	ldr	r7, [r2, #8]
 80034b0:	4d1d      	ldr	r5, [pc, #116]	; (8003528 <HAL_ADC_Init+0xf4>)
 80034b2:	ea05 0507 	and.w	r5, r5, r7
 80034b6:	ea45 0501 	orr.w	r5, r5, r1
 80034ba:	6095      	str	r5, [r2, #8]
 80034bc:	d001      	beq.n	80034c2 <HAL_ADC_Init+0x8e>
 80034be:	2e01      	cmp	r6, #1
 80034c0:	d102      	bne.n	80034c8 <HAL_ADC_Init+0x94>
 80034c2:	6923      	ldr	r3, [r4, #16]
 80034c4:	3b01      	subs	r3, #1
 80034c6:	051b      	lsls	r3, r3, #20
 80034c8:	6ad5      	ldr	r5, [r2, #44]	; 0x2c
 80034ca:	f425 0570 	bic.w	r5, r5, #15728640	; 0xf00000
 80034ce:	432b      	orrs	r3, r5
 80034d0:	62d3      	str	r3, [r2, #44]	; 0x2c
 80034d2:	6892      	ldr	r2, [r2, #8]
 80034d4:	4b15      	ldr	r3, [pc, #84]	; (800352c <HAL_ADC_Init+0xf8>)
 80034d6:	4013      	ands	r3, r2
 80034d8:	4299      	cmp	r1, r3
 80034da:	d113      	bne.n	8003504 <HAL_ADC_Init+0xd0>
 80034dc:	2300      	movs	r3, #0
 80034de:	62e3      	str	r3, [r4, #44]	; 0x2c
 80034e0:	6aa3      	ldr	r3, [r4, #40]	; 0x28
 80034e2:	f023 0303 	bic.w	r3, r3, #3
 80034e6:	f043 0301 	orr.w	r3, r3, #1
 80034ea:	62a3      	str	r3, [r4, #40]	; 0x28
 80034ec:	bdf8      	pop	{r3, r4, r5, r6, r7, pc}
 80034ee:	4635      	mov	r5, r6
 80034f0:	e7ca      	b.n	8003488 <HAL_ADC_Init+0x54>
 80034f2:	6aa2      	ldr	r2, [r4, #40]	; 0x28
 80034f4:	f042 0220 	orr.w	r2, r2, #32
 80034f8:	62a2      	str	r2, [r4, #40]	; 0x28
 80034fa:	6ae2      	ldr	r2, [r4, #44]	; 0x2c
 80034fc:	f042 0201 	orr.w	r2, r2, #1
 8003500:	62e2      	str	r2, [r4, #44]	; 0x2c
 8003502:	e7cb      	b.n	800349c <HAL_ADC_Init+0x68>
 8003504:	6aa3      	ldr	r3, [r4, #40]	; 0x28
 8003506:	f023 0312 	bic.w	r3, r3, #18
 800350a:	f043 0310 	orr.w	r3, r3, #16
 800350e:	62a3      	str	r3, [r4, #40]	; 0x28
 8003510:	6ae3      	ldr	r3, [r4, #44]	; 0x2c
 8003512:	f043 0301 	orr.w	r3, r3, #1
 8003516:	62e3      	str	r3, [r4, #44]	; 0x2c
 8003518:	2001      	movs	r0, #1
 800351a:	e7e7      	b.n	80034ec <HAL_ADC_Init+0xb8>
 800351c:	6aa3      	ldr	r3, [r4, #40]	; 0x28
 800351e:	f043 0310 	orr.w	r3, r3, #16
 8003522:	62a3      	str	r3, [r4, #40]	; 0x28
 8003524:	e7f8      	b.n	8003518 <HAL_ADC_Init+0xe4>
 8003526:	bf00      	nop
 8003528:	ffe1f7fd 	.word	0xffe1f7fd
 800352c:	ff1f0efe 	.word	0xff1f0efe

08003530 <HAL_ADCEx_InjectedConvCpltCallback>:
 8003530:	4770      	bx	lr
	...

08003534 <HAL_NVIC_SetPriorityGrouping>:
 8003534:	4907      	ldr	r1, [pc, #28]	; (8003554 <HAL_NVIC_SetPriorityGrouping+0x20>)
 8003536:	0203      	lsls	r3, r0, #8
 8003538:	68ca      	ldr	r2, [r1, #12]
 800353a:	f403 63e0 	and.w	r3, r3, #1792	; 0x700
 800353e:	f422 62e0 	bic.w	r2, r2, #1792	; 0x700
 8003542:	0412      	lsls	r2, r2, #16
 8003544:	0c12      	lsrs	r2, r2, #16
 8003546:	4313      	orrs	r3, r2
 8003548:	f043 63bf 	orr.w	r3, r3, #100139008	; 0x5f80000
 800354c:	f443 3300 	orr.w	r3, r3, #131072	; 0x20000
 8003550:	60cb      	str	r3, [r1, #12]
 8003552:	4770      	bx	lr
 8003554:	e000ed00 	.word	0xe000ed00

08003558 <HAL_NVIC_SetPriority>:
 8003558:	4b15      	ldr	r3, [pc, #84]	; (80035b0 <HAL_NVIC_SetPriority+0x58>)
 800355a:	b530      	push	{r4, r5, lr}
 800355c:	68dc      	ldr	r4, [r3, #12]
 800355e:	f3c4 2402 	ubfx	r4, r4, #8, #3
 8003562:	f1c4 0307 	rsb	r3, r4, #7
 8003566:	1d25      	adds	r5, r4, #4
 8003568:	2b04      	cmp	r3, #4
 800356a:	bf28      	it	cs
 800356c:	2304      	movcs	r3, #4
 800356e:	2d06      	cmp	r5, #6
 8003570:	f04f 35ff 	mov.w	r5, #4294967295
 8003574:	bf94      	ite	ls
 8003576:	2400      	movls	r4, #0
 8003578:	3c03      	subhi	r4, #3
 800357a:	fa05 f303 	lsl.w	r3, r5, r3
 800357e:	ea21 0303 	bic.w	r3, r1, r3
 8003582:	40a5      	lsls	r5, r4
 8003584:	ea22 0205 	bic.w	r2, r2, r5
 8003588:	40a3      	lsls	r3, r4
 800358a:	2800      	cmp	r0, #0
 800358c:	ea43 0302 	orr.w	r3, r3, r2
 8003590:	bfac      	ite	ge
 8003592:	f100 4060 	addge.w	r0, r0, #3758096384	; 0xe0000000
 8003596:	4a07      	ldrlt	r2, [pc, #28]	; (80035b4 <HAL_NVIC_SetPriority+0x5c>)
 8003598:	ea4f 1303 	mov.w	r3, r3, lsl #4
 800359c:	b2db      	uxtb	r3, r3
 800359e:	bfab      	itete	ge
 80035a0:	f500 4061 	addge.w	r0, r0, #57600	; 0xe100
 80035a4:	f000 000f 	andlt.w	r0, r0, #15
 80035a8:	f880 3300 	strbge.w	r3, [r0, #768]	; 0x300
 80035ac:	5413      	strblt	r3, [r2, r0]
 80035ae:	bd30      	pop	{r4, r5, pc}
 80035b0:	e000ed00 	.word	0xe000ed00
 80035b4:	e000ed14 	.word	0xe000ed14

080035b8 <HAL_NVIC_EnableIRQ>:
 80035b8:	2800      	cmp	r0, #0
 80035ba:	db07      	blt.n	80035cc <HAL_NVIC_EnableIRQ+0x14>
 80035bc:	2301      	movs	r3, #1
 80035be:	0941      	lsrs	r1, r0, #5
 80035c0:	4a03      	ldr	r2, [pc, #12]	; (80035d0 <HAL_NVIC_EnableIRQ+0x18>)
 80035c2:	f000 001f 	and.w	r0, r0, #31
 80035c6:	4083      	lsls	r3, r0
 80035c8:	f842 3021 	str.w	r3, [r2, r1, lsl #2]
 80035cc:	4770      	bx	lr
 80035ce:	bf00      	nop
 80035d0:	e000e100 	.word	0xe000e100

080035d4 <HAL_SYSTICK_Config>:
 80035d4:	3801      	subs	r0, #1
 80035d6:	f1b0 7f80 	cmp.w	r0, #16777216	; 0x1000000
 80035da:	d20b      	bcs.n	80035f4 <HAL_SYSTICK_Config+0x20>
 80035dc:	f04f 23e0 	mov.w	r3, #3758153728	; 0xe000e000
 80035e0:	21f0      	movs	r1, #240	; 0xf0
 80035e2:	4a05      	ldr	r2, [pc, #20]	; (80035f8 <HAL_SYSTICK_Config+0x24>)
 80035e4:	6158      	str	r0, [r3, #20]
 80035e6:	f882 1023 	strb.w	r1, [r2, #35]	; 0x23
 80035ea:	2000      	movs	r0, #0
 80035ec:	2207      	movs	r2, #7
 80035ee:	6198      	str	r0, [r3, #24]
 80035f0:	611a      	str	r2, [r3, #16]
 80035f2:	4770      	bx	lr
 80035f4:	2001      	movs	r0, #1
 80035f6:	4770      	bx	lr
 80035f8:	e000ed00 	.word	0xe000ed00

080035fc <HAL_DMA_Init>:
 80035fc:	4603      	mov	r3, r0
 80035fe:	b510      	push	{r4, lr}
 8003600:	b340      	cbz	r0, 8003654 <HAL_DMA_Init+0x58>
 8003602:	2114      	movs	r1, #20
 8003604:	6800      	ldr	r0, [r0, #0]
 8003606:	4a14      	ldr	r2, [pc, #80]	; (8003658 <HAL_DMA_Init+0x5c>)
 8003608:	4402      	add	r2, r0
 800360a:	fbb2 f2f1 	udiv	r2, r2, r1
 800360e:	0092      	lsls	r2, r2, #2
 8003610:	641a      	str	r2, [r3, #64]	; 0x40
 8003612:	4a12      	ldr	r2, [pc, #72]	; (800365c <HAL_DMA_Init+0x60>)
 8003614:	63da      	str	r2, [r3, #60]	; 0x3c
 8003616:	2202      	movs	r2, #2
 8003618:	f883 2021 	strb.w	r2, [r3, #33]	; 0x21
 800361c:	e9d3 2401 	ldrd	r2, r4, [r3, #4]
 8003620:	4322      	orrs	r2, r4
 8003622:	68dc      	ldr	r4, [r3, #12]
 8003624:	6801      	ldr	r1, [r0, #0]
 8003626:	4322      	orrs	r2, r4
 8003628:	691c      	ldr	r4, [r3, #16]
 800362a:	f421 517f 	bic.w	r1, r1, #16320	; 0x3fc0
 800362e:	4322      	orrs	r2, r4
 8003630:	695c      	ldr	r4, [r3, #20]
 8003632:	f021 0130 	bic.w	r1, r1, #48	; 0x30
 8003636:	4322      	orrs	r2, r4
 8003638:	699c      	ldr	r4, [r3, #24]
 800363a:	4322      	orrs	r2, r4
 800363c:	69dc      	ldr	r4, [r3, #28]
 800363e:	4322      	orrs	r2, r4
 8003640:	430a      	orrs	r2, r1
 8003642:	6002      	str	r2, [r0, #0]
 8003644:	2000      	movs	r0, #0
 8003646:	2201      	movs	r2, #1
 8003648:	6398      	str	r0, [r3, #56]	; 0x38
 800364a:	f883 0020 	strb.w	r0, [r3, #32]
 800364e:	f883 2021 	strb.w	r2, [r3, #33]	; 0x21
 8003652:	bd10      	pop	{r4, pc}
 8003654:	2001      	movs	r0, #1
 8003656:	e7fc      	b.n	8003652 <HAL_DMA_Init+0x56>
 8003658:	bffdfff8 	.word	0xbffdfff8
 800365c:	40020000 	.word	0x40020000

08003660 <HAL_DMA_Start_IT>:
 8003660:	b5f0      	push	{r4, r5, r6, r7, lr}
 8003662:	4605      	mov	r5, r0
 8003664:	f890 0020 	ldrb.w	r0, [r0, #32]
 8003668:	2801      	cmp	r0, #1
 800366a:	d036      	beq.n	80036da <HAL_DMA_Start_IT+0x7a>
 800366c:	2001      	movs	r0, #1
 800366e:	f885 0020 	strb.w	r0, [r5, #32]
 8003672:	f895 0021 	ldrb.w	r0, [r5, #33]	; 0x21
 8003676:	2400      	movs	r4, #0
 8003678:	2801      	cmp	r0, #1
 800367a:	b2c6      	uxtb	r6, r0
 800367c:	f04f 0002 	mov.w	r0, #2
 8003680:	d128      	bne.n	80036d4 <HAL_DMA_Start_IT+0x74>
 8003682:	f885 0021 	strb.w	r0, [r5, #33]	; 0x21
 8003686:	63ac      	str	r4, [r5, #56]	; 0x38
 8003688:	682c      	ldr	r4, [r5, #0]
 800368a:	6820      	ldr	r0, [r4, #0]
 800368c:	f020 0001 	bic.w	r0, r0, #1
 8003690:	6020      	str	r0, [r4, #0]
 8003692:	e9d5 700f 	ldrd	r7, r0, [r5, #60]	; 0x3c
 8003696:	fa06 f000 	lsl.w	r0, r6, r0
 800369a:	6078      	str	r0, [r7, #4]
 800369c:	6063      	str	r3, [r4, #4]
 800369e:	686b      	ldr	r3, [r5, #4]
 80036a0:	2b10      	cmp	r3, #16
 80036a2:	6aeb      	ldr	r3, [r5, #44]	; 0x2c
 80036a4:	bf0b      	itete	eq
 80036a6:	60a2      	streq	r2, [r4, #8]
 80036a8:	60a1      	strne	r1, [r4, #8]
 80036aa:	60e1      	streq	r1, [r4, #12]
 80036ac:	60e2      	strne	r2, [r4, #12]
 80036ae:	b14b      	cbz	r3, 80036c4 <HAL_DMA_Start_IT+0x64>
 80036b0:	6823      	ldr	r3, [r4, #0]
 80036b2:	f043 030e 	orr.w	r3, r3, #14
 80036b6:	2000      	movs	r0, #0
 80036b8:	6023      	str	r3, [r4, #0]
 80036ba:	6823      	ldr	r3, [r4, #0]
 80036bc:	f043 0301 	orr.w	r3, r3, #1
 80036c0:	6023      	str	r3, [r4, #0]
 80036c2:	bdf0      	pop	{r4, r5, r6, r7, pc}
 80036c4:	6823      	ldr	r3, [r4, #0]
 80036c6:	f023 0304 	bic.w	r3, r3, #4
 80036ca:	6023      	str	r3, [r4, #0]
 80036cc:	6823      	ldr	r3, [r4, #0]
 80036ce:	f043 030a 	orr.w	r3, r3, #10
 80036d2:	e7f0      	b.n	80036b6 <HAL_DMA_Start_IT+0x56>
 80036d4:	f885 4020 	strb.w	r4, [r5, #32]
 80036d8:	e7f3      	b.n	80036c2 <HAL_DMA_Start_IT+0x62>
 80036da:	2002      	movs	r0, #2
 80036dc:	e7f1      	b.n	80036c2 <HAL_DMA_Start_IT+0x62>

080036de <HAL_DMA_Abort>:
 80036de:	f890 2021 	ldrb.w	r2, [r0, #33]	; 0x21
 80036e2:	4603      	mov	r3, r0
 80036e4:	2a02      	cmp	r2, #2
 80036e6:	d006      	beq.n	80036f6 <HAL_DMA_Abort+0x18>
 80036e8:	2204      	movs	r2, #4
 80036ea:	6382      	str	r2, [r0, #56]	; 0x38
 80036ec:	2001      	movs	r0, #1
 80036ee:	2200      	movs	r2, #0
 80036f0:	f883 2020 	strb.w	r2, [r3, #32]
 80036f4:	4770      	bx	lr
 80036f6:	6802      	ldr	r2, [r0, #0]
 80036f8:	6bc0      	ldr	r0, [r0, #60]	; 0x3c
 80036fa:	6811      	ldr	r1, [r2, #0]
 80036fc:	f021 010e 	bic.w	r1, r1, #14
 8003700:	6011      	str	r1, [r2, #0]
 8003702:	6811      	ldr	r1, [r2, #0]
 8003704:	f021 0101 	bic.w	r1, r1, #1
 8003708:	6011      	str	r1, [r2, #0]
 800370a:	2101      	movs	r1, #1
 800370c:	6c1a      	ldr	r2, [r3, #64]	; 0x40
 800370e:	fa01 f202 	lsl.w	r2, r1, r2
 8003712:	6042      	str	r2, [r0, #4]
 8003714:	2000      	movs	r0, #0
 8003716:	f883 1021 	strb.w	r1, [r3, #33]	; 0x21
 800371a:	e7e8      	b.n	80036ee <HAL_DMA_Abort+0x10>

0800371c <HAL_DMA_Abort_IT>:
 800371c:	b510      	push	{r4, lr}
 800371e:	f890 3021 	ldrb.w	r3, [r0, #33]	; 0x21
 8003722:	2b02      	cmp	r3, #2
 8003724:	d003      	beq.n	800372e <HAL_DMA_Abort_IT+0x12>
 8003726:	2304      	movs	r3, #4
 8003728:	6383      	str	r3, [r0, #56]	; 0x38
 800372a:	2001      	movs	r0, #1
 800372c:	bd10      	pop	{r4, pc}
 800372e:	6803      	ldr	r3, [r0, #0]
 8003730:	681a      	ldr	r2, [r3, #0]
 8003732:	f022 020e 	bic.w	r2, r2, #14
 8003736:	601a      	str	r2, [r3, #0]
 8003738:	681a      	ldr	r2, [r3, #0]
 800373a:	f022 0201 	bic.w	r2, r2, #1
 800373e:	601a      	str	r2, [r3, #0]
 8003740:	4a18      	ldr	r2, [pc, #96]	; (80037a4 <HAL_DMA_Abort_IT+0x88>)
 8003742:	4293      	cmp	r3, r2
 8003744:	d01f      	beq.n	8003786 <HAL_DMA_Abort_IT+0x6a>
 8003746:	3214      	adds	r2, #20
 8003748:	4293      	cmp	r3, r2
 800374a:	d01e      	beq.n	800378a <HAL_DMA_Abort_IT+0x6e>
 800374c:	3214      	adds	r2, #20
 800374e:	4293      	cmp	r3, r2
 8003750:	d01d      	beq.n	800378e <HAL_DMA_Abort_IT+0x72>
 8003752:	3214      	adds	r2, #20
 8003754:	4293      	cmp	r3, r2
 8003756:	d01d      	beq.n	8003794 <HAL_DMA_Abort_IT+0x78>
 8003758:	3214      	adds	r2, #20
 800375a:	4293      	cmp	r3, r2
 800375c:	d01d      	beq.n	800379a <HAL_DMA_Abort_IT+0x7e>
 800375e:	3214      	adds	r2, #20
 8003760:	4293      	cmp	r3, r2
 8003762:	bf0c      	ite	eq
 8003764:	f44f 1380 	moveq.w	r3, #1048576	; 0x100000
 8003768:	f04f 7380 	movne.w	r3, #16777216	; 0x1000000
 800376c:	4a0e      	ldr	r2, [pc, #56]	; (80037a8 <HAL_DMA_Abort_IT+0x8c>)
 800376e:	2400      	movs	r4, #0
 8003770:	6053      	str	r3, [r2, #4]
 8003772:	2301      	movs	r3, #1
 8003774:	f880 3021 	strb.w	r3, [r0, #33]	; 0x21
 8003778:	6b43      	ldr	r3, [r0, #52]	; 0x34
 800377a:	f880 4020 	strb.w	r4, [r0, #32]
 800377e:	b17b      	cbz	r3, 80037a0 <HAL_DMA_Abort_IT+0x84>
 8003780:	4798      	blx	r3
 8003782:	4620      	mov	r0, r4
 8003784:	e7d2      	b.n	800372c <HAL_DMA_Abort_IT+0x10>
 8003786:	2301      	movs	r3, #1
 8003788:	e7f0      	b.n	800376c <HAL_DMA_Abort_IT+0x50>
 800378a:	2310      	movs	r3, #16
 800378c:	e7ee      	b.n	800376c <HAL_DMA_Abort_IT+0x50>
 800378e:	f44f 7380 	mov.w	r3, #256	; 0x100
 8003792:	e7eb      	b.n	800376c <HAL_DMA_Abort_IT+0x50>
 8003794:	f44f 5380 	mov.w	r3, #4096	; 0x1000
 8003798:	e7e8      	b.n	800376c <HAL_DMA_Abort_IT+0x50>
 800379a:	f44f 3380 	mov.w	r3, #65536	; 0x10000
 800379e:	e7e5      	b.n	800376c <HAL_DMA_Abort_IT+0x50>
 80037a0:	4618      	mov	r0, r3
 80037a2:	e7c3      	b.n	800372c <HAL_DMA_Abort_IT+0x10>
 80037a4:	40020008 	.word	0x40020008
 80037a8:	40020000 	.word	0x40020000

080037ac <HAL_DMA_IRQHandler>:
 80037ac:	b470      	push	{r4, r5, r6}
 80037ae:	2504      	movs	r5, #4
 80037b0:	6bc6      	ldr	r6, [r0, #60]	; 0x3c
 80037b2:	6c02      	ldr	r2, [r0, #64]	; 0x40
 80037b4:	6834      	ldr	r4, [r6, #0]
 80037b6:	6803      	ldr	r3, [r0, #0]
 80037b8:	4095      	lsls	r5, r2
 80037ba:	4225      	tst	r5, r4
 80037bc:	6819      	ldr	r1, [r3, #0]
 80037be:	d032      	beq.n	8003826 <HAL_DMA_IRQHandler+0x7a>
 80037c0:	074d      	lsls	r5, r1, #29
 80037c2:	d530      	bpl.n	8003826 <HAL_DMA_IRQHandler+0x7a>
 80037c4:	681a      	ldr	r2, [r3, #0]
 80037c6:	0696      	lsls	r6, r2, #26
 80037c8:	bf5e      	ittt	pl
 80037ca:	681a      	ldrpl	r2, [r3, #0]
 80037cc:	f022 0204 	bicpl.w	r2, r2, #4
 80037d0:	601a      	strpl	r2, [r3, #0]
 80037d2:	4a3e      	ldr	r2, [pc, #248]	; (80038cc <HAL_DMA_IRQHandler+0x120>)
 80037d4:	4293      	cmp	r3, r2
 80037d6:	d019      	beq.n	800380c <HAL_DMA_IRQHandler+0x60>
 80037d8:	3214      	adds	r2, #20
 80037da:	4293      	cmp	r3, r2
 80037dc:	d018      	beq.n	8003810 <HAL_DMA_IRQHandler+0x64>
 80037de:	3214      	adds	r2, #20
 80037e0:	4293      	cmp	r3, r2
 80037e2:	d017      	beq.n	8003814 <HAL_DMA_IRQHandler+0x68>
 80037e4:	3214      	adds	r2, #20
 80037e6:	4293      	cmp	r3, r2
 80037e8:	d017      	beq.n	800381a <HAL_DMA_IRQHandler+0x6e>
 80037ea:	3214      	adds	r2, #20
 80037ec:	4293      	cmp	r3, r2
 80037ee:	d017      	beq.n	8003820 <HAL_DMA_IRQHandler+0x74>
 80037f0:	3214      	adds	r2, #20
 80037f2:	4293      	cmp	r3, r2
 80037f4:	bf0c      	ite	eq
 80037f6:	f44f 0380 	moveq.w	r3, #4194304	; 0x400000
 80037fa:	f04f 6380 	movne.w	r3, #67108864	; 0x4000000
 80037fe:	4a34      	ldr	r2, [pc, #208]	; (80038d0 <HAL_DMA_IRQHandler+0x124>)
 8003800:	6053      	str	r3, [r2, #4]
 8003802:	6ac3      	ldr	r3, [r0, #44]	; 0x2c
 8003804:	2b00      	cmp	r3, #0
 8003806:	d05e      	beq.n	80038c6 <HAL_DMA_IRQHandler+0x11a>
 8003808:	bc70      	pop	{r4, r5, r6}
 800380a:	4718      	bx	r3
 800380c:	2304      	movs	r3, #4
 800380e:	e7f6      	b.n	80037fe <HAL_DMA_IRQHandler+0x52>
 8003810:	2340      	movs	r3, #64	; 0x40
 8003812:	e7f4      	b.n	80037fe <HAL_DMA_IRQHandler+0x52>
 8003814:	f44f 6380 	mov.w	r3, #1024	; 0x400
 8003818:	e7f1      	b.n	80037fe <HAL_DMA_IRQHandler+0x52>
 800381a:	f44f 4380 	mov.w	r3, #16384	; 0x4000
 800381e:	e7ee      	b.n	80037fe <HAL_DMA_IRQHandler+0x52>
 8003820:	f44f 2380 	mov.w	r3, #262144	; 0x40000
 8003824:	e7eb      	b.n	80037fe <HAL_DMA_IRQHandler+0x52>
 8003826:	2502      	movs	r5, #2
 8003828:	4095      	lsls	r5, r2
 800382a:	4225      	tst	r5, r4
 800382c:	d035      	beq.n	800389a <HAL_DMA_IRQHandler+0xee>
 800382e:	078d      	lsls	r5, r1, #30
 8003830:	d533      	bpl.n	800389a <HAL_DMA_IRQHandler+0xee>
 8003832:	681a      	ldr	r2, [r3, #0]
 8003834:	0694      	lsls	r4, r2, #26
 8003836:	d406      	bmi.n	8003846 <HAL_DMA_IRQHandler+0x9a>
 8003838:	681a      	ldr	r2, [r3, #0]
 800383a:	f022 020a 	bic.w	r2, r2, #10
 800383e:	601a      	str	r2, [r3, #0]
 8003840:	2201      	movs	r2, #1
 8003842:	f880 2021 	strb.w	r2, [r0, #33]	; 0x21
 8003846:	4a21      	ldr	r2, [pc, #132]	; (80038cc <HAL_DMA_IRQHandler+0x120>)
 8003848:	4293      	cmp	r3, r2
 800384a:	d019      	beq.n	8003880 <HAL_DMA_IRQHandler+0xd4>
 800384c:	3214      	adds	r2, #20
 800384e:	4293      	cmp	r3, r2
 8003850:	d018      	beq.n	8003884 <HAL_DMA_IRQHandler+0xd8>
 8003852:	3214      	adds	r2, #20
 8003854:	4293      	cmp	r3, r2
 8003856:	d017      	beq.n	8003888 <HAL_DMA_IRQHandler+0xdc>
 8003858:	3214      	adds	r2, #20
 800385a:	4293      	cmp	r3, r2
 800385c:	d017      	beq.n	800388e <HAL_DMA_IRQHandler+0xe2>
 800385e:	3214      	adds	r2, #20
 8003860:	4293      	cmp	r3, r2
 8003862:	d017      	beq.n	8003894 <HAL_DMA_IRQHandler+0xe8>
 8003864:	3214      	adds	r2, #20
 8003866:	4293      	cmp	r3, r2
 8003868:	bf0c      	ite	eq
 800386a:	f44f 1300 	moveq.w	r3, #2097152	; 0x200000
 800386e:	f04f 7300 	movne.w	r3, #33554432	; 0x2000000
 8003872:	4a17      	ldr	r2, [pc, #92]	; (80038d0 <HAL_DMA_IRQHandler+0x124>)
 8003874:	6053      	str	r3, [r2, #4]
 8003876:	2300      	movs	r3, #0
 8003878:	f880 3020 	strb.w	r3, [r0, #32]
 800387c:	6a83      	ldr	r3, [r0, #40]	; 0x28
 800387e:	e7c1      	b.n	8003804 <HAL_DMA_IRQHandler+0x58>
 8003880:	2302      	movs	r3, #2
 8003882:	e7f6      	b.n	8003872 <HAL_DMA_IRQHandler+0xc6>
 8003884:	2320      	movs	r3, #32
 8003886:	e7f4      	b.n	8003872 <HAL_DMA_IRQHandler+0xc6>
 8003888:	f44f 7300 	mov.w	r3, #512	; 0x200
 800388c:	e7f1      	b.n	8003872 <HAL_DMA_IRQHandler+0xc6>
 800388e:	f44f 5300 	mov.w	r3, #8192	; 0x2000
 8003892:	e7ee      	b.n	8003872 <HAL_DMA_IRQHandler+0xc6>
 8003894:	f44f 3300 	mov.w	r3, #131072	; 0x20000
 8003898:	e7eb      	b.n	8003872 <HAL_DMA_IRQHandler+0xc6>
 800389a:	2508      	movs	r5, #8
 800389c:	4095      	lsls	r5, r2
 800389e:	4225      	tst	r5, r4
 80038a0:	d011      	beq.n	80038c6 <HAL_DMA_IRQHandler+0x11a>
 80038a2:	0709      	lsls	r1, r1, #28
 80038a4:	d50f      	bpl.n	80038c6 <HAL_DMA_IRQHandler+0x11a>
 80038a6:	6819      	ldr	r1, [r3, #0]
 80038a8:	f021 010e 	bic.w	r1, r1, #14
 80038ac:	6019      	str	r1, [r3, #0]
 80038ae:	2301      	movs	r3, #1
 80038b0:	fa03 f202 	lsl.w	r2, r3, r2
 80038b4:	6072      	str	r2, [r6, #4]
 80038b6:	6383      	str	r3, [r0, #56]	; 0x38
 80038b8:	f880 3021 	strb.w	r3, [r0, #33]	; 0x21
 80038bc:	2300      	movs	r3, #0
 80038be:	f880 3020 	strb.w	r3, [r0, #32]
 80038c2:	6b03      	ldr	r3, [r0, #48]	; 0x30
 80038c4:	e79e      	b.n	8003804 <HAL_DMA_IRQHandler+0x58>
 80038c6:	bc70      	pop	{r4, r5, r6}
 80038c8:	4770      	bx	lr
 80038ca:	bf00      	nop
 80038cc:	40020008 	.word	0x40020008
 80038d0:	40020000 	.word	0x40020000

080038d4 <HAL_GPIO_Init>:
 80038d4:	e92d 4ff7 	stmdb	sp!, {r0, r1, r2, r4, r5, r6, r7, r8, r9, sl, fp, lr}
 80038d8:	2200      	movs	r2, #0
 80038da:	4616      	mov	r6, r2
 80038dc:	4f64      	ldr	r7, [pc, #400]	; (8003a70 <HAL_GPIO_Init+0x19c>)
 80038de:	4b65      	ldr	r3, [pc, #404]	; (8003a74 <HAL_GPIO_Init+0x1a0>)
 80038e0:	f8df c194 	ldr.w	ip, [pc, #404]	; 8003a78 <HAL_GPIO_Init+0x1a4>
 80038e4:	f8df e194 	ldr.w	lr, [pc, #404]	; 8003a7c <HAL_GPIO_Init+0x1a8>
 80038e8:	680d      	ldr	r5, [r1, #0]
 80038ea:	fa35 f406 	lsrs.w	r4, r5, r6
 80038ee:	d102      	bne.n	80038f6 <HAL_GPIO_Init+0x22>
 80038f0:	b003      	add	sp, #12
 80038f2:	e8bd 8ff0 	ldmia.w	sp!, {r4, r5, r6, r7, r8, r9, sl, fp, pc}
 80038f6:	f04f 0801 	mov.w	r8, #1
 80038fa:	fa08 f806 	lsl.w	r8, r8, r6
 80038fe:	ea05 0408 	and.w	r4, r5, r8
 8003902:	ea38 0505 	bics.w	r5, r8, r5
 8003906:	d17a      	bne.n	80039fe <HAL_GPIO_Init+0x12a>
 8003908:	684d      	ldr	r5, [r1, #4]
 800390a:	2d03      	cmp	r5, #3
 800390c:	d807      	bhi.n	800391e <HAL_GPIO_Init+0x4a>
 800390e:	3d01      	subs	r5, #1
 8003910:	2d02      	cmp	r5, #2
 8003912:	f200 8087 	bhi.w	8003a24 <HAL_GPIO_Init+0x150>
 8003916:	e8df f005 	tbb	[pc, r5]
 800391a:	9a95      	.short	0x9a95
 800391c:	a0          	.byte	0xa0
 800391d:	00          	.byte	0x00
 800391e:	2d12      	cmp	r5, #18
 8003920:	f000 8098 	beq.w	8003a54 <HAL_GPIO_Init+0x180>
 8003924:	d86d      	bhi.n	8003a02 <HAL_GPIO_Init+0x12e>
 8003926:	2d11      	cmp	r5, #17
 8003928:	f000 808e 	beq.w	8003a48 <HAL_GPIO_Init+0x174>
 800392c:	2cff      	cmp	r4, #255	; 0xff
 800392e:	bf98      	it	ls
 8003930:	4682      	movls	sl, r0
 8003932:	f04f 090f 	mov.w	r9, #15
 8003936:	bf88      	it	hi
 8003938:	f100 0a04 	addhi.w	sl, r0, #4
 800393c:	ea4f 0586 	mov.w	r5, r6, lsl #2
 8003940:	f8da 8000 	ldr.w	r8, [sl]
 8003944:	bf88      	it	hi
 8003946:	3d20      	subhi	r5, #32
 8003948:	fa09 fb05 	lsl.w	fp, r9, r5
 800394c:	ea28 080b 	bic.w	r8, r8, fp
 8003950:	fa02 f505 	lsl.w	r5, r2, r5
 8003954:	ea48 0505 	orr.w	r5, r8, r5
 8003958:	f8ca 5000 	str.w	r5, [sl]
 800395c:	f8d1 a004 	ldr.w	sl, [r1, #4]
 8003960:	f01a 5f80 	tst.w	sl, #268435456	; 0x10000000
 8003964:	d04b      	beq.n	80039fe <HAL_GPIO_Init+0x12a>
 8003966:	69bd      	ldr	r5, [r7, #24]
 8003968:	f026 0803 	bic.w	r8, r6, #3
 800396c:	f045 0501 	orr.w	r5, r5, #1
 8003970:	61bd      	str	r5, [r7, #24]
 8003972:	69bd      	ldr	r5, [r7, #24]
 8003974:	f108 4880 	add.w	r8, r8, #1073741824	; 0x40000000
 8003978:	f005 0501 	and.w	r5, r5, #1
 800397c:	9501      	str	r5, [sp, #4]
 800397e:	f508 3880 	add.w	r8, r8, #65536	; 0x10000
 8003982:	f006 0b03 	and.w	fp, r6, #3
 8003986:	9d01      	ldr	r5, [sp, #4]
 8003988:	ea4f 0b8b 	mov.w	fp, fp, lsl #2
 800398c:	f8d8 5008 	ldr.w	r5, [r8, #8]
 8003990:	fa09 f90b 	lsl.w	r9, r9, fp
 8003994:	ea25 0909 	bic.w	r9, r5, r9
 8003998:	4d39      	ldr	r5, [pc, #228]	; (8003a80 <HAL_GPIO_Init+0x1ac>)
 800399a:	42a8      	cmp	r0, r5
 800399c:	d061      	beq.n	8003a62 <HAL_GPIO_Init+0x18e>
 800399e:	f505 6580 	add.w	r5, r5, #1024	; 0x400
 80039a2:	42a8      	cmp	r0, r5
 80039a4:	d05f      	beq.n	8003a66 <HAL_GPIO_Init+0x192>
 80039a6:	f505 6580 	add.w	r5, r5, #1024	; 0x400
 80039aa:	42a8      	cmp	r0, r5
 80039ac:	d05d      	beq.n	8003a6a <HAL_GPIO_Init+0x196>
 80039ae:	f505 6580 	add.w	r5, r5, #1024	; 0x400
 80039b2:	42a8      	cmp	r0, r5
 80039b4:	bf0c      	ite	eq
 80039b6:	2503      	moveq	r5, #3
 80039b8:	2504      	movne	r5, #4
 80039ba:	fa05 f50b 	lsl.w	r5, r5, fp
 80039be:	ea45 0509 	orr.w	r5, r5, r9
 80039c2:	f8c8 5008 	str.w	r5, [r8, #8]
 80039c6:	689d      	ldr	r5, [r3, #8]
 80039c8:	f41a 1f80 	tst.w	sl, #1048576	; 0x100000
 80039cc:	bf14      	ite	ne
 80039ce:	4325      	orrne	r5, r4
 80039d0:	43a5      	biceq	r5, r4
 80039d2:	609d      	str	r5, [r3, #8]
 80039d4:	68dd      	ldr	r5, [r3, #12]
 80039d6:	f41a 1f00 	tst.w	sl, #2097152	; 0x200000
 80039da:	bf14      	ite	ne
 80039dc:	4325      	orrne	r5, r4
 80039de:	43a5      	biceq	r5, r4
 80039e0:	60dd      	str	r5, [r3, #12]
 80039e2:	685d      	ldr	r5, [r3, #4]
 80039e4:	f41a 3f00 	tst.w	sl, #131072	; 0x20000
 80039e8:	bf14      	ite	ne
 80039ea:	4325      	orrne	r5, r4
 80039ec:	43a5      	biceq	r5, r4
 80039ee:	605d      	str	r5, [r3, #4]
 80039f0:	681d      	ldr	r5, [r3, #0]
 80039f2:	f41a 3f80 	tst.w	sl, #65536	; 0x10000
 80039f6:	bf14      	ite	ne
 80039f8:	4325      	orrne	r5, r4
 80039fa:	43a5      	biceq	r5, r4
 80039fc:	601d      	str	r5, [r3, #0]
 80039fe:	3601      	adds	r6, #1
 8003a00:	e772      	b.n	80038e8 <HAL_GPIO_Init+0x14>
 8003a02:	f8df 9080 	ldr.w	r9, [pc, #128]	; 8003a84 <HAL_GPIO_Init+0x1b0>
 8003a06:	454d      	cmp	r5, r9
 8003a08:	d00c      	beq.n	8003a24 <HAL_GPIO_Init+0x150>
 8003a0a:	d817      	bhi.n	8003a3c <HAL_GPIO_Init+0x168>
 8003a0c:	f5a9 1980 	sub.w	r9, r9, #1048576	; 0x100000
 8003a10:	454d      	cmp	r5, r9
 8003a12:	d007      	beq.n	8003a24 <HAL_GPIO_Init+0x150>
 8003a14:	f509 2970 	add.w	r9, r9, #983040	; 0xf0000
 8003a18:	454d      	cmp	r5, r9
 8003a1a:	d003      	beq.n	8003a24 <HAL_GPIO_Init+0x150>
 8003a1c:	f5a9 1980 	sub.w	r9, r9, #1048576	; 0x100000
 8003a20:	454d      	cmp	r5, r9
 8003a22:	d183      	bne.n	800392c <HAL_GPIO_Init+0x58>
 8003a24:	688a      	ldr	r2, [r1, #8]
 8003a26:	b1d2      	cbz	r2, 8003a5e <HAL_GPIO_Init+0x18a>
 8003a28:	2a01      	cmp	r2, #1
 8003a2a:	bf08      	it	eq
 8003a2c:	f8c0 8010 	streq.w	r8, [r0, #16]
 8003a30:	f04f 0208 	mov.w	r2, #8
 8003a34:	bf18      	it	ne
 8003a36:	f8c0 8014 	strne.w	r8, [r0, #20]
 8003a3a:	e777      	b.n	800392c <HAL_GPIO_Init+0x58>
 8003a3c:	4565      	cmp	r5, ip
 8003a3e:	d0f1      	beq.n	8003a24 <HAL_GPIO_Init+0x150>
 8003a40:	4575      	cmp	r5, lr
 8003a42:	e7ee      	b.n	8003a22 <HAL_GPIO_Init+0x14e>
 8003a44:	68ca      	ldr	r2, [r1, #12]
 8003a46:	e771      	b.n	800392c <HAL_GPIO_Init+0x58>
 8003a48:	68ca      	ldr	r2, [r1, #12]
 8003a4a:	3204      	adds	r2, #4
 8003a4c:	e76e      	b.n	800392c <HAL_GPIO_Init+0x58>
 8003a4e:	68ca      	ldr	r2, [r1, #12]
 8003a50:	3208      	adds	r2, #8
 8003a52:	e76b      	b.n	800392c <HAL_GPIO_Init+0x58>
 8003a54:	68ca      	ldr	r2, [r1, #12]
 8003a56:	320c      	adds	r2, #12
 8003a58:	e768      	b.n	800392c <HAL_GPIO_Init+0x58>
 8003a5a:	2200      	movs	r2, #0
 8003a5c:	e766      	b.n	800392c <HAL_GPIO_Init+0x58>
 8003a5e:	2204      	movs	r2, #4
 8003a60:	e764      	b.n	800392c <HAL_GPIO_Init+0x58>
 8003a62:	2500      	movs	r5, #0
 8003a64:	e7a9      	b.n	80039ba <HAL_GPIO_Init+0xe6>
 8003a66:	2501      	movs	r5, #1
 8003a68:	e7a7      	b.n	80039ba <HAL_GPIO_Init+0xe6>
 8003a6a:	2502      	movs	r5, #2
 8003a6c:	e7a5      	b.n	80039ba <HAL_GPIO_Init+0xe6>
 8003a6e:	bf00      	nop
 8003a70:	40021000 	.word	0x40021000
 8003a74:	40010400 	.word	0x40010400
 8003a78:	10310000 	.word	0x10310000
 8003a7c:	10320000 	.word	0x10320000
 8003a80:	40010800 	.word	0x40010800
 8003a84:	10220000 	.word	0x10220000

08003a88 <HAL_GPIO_WritePin>:
 8003a88:	b10a      	cbz	r2, 8003a8e <HAL_GPIO_WritePin+0x6>
 8003a8a:	6101      	str	r1, [r0, #16]
 8003a8c:	4770      	bx	lr
 8003a8e:	0409      	lsls	r1, r1, #16
 8003a90:	e7fb      	b.n	8003a8a <HAL_GPIO_WritePin+0x2>

08003a92 <HAL_GPIO_EXTI_Callback>:
 8003a92:	4770      	bx	lr

08003a94 <HAL_GPIO_EXTI_IRQHandler>:
 8003a94:	4a04      	ldr	r2, [pc, #16]	; (8003aa8 <HAL_GPIO_EXTI_IRQHandler+0x14>)
 8003a96:	b508      	push	{r3, lr}
 8003a98:	6951      	ldr	r1, [r2, #20]
 8003a9a:	4201      	tst	r1, r0
 8003a9c:	d002      	beq.n	8003aa4 <HAL_GPIO_EXTI_IRQHandler+0x10>
 8003a9e:	6150      	str	r0, [r2, #20]
 8003aa0:	f7ff fff7 	bl	8003a92 <HAL_GPIO_EXTI_Callback>
 8003aa4:	bd08      	pop	{r3, pc}
 8003aa6:	bf00      	nop
 8003aa8:	40010400 	.word	0x40010400

08003aac <I2C_IsAcknowledgeFailed>:
 8003aac:	6801      	ldr	r1, [r0, #0]
 8003aae:	2200      	movs	r2, #0
 8003ab0:	694b      	ldr	r3, [r1, #20]
 8003ab2:	f413 6380 	ands.w	r3, r3, #1024	; 0x400
 8003ab6:	d010      	beq.n	8003ada <I2C_IsAcknowledgeFailed+0x2e>
 8003ab8:	f46f 6380 	mvn.w	r3, #1024	; 0x400
 8003abc:	614b      	str	r3, [r1, #20]
 8003abe:	2320      	movs	r3, #32
 8003ac0:	6302      	str	r2, [r0, #48]	; 0x30
 8003ac2:	f880 303d 	strb.w	r3, [r0, #61]	; 0x3d
 8003ac6:	f880 203e 	strb.w	r2, [r0, #62]	; 0x3e
 8003aca:	6c03      	ldr	r3, [r0, #64]	; 0x40
 8003acc:	f880 203c 	strb.w	r2, [r0, #60]	; 0x3c
 8003ad0:	f043 0304 	orr.w	r3, r3, #4
 8003ad4:	6403      	str	r3, [r0, #64]	; 0x40
 8003ad6:	2001      	movs	r0, #1
 8003ad8:	4770      	bx	lr
 8003ada:	4618      	mov	r0, r3
 8003adc:	4770      	bx	lr

08003ade <I2C_WaitOnFlagUntilTimeout>:
 8003ade:	e92d 46f8 	stmdb	sp!, {r3, r4, r5, r6, r7, r9, sl, lr}
 8003ae2:	4606      	mov	r6, r0
 8003ae4:	460f      	mov	r7, r1
 8003ae6:	4691      	mov	r9, r2
 8003ae8:	461d      	mov	r5, r3
 8003aea:	ea4f 4a11 	mov.w	sl, r1, lsr #16
 8003aee:	6833      	ldr	r3, [r6, #0]
 8003af0:	f1ba 0f01 	cmp.w	sl, #1
 8003af4:	bf0c      	ite	eq
 8003af6:	695c      	ldreq	r4, [r3, #20]
 8003af8:	699c      	ldrne	r4, [r3, #24]
 8003afa:	ea27 0404 	bic.w	r4, r7, r4
 8003afe:	b2a4      	uxth	r4, r4
 8003b00:	fab4 f484 	clz	r4, r4
 8003b04:	0964      	lsrs	r4, r4, #5
 8003b06:	45a1      	cmp	r9, r4
 8003b08:	d001      	beq.n	8003b0e <I2C_WaitOnFlagUntilTimeout+0x30>
 8003b0a:	2000      	movs	r0, #0
 8003b0c:	e025      	b.n	8003b5a <I2C_WaitOnFlagUntilTimeout+0x7c>
 8003b0e:	1c6a      	adds	r2, r5, #1
 8003b10:	d0ee      	beq.n	8003af0 <I2C_WaitOnFlagUntilTimeout+0x12>
 8003b12:	f7ff fa5b 	bl	8002fcc <HAL_GetTick>
 8003b16:	9b08      	ldr	r3, [sp, #32]
 8003b18:	1ac0      	subs	r0, r0, r3
 8003b1a:	42a8      	cmp	r0, r5
 8003b1c:	d801      	bhi.n	8003b22 <I2C_WaitOnFlagUntilTimeout+0x44>
 8003b1e:	2d00      	cmp	r5, #0
 8003b20:	d1e5      	bne.n	8003aee <I2C_WaitOnFlagUntilTimeout+0x10>
 8003b22:	6833      	ldr	r3, [r6, #0]
 8003b24:	f1ba 0f01 	cmp.w	sl, #1
 8003b28:	bf0c      	ite	eq
 8003b2a:	695b      	ldreq	r3, [r3, #20]
 8003b2c:	699b      	ldrne	r3, [r3, #24]
 8003b2e:	ea27 0303 	bic.w	r3, r7, r3
 8003b32:	b29b      	uxth	r3, r3
 8003b34:	fab3 f383 	clz	r3, r3
 8003b38:	095b      	lsrs	r3, r3, #5
 8003b3a:	4599      	cmp	r9, r3
 8003b3c:	d1d7      	bne.n	8003aee <I2C_WaitOnFlagUntilTimeout+0x10>
 8003b3e:	2300      	movs	r3, #0
 8003b40:	2220      	movs	r2, #32
 8003b42:	2001      	movs	r0, #1
 8003b44:	6333      	str	r3, [r6, #48]	; 0x30
 8003b46:	f886 203d 	strb.w	r2, [r6, #61]	; 0x3d
 8003b4a:	f886 303e 	strb.w	r3, [r6, #62]	; 0x3e
 8003b4e:	6c32      	ldr	r2, [r6, #64]	; 0x40
 8003b50:	f886 303c 	strb.w	r3, [r6, #60]	; 0x3c
 8003b54:	f042 0220 	orr.w	r2, r2, #32
 8003b58:	6432      	str	r2, [r6, #64]	; 0x40
 8003b5a:	e8bd 86f8 	ldmia.w	sp!, {r3, r4, r5, r6, r7, r9, sl, pc}

08003b5e <I2C_WaitOnMasterAddressFlagUntilTimeout>:
 8003b5e:	e92d 41f0 	stmdb	sp!, {r4, r5, r6, r7, r8, lr}
 8003b62:	4604      	mov	r4, r0
 8003b64:	460f      	mov	r7, r1
 8003b66:	4616      	mov	r6, r2
 8003b68:	4698      	mov	r8, r3
 8003b6a:	6825      	ldr	r5, [r4, #0]
 8003b6c:	6968      	ldr	r0, [r5, #20]
 8003b6e:	ea27 0000 	bic.w	r0, r7, r0
 8003b72:	b280      	uxth	r0, r0
 8003b74:	b1b8      	cbz	r0, 8003ba6 <I2C_WaitOnMasterAddressFlagUntilTimeout+0x48>
 8003b76:	696b      	ldr	r3, [r5, #20]
 8003b78:	055a      	lsls	r2, r3, #21
 8003b7a:	d516      	bpl.n	8003baa <I2C_WaitOnMasterAddressFlagUntilTimeout+0x4c>
 8003b7c:	682b      	ldr	r3, [r5, #0]
 8003b7e:	2220      	movs	r2, #32
 8003b80:	f443 7300 	orr.w	r3, r3, #512	; 0x200
 8003b84:	602b      	str	r3, [r5, #0]
 8003b86:	f46f 6380 	mvn.w	r3, #1024	; 0x400
 8003b8a:	616b      	str	r3, [r5, #20]
 8003b8c:	2300      	movs	r3, #0
 8003b8e:	6323      	str	r3, [r4, #48]	; 0x30
 8003b90:	f884 203d 	strb.w	r2, [r4, #61]	; 0x3d
 8003b94:	f884 303e 	strb.w	r3, [r4, #62]	; 0x3e
 8003b98:	6c22      	ldr	r2, [r4, #64]	; 0x40
 8003b9a:	f042 0204 	orr.w	r2, r2, #4
 8003b9e:	2001      	movs	r0, #1
 8003ba0:	6422      	str	r2, [r4, #64]	; 0x40
 8003ba2:	f884 303c 	strb.w	r3, [r4, #60]	; 0x3c
 8003ba6:	e8bd 81f0 	ldmia.w	sp!, {r4, r5, r6, r7, r8, pc}
 8003baa:	1c73      	adds	r3, r6, #1
 8003bac:	d0de      	beq.n	8003b6c <I2C_WaitOnMasterAddressFlagUntilTimeout+0xe>
 8003bae:	f7ff fa0d 	bl	8002fcc <HAL_GetTick>
 8003bb2:	eba0 0008 	sub.w	r0, r0, r8
 8003bb6:	42b0      	cmp	r0, r6
 8003bb8:	d801      	bhi.n	8003bbe <I2C_WaitOnMasterAddressFlagUntilTimeout+0x60>
 8003bba:	2e00      	cmp	r6, #0
 8003bbc:	d1d5      	bne.n	8003b6a <I2C_WaitOnMasterAddressFlagUntilTimeout+0xc>
 8003bbe:	6823      	ldr	r3, [r4, #0]
 8003bc0:	695a      	ldr	r2, [r3, #20]
 8003bc2:	ea27 0202 	bic.w	r2, r7, r2
 8003bc6:	b292      	uxth	r2, r2
 8003bc8:	2a00      	cmp	r2, #0
 8003bca:	d0ce      	beq.n	8003b6a <I2C_WaitOnMasterAddressFlagUntilTimeout+0xc>
 8003bcc:	2300      	movs	r3, #0
 8003bce:	2220      	movs	r2, #32
 8003bd0:	6323      	str	r3, [r4, #48]	; 0x30
 8003bd2:	f884 203d 	strb.w	r2, [r4, #61]	; 0x3d
 8003bd6:	f884 303e 	strb.w	r3, [r4, #62]	; 0x3e
 8003bda:	6c22      	ldr	r2, [r4, #64]	; 0x40
 8003bdc:	f042 0220 	orr.w	r2, r2, #32
 8003be0:	e7dd      	b.n	8003b9e <I2C_WaitOnMasterAddressFlagUntilTimeout+0x40>

08003be2 <I2C_WaitOnTXEFlagUntilTimeout>:
 8003be2:	b570      	push	{r4, r5, r6, lr}
 8003be4:	4604      	mov	r4, r0
 8003be6:	460d      	mov	r5, r1
 8003be8:	4616      	mov	r6, r2
 8003bea:	6823      	ldr	r3, [r4, #0]
 8003bec:	695b      	ldr	r3, [r3, #20]
 8003bee:	061b      	lsls	r3, r3, #24
 8003bf0:	d501      	bpl.n	8003bf6 <I2C_WaitOnTXEFlagUntilTimeout+0x14>
 8003bf2:	2000      	movs	r0, #0
 8003bf4:	bd70      	pop	{r4, r5, r6, pc}
 8003bf6:	4620      	mov	r0, r4
 8003bf8:	f7ff ff58 	bl	8003aac <I2C_IsAcknowledgeFailed>
 8003bfc:	b9c8      	cbnz	r0, 8003c32 <I2C_WaitOnTXEFlagUntilTimeout+0x50>
 8003bfe:	1c6a      	adds	r2, r5, #1
 8003c00:	d0f3      	beq.n	8003bea <I2C_WaitOnTXEFlagUntilTimeout+0x8>
 8003c02:	f7ff f9e3 	bl	8002fcc <HAL_GetTick>
 8003c06:	1b80      	subs	r0, r0, r6
 8003c08:	42a8      	cmp	r0, r5
 8003c0a:	d801      	bhi.n	8003c10 <I2C_WaitOnTXEFlagUntilTimeout+0x2e>
 8003c0c:	2d00      	cmp	r5, #0
 8003c0e:	d1ec      	bne.n	8003bea <I2C_WaitOnTXEFlagUntilTimeout+0x8>
 8003c10:	6823      	ldr	r3, [r4, #0]
 8003c12:	695b      	ldr	r3, [r3, #20]
 8003c14:	f013 0380 	ands.w	r3, r3, #128	; 0x80
 8003c18:	d1e7      	bne.n	8003bea <I2C_WaitOnTXEFlagUntilTimeout+0x8>
 8003c1a:	2220      	movs	r2, #32
 8003c1c:	6323      	str	r3, [r4, #48]	; 0x30
 8003c1e:	f884 203d 	strb.w	r2, [r4, #61]	; 0x3d
 8003c22:	f884 303e 	strb.w	r3, [r4, #62]	; 0x3e
 8003c26:	6c22      	ldr	r2, [r4, #64]	; 0x40
 8003c28:	f884 303c 	strb.w	r3, [r4, #60]	; 0x3c
 8003c2c:	f042 0220 	orr.w	r2, r2, #32
 8003c30:	6422      	str	r2, [r4, #64]	; 0x40
 8003c32:	2001      	movs	r0, #1
 8003c34:	e7de      	b.n	8003bf4 <I2C_WaitOnTXEFlagUntilTimeout+0x12>
	...

08003c38 <I2C_RequestMemoryWrite>:
 8003c38:	e92d 43f0 	stmdb	sp!, {r4, r5, r6, r7, r8, r9, lr}
 8003c3c:	4615      	mov	r5, r2
 8003c3e:	6802      	ldr	r2, [r0, #0]
 8003c40:	4699      	mov	r9, r3
 8003c42:	6813      	ldr	r3, [r2, #0]
 8003c44:	b085      	sub	sp, #20
 8003c46:	f443 7380 	orr.w	r3, r3, #256	; 0x100
 8003c4a:	6013      	str	r3, [r2, #0]
 8003c4c:	e9dd 780c 	ldrd	r7, r8, [sp, #48]	; 0x30
 8003c50:	460e      	mov	r6, r1
 8003c52:	463b      	mov	r3, r7
 8003c54:	2200      	movs	r2, #0
 8003c56:	f04f 1101 	mov.w	r1, #65537	; 0x10001
 8003c5a:	f8cd 8000 	str.w	r8, [sp]
 8003c5e:	4604      	mov	r4, r0
 8003c60:	f7ff ff3d 	bl	8003ade <I2C_WaitOnFlagUntilTimeout>
 8003c64:	6823      	ldr	r3, [r4, #0]
 8003c66:	b138      	cbz	r0, 8003c78 <I2C_RequestMemoryWrite+0x40>
 8003c68:	681b      	ldr	r3, [r3, #0]
 8003c6a:	05db      	lsls	r3, r3, #23
 8003c6c:	d502      	bpl.n	8003c74 <I2C_RequestMemoryWrite+0x3c>
 8003c6e:	f44f 7300 	mov.w	r3, #512	; 0x200
 8003c72:	6423      	str	r3, [r4, #64]	; 0x40
 8003c74:	2003      	movs	r0, #3
 8003c76:	e00a      	b.n	8003c8e <I2C_RequestMemoryWrite+0x56>
 8003c78:	f006 06fe 	and.w	r6, r6, #254	; 0xfe
 8003c7c:	611e      	str	r6, [r3, #16]
 8003c7e:	463a      	mov	r2, r7
 8003c80:	4643      	mov	r3, r8
 8003c82:	4620      	mov	r0, r4
 8003c84:	4917      	ldr	r1, [pc, #92]	; (8003ce4 <I2C_RequestMemoryWrite+0xac>)
 8003c86:	f7ff ff6a 	bl	8003b5e <I2C_WaitOnMasterAddressFlagUntilTimeout>
 8003c8a:	b118      	cbz	r0, 8003c94 <I2C_RequestMemoryWrite+0x5c>
 8003c8c:	2001      	movs	r0, #1
 8003c8e:	b005      	add	sp, #20
 8003c90:	e8bd 83f0 	ldmia.w	sp!, {r4, r5, r6, r7, r8, r9, pc}
 8003c94:	6823      	ldr	r3, [r4, #0]
 8003c96:	9003      	str	r0, [sp, #12]
 8003c98:	695a      	ldr	r2, [r3, #20]
 8003c9a:	4639      	mov	r1, r7
 8003c9c:	9203      	str	r2, [sp, #12]
 8003c9e:	699b      	ldr	r3, [r3, #24]
 8003ca0:	4642      	mov	r2, r8
 8003ca2:	9303      	str	r3, [sp, #12]
 8003ca4:	4620      	mov	r0, r4
 8003ca6:	9b03      	ldr	r3, [sp, #12]
 8003ca8:	f7ff ff9b 	bl	8003be2 <I2C_WaitOnTXEFlagUntilTimeout>
 8003cac:	b140      	cbz	r0, 8003cc0 <I2C_RequestMemoryWrite+0x88>
 8003cae:	6c23      	ldr	r3, [r4, #64]	; 0x40
 8003cb0:	2b04      	cmp	r3, #4
 8003cb2:	bf01      	itttt	eq
 8003cb4:	6822      	ldreq	r2, [r4, #0]
 8003cb6:	6813      	ldreq	r3, [r2, #0]
 8003cb8:	f443 7300 	orreq.w	r3, r3, #512	; 0x200
 8003cbc:	6013      	streq	r3, [r2, #0]
 8003cbe:	e7e5      	b.n	8003c8c <I2C_RequestMemoryWrite+0x54>
 8003cc0:	f1b9 0f01 	cmp.w	r9, #1
 8003cc4:	6823      	ldr	r3, [r4, #0]
 8003cc6:	d102      	bne.n	8003cce <I2C_RequestMemoryWrite+0x96>
 8003cc8:	b2ed      	uxtb	r5, r5
 8003cca:	611d      	str	r5, [r3, #16]
 8003ccc:	e7df      	b.n	8003c8e <I2C_RequestMemoryWrite+0x56>
 8003cce:	0a2a      	lsrs	r2, r5, #8
 8003cd0:	611a      	str	r2, [r3, #16]
 8003cd2:	4639      	mov	r1, r7
 8003cd4:	4642      	mov	r2, r8
 8003cd6:	4620      	mov	r0, r4
 8003cd8:	f7ff ff83 	bl	8003be2 <I2C_WaitOnTXEFlagUntilTimeout>
 8003cdc:	2800      	cmp	r0, #0
 8003cde:	d1e6      	bne.n	8003cae <I2C_RequestMemoryWrite+0x76>
 8003ce0:	6823      	ldr	r3, [r4, #0]
 8003ce2:	e7f1      	b.n	8003cc8 <I2C_RequestMemoryWrite+0x90>
 8003ce4:	00010002 	.word	0x00010002

08003ce8 <I2C_RequestMemoryRead>:
 8003ce8:	e92d 47ff 	stmdb	sp!, {r0, r1, r2, r3, r4, r5, r6, r7, r8, r9, sl, lr}
 8003cec:	469a      	mov	sl, r3
 8003cee:	e9dd 780c 	ldrd	r7, r8, [sp, #48]	; 0x30
 8003cf2:	6803      	ldr	r3, [r0, #0]
 8003cf4:	4615      	mov	r5, r2
 8003cf6:	681a      	ldr	r2, [r3, #0]
 8003cf8:	460e      	mov	r6, r1
 8003cfa:	f442 6280 	orr.w	r2, r2, #1024	; 0x400
 8003cfe:	601a      	str	r2, [r3, #0]
 8003d00:	681a      	ldr	r2, [r3, #0]
 8003d02:	f04f 1101 	mov.w	r1, #65537	; 0x10001
 8003d06:	f442 7280 	orr.w	r2, r2, #256	; 0x100
 8003d0a:	601a      	str	r2, [r3, #0]
 8003d0c:	463b      	mov	r3, r7
 8003d0e:	2200      	movs	r2, #0
 8003d10:	f8cd 8000 	str.w	r8, [sp]
 8003d14:	4604      	mov	r4, r0
 8003d16:	f7ff fee2 	bl	8003ade <I2C_WaitOnFlagUntilTimeout>
 8003d1a:	6823      	ldr	r3, [r4, #0]
 8003d1c:	b148      	cbz	r0, 8003d32 <I2C_RequestMemoryRead+0x4a>
 8003d1e:	681b      	ldr	r3, [r3, #0]
 8003d20:	05db      	lsls	r3, r3, #23
 8003d22:	d502      	bpl.n	8003d2a <I2C_RequestMemoryRead+0x42>
 8003d24:	f44f 7300 	mov.w	r3, #512	; 0x200
 8003d28:	6423      	str	r3, [r4, #64]	; 0x40
 8003d2a:	2003      	movs	r0, #3
 8003d2c:	b004      	add	sp, #16
 8003d2e:	e8bd 87f0 	ldmia.w	sp!, {r4, r5, r6, r7, r8, r9, sl, pc}
 8003d32:	fa5f f986 	uxtb.w	r9, r6
 8003d36:	f006 06fe 	and.w	r6, r6, #254	; 0xfe
 8003d3a:	611e      	str	r6, [r3, #16]
 8003d3c:	463a      	mov	r2, r7
 8003d3e:	4643      	mov	r3, r8
 8003d40:	4620      	mov	r0, r4
 8003d42:	4929      	ldr	r1, [pc, #164]	; (8003de8 <I2C_RequestMemoryRead+0x100>)
 8003d44:	f7ff ff0b 	bl	8003b5e <I2C_WaitOnMasterAddressFlagUntilTimeout>
 8003d48:	b108      	cbz	r0, 8003d4e <I2C_RequestMemoryRead+0x66>
 8003d4a:	2001      	movs	r0, #1
 8003d4c:	e7ee      	b.n	8003d2c <I2C_RequestMemoryRead+0x44>
 8003d4e:	6823      	ldr	r3, [r4, #0]
 8003d50:	9003      	str	r0, [sp, #12]
 8003d52:	695a      	ldr	r2, [r3, #20]
 8003d54:	4639      	mov	r1, r7
 8003d56:	9203      	str	r2, [sp, #12]
 8003d58:	699b      	ldr	r3, [r3, #24]
 8003d5a:	4642      	mov	r2, r8
 8003d5c:	9303      	str	r3, [sp, #12]
 8003d5e:	4620      	mov	r0, r4
 8003d60:	9b03      	ldr	r3, [sp, #12]
 8003d62:	f7ff ff3e 	bl	8003be2 <I2C_WaitOnTXEFlagUntilTimeout>
 8003d66:	b140      	cbz	r0, 8003d7a <I2C_RequestMemoryRead+0x92>
 8003d68:	6c23      	ldr	r3, [r4, #64]	; 0x40
 8003d6a:	2b04      	cmp	r3, #4
 8003d6c:	bf01      	itttt	eq
 8003d6e:	6822      	ldreq	r2, [r4, #0]
 8003d70:	6813      	ldreq	r3, [r2, #0]
 8003d72:	f443 7300 	orreq.w	r3, r3, #512	; 0x200
 8003d76:	6013      	streq	r3, [r2, #0]
 8003d78:	e7e7      	b.n	8003d4a <I2C_RequestMemoryRead+0x62>
 8003d7a:	f1ba 0f01 	cmp.w	sl, #1
 8003d7e:	6823      	ldr	r3, [r4, #0]
 8003d80:	d11a      	bne.n	8003db8 <I2C_RequestMemoryRead+0xd0>
 8003d82:	b2ed      	uxtb	r5, r5
 8003d84:	4642      	mov	r2, r8
 8003d86:	4639      	mov	r1, r7
 8003d88:	4620      	mov	r0, r4
 8003d8a:	611d      	str	r5, [r3, #16]
 8003d8c:	f7ff ff29 	bl	8003be2 <I2C_WaitOnTXEFlagUntilTimeout>
 8003d90:	4602      	mov	r2, r0
 8003d92:	2800      	cmp	r0, #0
 8003d94:	d1e8      	bne.n	8003d68 <I2C_RequestMemoryRead+0x80>
 8003d96:	6821      	ldr	r1, [r4, #0]
 8003d98:	4620      	mov	r0, r4
 8003d9a:	680b      	ldr	r3, [r1, #0]
 8003d9c:	f443 7380 	orr.w	r3, r3, #256	; 0x100
 8003da0:	600b      	str	r3, [r1, #0]
 8003da2:	463b      	mov	r3, r7
 8003da4:	f04f 1101 	mov.w	r1, #65537	; 0x10001
 8003da8:	f8cd 8000 	str.w	r8, [sp]
 8003dac:	f7ff fe97 	bl	8003ade <I2C_WaitOnFlagUntilTimeout>
 8003db0:	6822      	ldr	r2, [r4, #0]
 8003db2:	b160      	cbz	r0, 8003dce <I2C_RequestMemoryRead+0xe6>
 8003db4:	6813      	ldr	r3, [r2, #0]
 8003db6:	e7b3      	b.n	8003d20 <I2C_RequestMemoryRead+0x38>
 8003db8:	0a2a      	lsrs	r2, r5, #8
 8003dba:	611a      	str	r2, [r3, #16]
 8003dbc:	4639      	mov	r1, r7
 8003dbe:	4642      	mov	r2, r8
 8003dc0:	4620      	mov	r0, r4
 8003dc2:	f7ff ff0e 	bl	8003be2 <I2C_WaitOnTXEFlagUntilTimeout>
 8003dc6:	2800      	cmp	r0, #0
 8003dc8:	d1ce      	bne.n	8003d68 <I2C_RequestMemoryRead+0x80>
 8003dca:	6823      	ldr	r3, [r4, #0]
 8003dcc:	e7d9      	b.n	8003d82 <I2C_RequestMemoryRead+0x9a>
 8003dce:	f049 0301 	orr.w	r3, r9, #1
 8003dd2:	6113      	str	r3, [r2, #16]
 8003dd4:	4620      	mov	r0, r4
 8003dd6:	4643      	mov	r3, r8
 8003dd8:	463a      	mov	r2, r7
 8003dda:	4903      	ldr	r1, [pc, #12]	; (8003de8 <I2C_RequestMemoryRead+0x100>)
 8003ddc:	f7ff febf 	bl	8003b5e <I2C_WaitOnMasterAddressFlagUntilTimeout>
 8003de0:	3800      	subs	r0, #0
 8003de2:	bf18      	it	ne
 8003de4:	2001      	movne	r0, #1
 8003de6:	e7a1      	b.n	8003d2c <I2C_RequestMemoryRead+0x44>
 8003de8:	00010002 	.word	0x00010002

08003dec <I2C_WaitOnBTFFlagUntilTimeout>:
 8003dec:	b570      	push	{r4, r5, r6, lr}
 8003dee:	4604      	mov	r4, r0
 8003df0:	460d      	mov	r5, r1
 8003df2:	4616      	mov	r6, r2
 8003df4:	6823      	ldr	r3, [r4, #0]
 8003df6:	695b      	ldr	r3, [r3, #20]
 8003df8:	075b      	lsls	r3, r3, #29
 8003dfa:	d501      	bpl.n	8003e00 <I2C_WaitOnBTFFlagUntilTimeout+0x14>
 8003dfc:	2000      	movs	r0, #0
 8003dfe:	bd70      	pop	{r4, r5, r6, pc}
 8003e00:	4620      	mov	r0, r4
 8003e02:	f7ff fe53 	bl	8003aac <I2C_IsAcknowledgeFailed>
 8003e06:	b9c8      	cbnz	r0, 8003e3c <I2C_WaitOnBTFFlagUntilTimeout+0x50>
 8003e08:	1c6a      	adds	r2, r5, #1
 8003e0a:	d0f3      	beq.n	8003df4 <I2C_WaitOnBTFFlagUntilTimeout+0x8>
 8003e0c:	f7ff f8de 	bl	8002fcc <HAL_GetTick>
 8003e10:	1b80      	subs	r0, r0, r6
 8003e12:	42a8      	cmp	r0, r5
 8003e14:	d801      	bhi.n	8003e1a <I2C_WaitOnBTFFlagUntilTimeout+0x2e>
 8003e16:	2d00      	cmp	r5, #0
 8003e18:	d1ec      	bne.n	8003df4 <I2C_WaitOnBTFFlagUntilTimeout+0x8>
 8003e1a:	6823      	ldr	r3, [r4, #0]
 8003e1c:	695b      	ldr	r3, [r3, #20]
 8003e1e:	f013 0304 	ands.w	r3, r3, #4
 8003e22:	d1e7      	bne.n	8003df4 <I2C_WaitOnBTFFlagUntilTimeout+0x8>
 8003e24:	2220      	movs	r2, #32
 8003e26:	6323      	str	r3, [r4, #48]	; 0x30
 8003e28:	f884 203d 	strb.w	r2, [r4, #61]	; 0x3d
 8003e2c:	f884 303e 	strb.w	r3, [r4, #62]	; 0x3e
 8003e30:	6c22      	ldr	r2, [r4, #64]	; 0x40
 8003e32:	f884 303c 	strb.w	r3, [r4, #60]	; 0x3c
 8003e36:	f042 0220 	orr.w	r2, r2, #32
 8003e3a:	6422      	str	r2, [r4, #64]	; 0x40
 8003e3c:	2001      	movs	r0, #1
 8003e3e:	e7de      	b.n	8003dfe <I2C_WaitOnBTFFlagUntilTimeout+0x12>

08003e40 <I2C_WaitOnRXNEFlagUntilTimeout>:
 8003e40:	b570      	push	{r4, r5, r6, lr}
 8003e42:	4604      	mov	r4, r0
 8003e44:	460d      	mov	r5, r1
 8003e46:	4616      	mov	r6, r2
 8003e48:	6821      	ldr	r1, [r4, #0]
 8003e4a:	694b      	ldr	r3, [r1, #20]
 8003e4c:	f013 0340 	ands.w	r3, r3, #64	; 0x40
 8003e50:	d001      	beq.n	8003e56 <I2C_WaitOnRXNEFlagUntilTimeout+0x16>
 8003e52:	2000      	movs	r0, #0
 8003e54:	e010      	b.n	8003e78 <I2C_WaitOnRXNEFlagUntilTimeout+0x38>
 8003e56:	694a      	ldr	r2, [r1, #20]
 8003e58:	06d2      	lsls	r2, r2, #27
 8003e5a:	d50e      	bpl.n	8003e7a <I2C_WaitOnRXNEFlagUntilTimeout+0x3a>
 8003e5c:	f06f 0210 	mvn.w	r2, #16
 8003e60:	614a      	str	r2, [r1, #20]
 8003e62:	2220      	movs	r2, #32
 8003e64:	6323      	str	r3, [r4, #48]	; 0x30
 8003e66:	f884 203d 	strb.w	r2, [r4, #61]	; 0x3d
 8003e6a:	f884 303e 	strb.w	r3, [r4, #62]	; 0x3e
 8003e6e:	6c22      	ldr	r2, [r4, #64]	; 0x40
 8003e70:	2001      	movs	r0, #1
 8003e72:	6422      	str	r2, [r4, #64]	; 0x40
 8003e74:	f884 303c 	strb.w	r3, [r4, #60]	; 0x3c
 8003e78:	bd70      	pop	{r4, r5, r6, pc}
 8003e7a:	f7ff f8a7 	bl	8002fcc <HAL_GetTick>
 8003e7e:	1b80      	subs	r0, r0, r6
 8003e80:	42a8      	cmp	r0, r5
 8003e82:	d801      	bhi.n	8003e88 <I2C_WaitOnRXNEFlagUntilTimeout+0x48>
 8003e84:	2d00      	cmp	r5, #0
 8003e86:	d1df      	bne.n	8003e48 <I2C_WaitOnRXNEFlagUntilTimeout+0x8>
 8003e88:	6823      	ldr	r3, [r4, #0]
 8003e8a:	695b      	ldr	r3, [r3, #20]
 8003e8c:	f013 0340 	ands.w	r3, r3, #64	; 0x40
 8003e90:	d1da      	bne.n	8003e48 <I2C_WaitOnRXNEFlagUntilTimeout+0x8>
 8003e92:	2220      	movs	r2, #32
 8003e94:	6323      	str	r3, [r4, #48]	; 0x30
 8003e96:	f884 203d 	strb.w	r2, [r4, #61]	; 0x3d
 8003e9a:	f884 303e 	strb.w	r3, [r4, #62]	; 0x3e
 8003e9e:	6c22      	ldr	r2, [r4, #64]	; 0x40
 8003ea0:	f042 0220 	orr.w	r2, r2, #32
 8003ea4:	e7e4      	b.n	8003e70 <I2C_WaitOnRXNEFlagUntilTimeout+0x30>
	...

08003ea8 <HAL_I2C_Init>:
 8003ea8:	b570      	push	{r4, r5, r6, lr}
 8003eaa:	4604      	mov	r4, r0
 8003eac:	b908      	cbnz	r0, 8003eb2 <HAL_I2C_Init+0xa>
 8003eae:	2001      	movs	r0, #1
 8003eb0:	bd70      	pop	{r4, r5, r6, pc}
 8003eb2:	f890 303d 	ldrb.w	r3, [r0, #61]	; 0x3d
 8003eb6:	f003 02ff 	and.w	r2, r3, #255	; 0xff
 8003eba:	b91b      	cbnz	r3, 8003ec4 <HAL_I2C_Init+0x1c>
 8003ebc:	f880 203c 	strb.w	r2, [r0, #60]	; 0x3c
 8003ec0:	f7fe ff1c 	bl	8002cfc <HAL_I2C_MspInit>
 8003ec4:	2324      	movs	r3, #36	; 0x24
 8003ec6:	f884 303d 	strb.w	r3, [r4, #61]	; 0x3d
 8003eca:	6823      	ldr	r3, [r4, #0]
 8003ecc:	681a      	ldr	r2, [r3, #0]
 8003ece:	f022 0201 	bic.w	r2, r2, #1
 8003ed2:	601a      	str	r2, [r3, #0]
 8003ed4:	681a      	ldr	r2, [r3, #0]
 8003ed6:	f442 4200 	orr.w	r2, r2, #32768	; 0x8000
 8003eda:	601a      	str	r2, [r3, #0]
 8003edc:	681a      	ldr	r2, [r3, #0]
 8003ede:	f422 4200 	bic.w	r2, r2, #32768	; 0x8000
 8003ee2:	601a      	str	r2, [r3, #0]
 8003ee4:	f001 fb46 	bl	8005574 <HAL_RCC_GetPCLK1Freq>
 8003ee8:	4b3f      	ldr	r3, [pc, #252]	; (8003fe8 <HAL_I2C_Init+0x140>)
 8003eea:	6865      	ldr	r5, [r4, #4]
 8003eec:	429d      	cmp	r5, r3
 8003eee:	bf94      	ite	ls
 8003ef0:	4b3e      	ldrls	r3, [pc, #248]	; (8003fec <HAL_I2C_Init+0x144>)
 8003ef2:	4b3f      	ldrhi	r3, [pc, #252]	; (8003ff0 <HAL_I2C_Init+0x148>)
 8003ef4:	4298      	cmp	r0, r3
 8003ef6:	bf8c      	ite	hi
 8003ef8:	2300      	movhi	r3, #0
 8003efa:	2301      	movls	r3, #1
 8003efc:	2b00      	cmp	r3, #0
 8003efe:	d1d6      	bne.n	8003eae <HAL_I2C_Init+0x6>
 8003f00:	4e39      	ldr	r6, [pc, #228]	; (8003fe8 <HAL_I2C_Init+0x140>)
 8003f02:	4b3c      	ldr	r3, [pc, #240]	; (8003ff4 <HAL_I2C_Init+0x14c>)
 8003f04:	42b5      	cmp	r5, r6
 8003f06:	fbb0 f3f3 	udiv	r3, r0, r3
 8003f0a:	bf88      	it	hi
 8003f0c:	f44f 7696 	movhi.w	r6, #300	; 0x12c
 8003f10:	6822      	ldr	r2, [r4, #0]
 8003f12:	6851      	ldr	r1, [r2, #4]
 8003f14:	f021 013f 	bic.w	r1, r1, #63	; 0x3f
 8003f18:	ea41 0103 	orr.w	r1, r1, r3
 8003f1c:	bf82      	ittt	hi
 8003f1e:	4373      	mulhi	r3, r6
 8003f20:	f44f 767a 	movhi.w	r6, #1000	; 0x3e8
 8003f24:	fbb3 f3f6 	udivhi	r3, r3, r6
 8003f28:	6051      	str	r1, [r2, #4]
 8003f2a:	6a11      	ldr	r1, [r2, #32]
 8003f2c:	3301      	adds	r3, #1
 8003f2e:	f021 013f 	bic.w	r1, r1, #63	; 0x3f
 8003f32:	430b      	orrs	r3, r1
 8003f34:	6213      	str	r3, [r2, #32]
 8003f36:	69d1      	ldr	r1, [r2, #28]
 8003f38:	1e43      	subs	r3, r0, #1
 8003f3a:	482b      	ldr	r0, [pc, #172]	; (8003fe8 <HAL_I2C_Init+0x140>)
 8003f3c:	f421 414f 	bic.w	r1, r1, #52992	; 0xcf00
 8003f40:	4285      	cmp	r5, r0
 8003f42:	f021 01ff 	bic.w	r1, r1, #255	; 0xff
 8003f46:	d832      	bhi.n	8003fae <HAL_I2C_Init+0x106>
 8003f48:	006d      	lsls	r5, r5, #1
 8003f4a:	fbb3 f3f5 	udiv	r3, r3, r5
 8003f4e:	f640 70fc 	movw	r0, #4092	; 0xffc
 8003f52:	3301      	adds	r3, #1
 8003f54:	4203      	tst	r3, r0
 8003f56:	d042      	beq.n	8003fde <HAL_I2C_Init+0x136>
 8003f58:	f3c3 030b 	ubfx	r3, r3, #0, #12
 8003f5c:	4319      	orrs	r1, r3
 8003f5e:	61d1      	str	r1, [r2, #28]
 8003f60:	6811      	ldr	r1, [r2, #0]
 8003f62:	e9d4 3007 	ldrd	r3, r0, [r4, #28]
 8003f66:	f021 01c0 	bic.w	r1, r1, #192	; 0xc0
 8003f6a:	4303      	orrs	r3, r0
 8003f6c:	430b      	orrs	r3, r1
 8003f6e:	6013      	str	r3, [r2, #0]
 8003f70:	6891      	ldr	r1, [r2, #8]
 8003f72:	e9d4 0303 	ldrd	r0, r3, [r4, #12]
 8003f76:	f421 4103 	bic.w	r1, r1, #33536	; 0x8300
 8003f7a:	4303      	orrs	r3, r0
 8003f7c:	f021 01ff 	bic.w	r1, r1, #255	; 0xff
 8003f80:	430b      	orrs	r3, r1
 8003f82:	6093      	str	r3, [r2, #8]
 8003f84:	68d1      	ldr	r1, [r2, #12]
 8003f86:	e9d4 3005 	ldrd	r3, r0, [r4, #20]
 8003f8a:	f021 01ff 	bic.w	r1, r1, #255	; 0xff
 8003f8e:	4303      	orrs	r3, r0
 8003f90:	430b      	orrs	r3, r1
 8003f92:	60d3      	str	r3, [r2, #12]
 8003f94:	6813      	ldr	r3, [r2, #0]
 8003f96:	2000      	movs	r0, #0
 8003f98:	f043 0301 	orr.w	r3, r3, #1
 8003f9c:	6013      	str	r3, [r2, #0]
 8003f9e:	2320      	movs	r3, #32
 8003fa0:	6420      	str	r0, [r4, #64]	; 0x40
 8003fa2:	f884 303d 	strb.w	r3, [r4, #61]	; 0x3d
 8003fa6:	6320      	str	r0, [r4, #48]	; 0x30
 8003fa8:	f884 003e 	strb.w	r0, [r4, #62]	; 0x3e
 8003fac:	e780      	b.n	8003eb0 <HAL_I2C_Init+0x8>
 8003fae:	68a0      	ldr	r0, [r4, #8]
 8003fb0:	b950      	cbnz	r0, 8003fc8 <HAL_I2C_Init+0x120>
 8003fb2:	eb05 0545 	add.w	r5, r5, r5, lsl #1
 8003fb6:	fbb3 f3f5 	udiv	r3, r3, r5
 8003fba:	3301      	adds	r3, #1
 8003fbc:	f3c3 030b 	ubfx	r3, r3, #0, #12
 8003fc0:	b17b      	cbz	r3, 8003fe2 <HAL_I2C_Init+0x13a>
 8003fc2:	f443 4300 	orr.w	r3, r3, #32768	; 0x8000
 8003fc6:	e7c9      	b.n	8003f5c <HAL_I2C_Init+0xb4>
 8003fc8:	2019      	movs	r0, #25
 8003fca:	4368      	muls	r0, r5
 8003fcc:	fbb3 f3f0 	udiv	r3, r3, r0
 8003fd0:	3301      	adds	r3, #1
 8003fd2:	f3c3 030b 	ubfx	r3, r3, #0, #12
 8003fd6:	b123      	cbz	r3, 8003fe2 <HAL_I2C_Init+0x13a>
 8003fd8:	f443 4340 	orr.w	r3, r3, #49152	; 0xc000
 8003fdc:	e7be      	b.n	8003f5c <HAL_I2C_Init+0xb4>
 8003fde:	2304      	movs	r3, #4
 8003fe0:	e7bc      	b.n	8003f5c <HAL_I2C_Init+0xb4>
 8003fe2:	2301      	movs	r3, #1
 8003fe4:	e7ba      	b.n	8003f5c <HAL_I2C_Init+0xb4>
 8003fe6:	bf00      	nop
 8003fe8:	000186a0 	.word	0x000186a0
 8003fec:	001e847f 	.word	0x001e847f
 8003ff0:	003d08ff 	.word	0x003d08ff
 8003ff4:	000f4240 	.word	0x000f4240

08003ff8 <HAL_I2C_Mem_Write>:
 8003ff8:	e92d 43f7 	stmdb	sp!, {r0, r1, r2, r4, r5, r6, r7, r8, r9, lr}
 8003ffc:	4604      	mov	r4, r0
 8003ffe:	4699      	mov	r9, r3
 8004000:	460f      	mov	r7, r1
 8004002:	4690      	mov	r8, r2
 8004004:	9e0c      	ldr	r6, [sp, #48]	; 0x30
 8004006:	f7fe ffe1 	bl	8002fcc <HAL_GetTick>
 800400a:	f894 303d 	ldrb.w	r3, [r4, #61]	; 0x3d
 800400e:	4605      	mov	r5, r0
 8004010:	2b20      	cmp	r3, #32
 8004012:	d003      	beq.n	800401c <HAL_I2C_Mem_Write+0x24>
 8004014:	2002      	movs	r0, #2
 8004016:	b003      	add	sp, #12
 8004018:	e8bd 83f0 	ldmia.w	sp!, {r4, r5, r6, r7, r8, r9, pc}
 800401c:	9000      	str	r0, [sp, #0]
 800401e:	2319      	movs	r3, #25
 8004020:	2201      	movs	r2, #1
 8004022:	4620      	mov	r0, r4
 8004024:	493a      	ldr	r1, [pc, #232]	; (8004110 <HAL_I2C_Mem_Write+0x118>)
 8004026:	f7ff fd5a 	bl	8003ade <I2C_WaitOnFlagUntilTimeout>
 800402a:	2800      	cmp	r0, #0
 800402c:	d1f2      	bne.n	8004014 <HAL_I2C_Mem_Write+0x1c>
 800402e:	f894 303c 	ldrb.w	r3, [r4, #60]	; 0x3c
 8004032:	2b01      	cmp	r3, #1
 8004034:	d0ee      	beq.n	8004014 <HAL_I2C_Mem_Write+0x1c>
 8004036:	2301      	movs	r3, #1
 8004038:	6820      	ldr	r0, [r4, #0]
 800403a:	f884 303c 	strb.w	r3, [r4, #60]	; 0x3c
 800403e:	6803      	ldr	r3, [r0, #0]
 8004040:	4642      	mov	r2, r8
 8004042:	07d9      	lsls	r1, r3, #31
 8004044:	bf58      	it	pl
 8004046:	6803      	ldrpl	r3, [r0, #0]
 8004048:	4639      	mov	r1, r7
 800404a:	bf5c      	itt	pl
 800404c:	f043 0301 	orrpl.w	r3, r3, #1
 8004050:	6003      	strpl	r3, [r0, #0]
 8004052:	6803      	ldr	r3, [r0, #0]
 8004054:	f423 6300 	bic.w	r3, r3, #2048	; 0x800
 8004058:	6003      	str	r3, [r0, #0]
 800405a:	2321      	movs	r3, #33	; 0x21
 800405c:	f884 303d 	strb.w	r3, [r4, #61]	; 0x3d
 8004060:	2340      	movs	r3, #64	; 0x40
 8004062:	f884 303e 	strb.w	r3, [r4, #62]	; 0x3e
 8004066:	2300      	movs	r3, #0
 8004068:	6423      	str	r3, [r4, #64]	; 0x40
 800406a:	9b0a      	ldr	r3, [sp, #40]	; 0x28
 800406c:	4620      	mov	r0, r4
 800406e:	6263      	str	r3, [r4, #36]	; 0x24
 8004070:	f8bd 302c 	ldrh.w	r3, [sp, #44]	; 0x2c
 8004074:	e9cd 6500 	strd	r6, r5, [sp]
 8004078:	8563      	strh	r3, [r4, #42]	; 0x2a
 800407a:	8d63      	ldrh	r3, [r4, #42]	; 0x2a
 800407c:	8523      	strh	r3, [r4, #40]	; 0x28
 800407e:	4b25      	ldr	r3, [pc, #148]	; (8004114 <HAL_I2C_Mem_Write+0x11c>)
 8004080:	62e3      	str	r3, [r4, #44]	; 0x2c
 8004082:	464b      	mov	r3, r9
 8004084:	f7ff fdd8 	bl	8003c38 <I2C_RequestMemoryWrite>
 8004088:	2800      	cmp	r0, #0
 800408a:	d02a      	beq.n	80040e2 <HAL_I2C_Mem_Write+0xea>
 800408c:	2001      	movs	r0, #1
 800408e:	e7c2      	b.n	8004016 <HAL_I2C_Mem_Write+0x1e>
 8004090:	f7ff fda7 	bl	8003be2 <I2C_WaitOnTXEFlagUntilTimeout>
 8004094:	b140      	cbz	r0, 80040a8 <HAL_I2C_Mem_Write+0xb0>
 8004096:	6c23      	ldr	r3, [r4, #64]	; 0x40
 8004098:	2b04      	cmp	r3, #4
 800409a:	bf01      	itttt	eq
 800409c:	6822      	ldreq	r2, [r4, #0]
 800409e:	6813      	ldreq	r3, [r2, #0]
 80040a0:	f443 7300 	orreq.w	r3, r3, #512	; 0x200
 80040a4:	6013      	streq	r3, [r2, #0]
 80040a6:	e7f1      	b.n	800408c <HAL_I2C_Mem_Write+0x94>
 80040a8:	6a63      	ldr	r3, [r4, #36]	; 0x24
 80040aa:	6827      	ldr	r7, [r4, #0]
 80040ac:	461a      	mov	r2, r3
 80040ae:	f812 1b01 	ldrb.w	r1, [r2], #1
 80040b2:	6139      	str	r1, [r7, #16]
 80040b4:	6262      	str	r2, [r4, #36]	; 0x24
 80040b6:	8d62      	ldrh	r2, [r4, #42]	; 0x2a
 80040b8:	8d21      	ldrh	r1, [r4, #40]	; 0x28
 80040ba:	3a01      	subs	r2, #1
 80040bc:	b292      	uxth	r2, r2
 80040be:	8562      	strh	r2, [r4, #42]	; 0x2a
 80040c0:	697a      	ldr	r2, [r7, #20]
 80040c2:	1e48      	subs	r0, r1, #1
 80040c4:	b280      	uxth	r0, r0
 80040c6:	0752      	lsls	r2, r2, #29
 80040c8:	8520      	strh	r0, [r4, #40]	; 0x28
 80040ca:	d50a      	bpl.n	80040e2 <HAL_I2C_Mem_Write+0xea>
 80040cc:	b148      	cbz	r0, 80040e2 <HAL_I2C_Mem_Write+0xea>
 80040ce:	785a      	ldrb	r2, [r3, #1]
 80040d0:	3302      	adds	r3, #2
 80040d2:	613a      	str	r2, [r7, #16]
 80040d4:	6263      	str	r3, [r4, #36]	; 0x24
 80040d6:	8d63      	ldrh	r3, [r4, #42]	; 0x2a
 80040d8:	3902      	subs	r1, #2
 80040da:	3b01      	subs	r3, #1
 80040dc:	b29b      	uxth	r3, r3
 80040de:	8521      	strh	r1, [r4, #40]	; 0x28
 80040e0:	8563      	strh	r3, [r4, #42]	; 0x2a
 80040e2:	8d23      	ldrh	r3, [r4, #40]	; 0x28
 80040e4:	462a      	mov	r2, r5
 80040e6:	4631      	mov	r1, r6
 80040e8:	4620      	mov	r0, r4
 80040ea:	2b00      	cmp	r3, #0
 80040ec:	d1d0      	bne.n	8004090 <HAL_I2C_Mem_Write+0x98>
 80040ee:	f7ff fe7d 	bl	8003dec <I2C_WaitOnBTFFlagUntilTimeout>
 80040f2:	2800      	cmp	r0, #0
 80040f4:	d1cf      	bne.n	8004096 <HAL_I2C_Mem_Write+0x9e>
 80040f6:	6822      	ldr	r2, [r4, #0]
 80040f8:	6813      	ldr	r3, [r2, #0]
 80040fa:	f443 7300 	orr.w	r3, r3, #512	; 0x200
 80040fe:	6013      	str	r3, [r2, #0]
 8004100:	2320      	movs	r3, #32
 8004102:	f884 003c 	strb.w	r0, [r4, #60]	; 0x3c
 8004106:	f884 303d 	strb.w	r3, [r4, #61]	; 0x3d
 800410a:	f884 003e 	strb.w	r0, [r4, #62]	; 0x3e
 800410e:	e782      	b.n	8004016 <HAL_I2C_Mem_Write+0x1e>
 8004110:	00100002 	.word	0x00100002
 8004114:	ffff0000 	.word	0xffff0000

08004118 <HAL_I2C_Mem_Read>:
 8004118:	e92d 43f0 	stmdb	sp!, {r4, r5, r6, r7, r8, r9, lr}
 800411c:	4699      	mov	r9, r3
 800411e:	2300      	movs	r3, #0
 8004120:	4604      	mov	r4, r0
 8004122:	b089      	sub	sp, #36	; 0x24
 8004124:	9303      	str	r3, [sp, #12]
 8004126:	460d      	mov	r5, r1
 8004128:	4690      	mov	r8, r2
 800412a:	9f12      	ldr	r7, [sp, #72]	; 0x48
 800412c:	f7fe ff4e 	bl	8002fcc <HAL_GetTick>
 8004130:	f894 303d 	ldrb.w	r3, [r4, #61]	; 0x3d
 8004134:	4606      	mov	r6, r0
 8004136:	2b20      	cmp	r3, #32
 8004138:	d004      	beq.n	8004144 <HAL_I2C_Mem_Read+0x2c>
 800413a:	2502      	movs	r5, #2
 800413c:	4628      	mov	r0, r5
 800413e:	b009      	add	sp, #36	; 0x24
 8004140:	e8bd 83f0 	ldmia.w	sp!, {r4, r5, r6, r7, r8, r9, pc}
 8004144:	9000      	str	r0, [sp, #0]
 8004146:	2319      	movs	r3, #25
 8004148:	2201      	movs	r2, #1
 800414a:	4620      	mov	r0, r4
 800414c:	498d      	ldr	r1, [pc, #564]	; (8004384 <HAL_I2C_Mem_Read+0x26c>)
 800414e:	f7ff fcc6 	bl	8003ade <I2C_WaitOnFlagUntilTimeout>
 8004152:	2800      	cmp	r0, #0
 8004154:	d1f1      	bne.n	800413a <HAL_I2C_Mem_Read+0x22>
 8004156:	f894 303c 	ldrb.w	r3, [r4, #60]	; 0x3c
 800415a:	2b01      	cmp	r3, #1
 800415c:	d0ed      	beq.n	800413a <HAL_I2C_Mem_Read+0x22>
 800415e:	2301      	movs	r3, #1
 8004160:	6820      	ldr	r0, [r4, #0]
 8004162:	f884 303c 	strb.w	r3, [r4, #60]	; 0x3c
 8004166:	6803      	ldr	r3, [r0, #0]
 8004168:	4629      	mov	r1, r5
 800416a:	07db      	lsls	r3, r3, #31
 800416c:	bf58      	it	pl
 800416e:	6803      	ldrpl	r3, [r0, #0]
 8004170:	4642      	mov	r2, r8
 8004172:	bf5c      	itt	pl
 8004174:	f043 0301 	orrpl.w	r3, r3, #1
 8004178:	6003      	strpl	r3, [r0, #0]
 800417a:	6803      	ldr	r3, [r0, #0]
 800417c:	f423 6300 	bic.w	r3, r3, #2048	; 0x800
 8004180:	6003      	str	r3, [r0, #0]
 8004182:	2322      	movs	r3, #34	; 0x22
 8004184:	f884 303d 	strb.w	r3, [r4, #61]	; 0x3d
 8004188:	2340      	movs	r3, #64	; 0x40
 800418a:	f884 303e 	strb.w	r3, [r4, #62]	; 0x3e
 800418e:	2300      	movs	r3, #0
 8004190:	6423      	str	r3, [r4, #64]	; 0x40
 8004192:	9b10      	ldr	r3, [sp, #64]	; 0x40
 8004194:	4620      	mov	r0, r4
 8004196:	6263      	str	r3, [r4, #36]	; 0x24
 8004198:	f8bd 3044 	ldrh.w	r3, [sp, #68]	; 0x44
 800419c:	e9cd 7600 	strd	r7, r6, [sp]
 80041a0:	8563      	strh	r3, [r4, #42]	; 0x2a
 80041a2:	8d63      	ldrh	r3, [r4, #42]	; 0x2a
 80041a4:	8523      	strh	r3, [r4, #40]	; 0x28
 80041a6:	4b78      	ldr	r3, [pc, #480]	; (8004388 <HAL_I2C_Mem_Read+0x270>)
 80041a8:	62e3      	str	r3, [r4, #44]	; 0x2c
 80041aa:	464b      	mov	r3, r9
 80041ac:	f7ff fd9c 	bl	8003ce8 <I2C_RequestMemoryRead>
 80041b0:	4605      	mov	r5, r0
 80041b2:	b108      	cbz	r0, 80041b8 <HAL_I2C_Mem_Read+0xa0>
 80041b4:	2501      	movs	r5, #1
 80041b6:	e7c1      	b.n	800413c <HAL_I2C_Mem_Read+0x24>
 80041b8:	8d22      	ldrh	r2, [r4, #40]	; 0x28
 80041ba:	6823      	ldr	r3, [r4, #0]
 80041bc:	b9c2      	cbnz	r2, 80041f0 <HAL_I2C_Mem_Read+0xd8>
 80041be:	9004      	str	r0, [sp, #16]
 80041c0:	695a      	ldr	r2, [r3, #20]
 80041c2:	9204      	str	r2, [sp, #16]
 80041c4:	699a      	ldr	r2, [r3, #24]
 80041c6:	9204      	str	r2, [sp, #16]
 80041c8:	9a04      	ldr	r2, [sp, #16]
 80041ca:	681a      	ldr	r2, [r3, #0]
 80041cc:	f442 7200 	orr.w	r2, r2, #512	; 0x200
 80041d0:	601a      	str	r2, [r3, #0]
 80041d2:	f8df 81b8 	ldr.w	r8, [pc, #440]	; 800438c <HAL_I2C_Mem_Read+0x274>
 80041d6:	f8df 91b8 	ldr.w	r9, [pc, #440]	; 8004390 <HAL_I2C_Mem_Read+0x278>
 80041da:	8d23      	ldrh	r3, [r4, #40]	; 0x28
 80041dc:	2b00      	cmp	r3, #0
 80041de:	d137      	bne.n	8004250 <HAL_I2C_Mem_Read+0x138>
 80041e0:	2220      	movs	r2, #32
 80041e2:	f884 303c 	strb.w	r3, [r4, #60]	; 0x3c
 80041e6:	f884 203d 	strb.w	r2, [r4, #61]	; 0x3d
 80041ea:	f884 303e 	strb.w	r3, [r4, #62]	; 0x3e
 80041ee:	e7a5      	b.n	800413c <HAL_I2C_Mem_Read+0x24>
 80041f0:	2a01      	cmp	r2, #1
 80041f2:	d111      	bne.n	8004218 <HAL_I2C_Mem_Read+0x100>
 80041f4:	681a      	ldr	r2, [r3, #0]
 80041f6:	f422 6280 	bic.w	r2, r2, #1024	; 0x400
 80041fa:	601a      	str	r2, [r3, #0]
 80041fc:	b672      	cpsid	i
 80041fe:	6823      	ldr	r3, [r4, #0]
 8004200:	9005      	str	r0, [sp, #20]
 8004202:	695a      	ldr	r2, [r3, #20]
 8004204:	9205      	str	r2, [sp, #20]
 8004206:	699a      	ldr	r2, [r3, #24]
 8004208:	9205      	str	r2, [sp, #20]
 800420a:	9a05      	ldr	r2, [sp, #20]
 800420c:	681a      	ldr	r2, [r3, #0]
 800420e:	f442 7200 	orr.w	r2, r2, #512	; 0x200
 8004212:	601a      	str	r2, [r3, #0]
 8004214:	b662      	cpsie	i
 8004216:	e7dc      	b.n	80041d2 <HAL_I2C_Mem_Read+0xba>
 8004218:	2a02      	cmp	r2, #2
 800421a:	681a      	ldr	r2, [r3, #0]
 800421c:	d10e      	bne.n	800423c <HAL_I2C_Mem_Read+0x124>
 800421e:	f442 6200 	orr.w	r2, r2, #2048	; 0x800
 8004222:	601a      	str	r2, [r3, #0]
 8004224:	b672      	cpsid	i
 8004226:	6823      	ldr	r3, [r4, #0]
 8004228:	9006      	str	r0, [sp, #24]
 800422a:	695a      	ldr	r2, [r3, #20]
 800422c:	9206      	str	r2, [sp, #24]
 800422e:	699a      	ldr	r2, [r3, #24]
 8004230:	9206      	str	r2, [sp, #24]
 8004232:	9a06      	ldr	r2, [sp, #24]
 8004234:	681a      	ldr	r2, [r3, #0]
 8004236:	f422 6280 	bic.w	r2, r2, #1024	; 0x400
 800423a:	e7ea      	b.n	8004212 <HAL_I2C_Mem_Read+0xfa>
 800423c:	f442 6280 	orr.w	r2, r2, #1024	; 0x400
 8004240:	601a      	str	r2, [r3, #0]
 8004242:	9007      	str	r0, [sp, #28]
 8004244:	695a      	ldr	r2, [r3, #20]
 8004246:	9207      	str	r2, [sp, #28]
 8004248:	699b      	ldr	r3, [r3, #24]
 800424a:	9307      	str	r3, [sp, #28]
 800424c:	9b07      	ldr	r3, [sp, #28]
 800424e:	e7c0      	b.n	80041d2 <HAL_I2C_Mem_Read+0xba>
 8004250:	2b03      	cmp	r3, #3
 8004252:	d878      	bhi.n	8004346 <HAL_I2C_Mem_Read+0x22e>
 8004254:	2b01      	cmp	r3, #1
 8004256:	d115      	bne.n	8004284 <HAL_I2C_Mem_Read+0x16c>
 8004258:	4632      	mov	r2, r6
 800425a:	4639      	mov	r1, r7
 800425c:	4620      	mov	r0, r4
 800425e:	f7ff fdef 	bl	8003e40 <I2C_WaitOnRXNEFlagUntilTimeout>
 8004262:	2800      	cmp	r0, #0
 8004264:	d1a6      	bne.n	80041b4 <HAL_I2C_Mem_Read+0x9c>
 8004266:	6823      	ldr	r3, [r4, #0]
 8004268:	691a      	ldr	r2, [r3, #16]
 800426a:	6a63      	ldr	r3, [r4, #36]	; 0x24
 800426c:	701a      	strb	r2, [r3, #0]
 800426e:	6a63      	ldr	r3, [r4, #36]	; 0x24
 8004270:	3301      	adds	r3, #1
 8004272:	6263      	str	r3, [r4, #36]	; 0x24
 8004274:	8d23      	ldrh	r3, [r4, #40]	; 0x28
 8004276:	3b01      	subs	r3, #1
 8004278:	8523      	strh	r3, [r4, #40]	; 0x28
 800427a:	8d63      	ldrh	r3, [r4, #42]	; 0x2a
 800427c:	3b01      	subs	r3, #1
 800427e:	b29b      	uxth	r3, r3
 8004280:	8563      	strh	r3, [r4, #42]	; 0x2a
 8004282:	e7aa      	b.n	80041da <HAL_I2C_Mem_Read+0xc2>
 8004284:	2b02      	cmp	r3, #2
 8004286:	f04f 0200 	mov.w	r2, #0
 800428a:	463b      	mov	r3, r7
 800428c:	4641      	mov	r1, r8
 800428e:	4620      	mov	r0, r4
 8004290:	9600      	str	r6, [sp, #0]
 8004292:	d118      	bne.n	80042c6 <HAL_I2C_Mem_Read+0x1ae>
 8004294:	f7ff fc23 	bl	8003ade <I2C_WaitOnFlagUntilTimeout>
 8004298:	2800      	cmp	r0, #0
 800429a:	d18b      	bne.n	80041b4 <HAL_I2C_Mem_Read+0x9c>
 800429c:	b672      	cpsid	i
 800429e:	6823      	ldr	r3, [r4, #0]
 80042a0:	681a      	ldr	r2, [r3, #0]
 80042a2:	f442 7200 	orr.w	r2, r2, #512	; 0x200
 80042a6:	601a      	str	r2, [r3, #0]
 80042a8:	691a      	ldr	r2, [r3, #16]
 80042aa:	6a63      	ldr	r3, [r4, #36]	; 0x24
 80042ac:	701a      	strb	r2, [r3, #0]
 80042ae:	6a63      	ldr	r3, [r4, #36]	; 0x24
 80042b0:	3301      	adds	r3, #1
 80042b2:	6263      	str	r3, [r4, #36]	; 0x24
 80042b4:	8d23      	ldrh	r3, [r4, #40]	; 0x28
 80042b6:	3b01      	subs	r3, #1
 80042b8:	8523      	strh	r3, [r4, #40]	; 0x28
 80042ba:	8d63      	ldrh	r3, [r4, #42]	; 0x2a
 80042bc:	3b01      	subs	r3, #1
 80042be:	b29b      	uxth	r3, r3
 80042c0:	8563      	strh	r3, [r4, #42]	; 0x2a
 80042c2:	b662      	cpsie	i
 80042c4:	e7cf      	b.n	8004266 <HAL_I2C_Mem_Read+0x14e>
 80042c6:	f7ff fc0a 	bl	8003ade <I2C_WaitOnFlagUntilTimeout>
 80042ca:	2800      	cmp	r0, #0
 80042cc:	f47f af72 	bne.w	80041b4 <HAL_I2C_Mem_Read+0x9c>
 80042d0:	6822      	ldr	r2, [r4, #0]
 80042d2:	6813      	ldr	r3, [r2, #0]
 80042d4:	f423 6380 	bic.w	r3, r3, #1024	; 0x400
 80042d8:	6013      	str	r3, [r2, #0]
 80042da:	b672      	cpsid	i
 80042dc:	f246 11a8 	movw	r1, #25000	; 0x61a8
 80042e0:	6823      	ldr	r3, [r4, #0]
 80042e2:	691a      	ldr	r2, [r3, #16]
 80042e4:	6a63      	ldr	r3, [r4, #36]	; 0x24
 80042e6:	701a      	strb	r2, [r3, #0]
 80042e8:	6a62      	ldr	r2, [r4, #36]	; 0x24
 80042ea:	1c53      	adds	r3, r2, #1
 80042ec:	6263      	str	r3, [r4, #36]	; 0x24
 80042ee:	8d23      	ldrh	r3, [r4, #40]	; 0x28
 80042f0:	3b01      	subs	r3, #1
 80042f2:	8523      	strh	r3, [r4, #40]	; 0x28
 80042f4:	8d63      	ldrh	r3, [r4, #42]	; 0x2a
 80042f6:	3b01      	subs	r3, #1
 80042f8:	b29b      	uxth	r3, r3
 80042fa:	8563      	strh	r3, [r4, #42]	; 0x2a
 80042fc:	f8d9 3000 	ldr.w	r3, [r9]
 8004300:	fbb3 f3f1 	udiv	r3, r3, r1
 8004304:	2123      	movs	r1, #35	; 0x23
 8004306:	434b      	muls	r3, r1
 8004308:	9303      	str	r3, [sp, #12]
 800430a:	9b03      	ldr	r3, [sp, #12]
 800430c:	3b01      	subs	r3, #1
 800430e:	9303      	str	r3, [sp, #12]
 8004310:	9b03      	ldr	r3, [sp, #12]
 8004312:	b96b      	cbnz	r3, 8004330 <HAL_I2C_Mem_Read+0x218>
 8004314:	2220      	movs	r2, #32
 8004316:	6323      	str	r3, [r4, #48]	; 0x30
 8004318:	f884 203d 	strb.w	r2, [r4, #61]	; 0x3d
 800431c:	f884 303e 	strb.w	r3, [r4, #62]	; 0x3e
 8004320:	6c22      	ldr	r2, [r4, #64]	; 0x40
 8004322:	f042 0220 	orr.w	r2, r2, #32
 8004326:	6422      	str	r2, [r4, #64]	; 0x40
 8004328:	b662      	cpsie	i
 800432a:	f884 303c 	strb.w	r3, [r4, #60]	; 0x3c
 800432e:	e741      	b.n	80041b4 <HAL_I2C_Mem_Read+0x9c>
 8004330:	6823      	ldr	r3, [r4, #0]
 8004332:	6959      	ldr	r1, [r3, #20]
 8004334:	0748      	lsls	r0, r1, #29
 8004336:	d5e8      	bpl.n	800430a <HAL_I2C_Mem_Read+0x1f2>
 8004338:	6819      	ldr	r1, [r3, #0]
 800433a:	f441 7100 	orr.w	r1, r1, #512	; 0x200
 800433e:	6019      	str	r1, [r3, #0]
 8004340:	691b      	ldr	r3, [r3, #16]
 8004342:	7053      	strb	r3, [r2, #1]
 8004344:	e7b3      	b.n	80042ae <HAL_I2C_Mem_Read+0x196>
 8004346:	4632      	mov	r2, r6
 8004348:	4639      	mov	r1, r7
 800434a:	4620      	mov	r0, r4
 800434c:	f7ff fd78 	bl	8003e40 <I2C_WaitOnRXNEFlagUntilTimeout>
 8004350:	2800      	cmp	r0, #0
 8004352:	f47f af2f 	bne.w	80041b4 <HAL_I2C_Mem_Read+0x9c>
 8004356:	6823      	ldr	r3, [r4, #0]
 8004358:	691a      	ldr	r2, [r3, #16]
 800435a:	6a63      	ldr	r3, [r4, #36]	; 0x24
 800435c:	701a      	strb	r2, [r3, #0]
 800435e:	6a62      	ldr	r2, [r4, #36]	; 0x24
 8004360:	1c53      	adds	r3, r2, #1
 8004362:	6263      	str	r3, [r4, #36]	; 0x24
 8004364:	8d23      	ldrh	r3, [r4, #40]	; 0x28
 8004366:	3b01      	subs	r3, #1
 8004368:	8523      	strh	r3, [r4, #40]	; 0x28
 800436a:	8d63      	ldrh	r3, [r4, #42]	; 0x2a
 800436c:	3b01      	subs	r3, #1
 800436e:	b29b      	uxth	r3, r3
 8004370:	8563      	strh	r3, [r4, #42]	; 0x2a
 8004372:	6823      	ldr	r3, [r4, #0]
 8004374:	6959      	ldr	r1, [r3, #20]
 8004376:	0749      	lsls	r1, r1, #29
 8004378:	f57f af2f 	bpl.w	80041da <HAL_I2C_Mem_Read+0xc2>
 800437c:	691b      	ldr	r3, [r3, #16]
 800437e:	7053      	strb	r3, [r2, #1]
 8004380:	e775      	b.n	800426e <HAL_I2C_Mem_Read+0x156>
 8004382:	bf00      	nop
 8004384:	00100002 	.word	0x00100002
 8004388:	ffff0000 	.word	0xffff0000
 800438c:	00010004 	.word	0x00010004
 8004390:	20000024 	.word	0x20000024

08004394 <HAL_PCD_Init>:
 8004394:	b5f0      	push	{r4, r5, r6, r7, lr}
 8004396:	4604      	mov	r4, r0
 8004398:	b087      	sub	sp, #28
 800439a:	b310      	cbz	r0, 80043e2 <HAL_PCD_Init+0x4e>
 800439c:	f890 32a9 	ldrb.w	r3, [r0, #681]	; 0x2a9
 80043a0:	f003 02ff 	and.w	r2, r3, #255	; 0xff
 80043a4:	b91b      	cbnz	r3, 80043ae <HAL_PCD_Init+0x1a>
 80043a6:	f880 22a8 	strb.w	r2, [r0, #680]	; 0x2a8
 80043aa:	f003 fac3 	bl	8007934 <HAL_PCD_MspInit>
 80043ae:	2303      	movs	r3, #3
 80043b0:	4625      	mov	r5, r4
 80043b2:	466e      	mov	r6, sp
 80043b4:	f884 32a9 	strb.w	r3, [r4, #681]	; 0x2a9
 80043b8:	f855 0b10 	ldr.w	r0, [r5], #16
 80043bc:	f001 ffaa 	bl	8006314 <USB_DisableGlobalInt>
 80043c0:	cd0f      	ldmia	r5!, {r0, r1, r2, r3}
 80043c2:	c60f      	stmia	r6!, {r0, r1, r2, r3}
 80043c4:	682b      	ldr	r3, [r5, #0]
 80043c6:	1d27      	adds	r7, r4, #4
 80043c8:	6033      	str	r3, [r6, #0]
 80043ca:	4626      	mov	r6, r4
 80043cc:	e897 000e 	ldmia.w	r7, {r1, r2, r3}
 80043d0:	f856 0b10 	ldr.w	r0, [r6], #16
 80043d4:	f001 ff8e 	bl	80062f4 <USB_CoreInit>
 80043d8:	4605      	mov	r5, r0
 80043da:	b120      	cbz	r0, 80043e6 <HAL_PCD_Init+0x52>
 80043dc:	2302      	movs	r3, #2
 80043de:	f884 32a9 	strb.w	r3, [r4, #681]	; 0x2a9
 80043e2:	2501      	movs	r5, #1
 80043e4:	e04b      	b.n	800447e <HAL_PCD_Init+0xea>
 80043e6:	4601      	mov	r1, r0
 80043e8:	6820      	ldr	r0, [r4, #0]
 80043ea:	f001 ff9d 	bl	8006328 <USB_SetCurrentMode>
 80043ee:	4629      	mov	r1, r5
 80043f0:	f04f 0e01 	mov.w	lr, #1
 80043f4:	2528      	movs	r5, #40	; 0x28
 80043f6:	460a      	mov	r2, r1
 80043f8:	f8d4 c004 	ldr.w	ip, [r4, #4]
 80043fc:	b2c8      	uxtb	r0, r1
 80043fe:	4584      	cmp	ip, r0
 8004400:	f101 0101 	add.w	r1, r1, #1
 8004404:	d81b      	bhi.n	800443e <HAL_PCD_Init+0xaa>
 8004406:	2300      	movs	r3, #0
 8004408:	2528      	movs	r5, #40	; 0x28
 800440a:	4619      	mov	r1, r3
 800440c:	b2d8      	uxtb	r0, r3
 800440e:	4584      	cmp	ip, r0
 8004410:	f103 0301 	add.w	r3, r3, #1
 8004414:	d81f      	bhi.n	8004456 <HAL_PCD_Init+0xc2>
 8004416:	46ec      	mov	ip, sp
 8004418:	4635      	mov	r5, r6
 800441a:	cd0f      	ldmia	r5!, {r0, r1, r2, r3}
 800441c:	e8ac 000f 	stmia.w	ip!, {r0, r1, r2, r3}
 8004420:	682b      	ldr	r3, [r5, #0]
 8004422:	f8cc 3000 	str.w	r3, [ip]
 8004426:	e897 000e 	ldmia.w	r7, {r1, r2, r3}
 800442a:	6820      	ldr	r0, [r4, #0]
 800442c:	f001 ff7e 	bl	800632c <USB_DevInit>
 8004430:	2301      	movs	r3, #1
 8004432:	4605      	mov	r5, r0
 8004434:	b1e0      	cbz	r0, 8004470 <HAL_PCD_Init+0xdc>
 8004436:	2202      	movs	r2, #2
 8004438:	f884 22a9 	strb.w	r2, [r4, #681]	; 0x2a9
 800443c:	e7d1      	b.n	80043e2 <HAL_PCD_Init+0x4e>
 800443e:	fb05 4300 	mla	r3, r5, r0, r4
 8004442:	e9c3 220e 	strd	r2, r2, [r3, #56]	; 0x38
 8004446:	f883 e029 	strb.w	lr, [r3, #41]	; 0x29
 800444a:	f883 0028 	strb.w	r0, [r3, #40]	; 0x28
 800444e:	f883 202b 	strb.w	r2, [r3, #43]	; 0x2b
 8004452:	641a      	str	r2, [r3, #64]	; 0x40
 8004454:	e7d2      	b.n	80043fc <HAL_PCD_Init+0x68>
 8004456:	fb05 4200 	mla	r2, r5, r0, r4
 800445a:	e9c2 115e 	strd	r1, r1, [r2, #376]	; 0x178
 800445e:	f882 1169 	strb.w	r1, [r2, #361]	; 0x169
 8004462:	f882 0168 	strb.w	r0, [r2, #360]	; 0x168
 8004466:	f882 116b 	strb.w	r1, [r2, #363]	; 0x16b
 800446a:	f8c2 1180 	str.w	r1, [r2, #384]	; 0x180
 800446e:	e7cd      	b.n	800440c <HAL_PCD_Init+0x78>
 8004470:	f884 0024 	strb.w	r0, [r4, #36]	; 0x24
 8004474:	6820      	ldr	r0, [r4, #0]
 8004476:	f884 32a9 	strb.w	r3, [r4, #681]	; 0x2a9
 800447a:	f002 fa0f 	bl	800689c <USB_DevDisconnect>
 800447e:	4628      	mov	r0, r5
 8004480:	b007      	add	sp, #28
 8004482:	bdf0      	pop	{r4, r5, r6, r7, pc}

08004484 <HAL_PCD_Start>:
 8004484:	b538      	push	{r3, r4, r5, lr}
 8004486:	f890 32a8 	ldrb.w	r3, [r0, #680]	; 0x2a8
 800448a:	4604      	mov	r4, r0
 800448c:	2b01      	cmp	r3, #1
 800448e:	d010      	beq.n	80044b2 <HAL_PCD_Start+0x2e>
 8004490:	2501      	movs	r5, #1
 8004492:	f880 52a8 	strb.w	r5, [r0, #680]	; 0x2a8
 8004496:	6800      	ldr	r0, [r0, #0]
 8004498:	f001 ff33 	bl	8006302 <USB_EnableGlobalInt>
 800449c:	4629      	mov	r1, r5
 800449e:	4620      	mov	r0, r4
 80044a0:	f003 fb53 	bl	8007b4a <HAL_PCDEx_SetConnectionState>
 80044a4:	6820      	ldr	r0, [r4, #0]
 80044a6:	f002 f9f7 	bl	8006898 <USB_DevConnect>
 80044aa:	2000      	movs	r0, #0
 80044ac:	f884 02a8 	strb.w	r0, [r4, #680]	; 0x2a8
 80044b0:	bd38      	pop	{r3, r4, r5, pc}
 80044b2:	2002      	movs	r0, #2
 80044b4:	e7fc      	b.n	80044b0 <HAL_PCD_Start+0x2c>

080044b6 <HAL_PCD_SetAddress>:
 80044b6:	b510      	push	{r4, lr}
 80044b8:	f890 22a8 	ldrb.w	r2, [r0, #680]	; 0x2a8
 80044bc:	4604      	mov	r4, r0
 80044be:	2a01      	cmp	r2, #1
 80044c0:	d00b      	beq.n	80044da <HAL_PCD_SetAddress+0x24>
 80044c2:	2201      	movs	r2, #1
 80044c4:	f880 1024 	strb.w	r1, [r0, #36]	; 0x24
 80044c8:	f880 22a8 	strb.w	r2, [r0, #680]	; 0x2a8
 80044cc:	6800      	ldr	r0, [r0, #0]
 80044ce:	f002 f9dd 	bl	800688c <USB_SetDevAddress>
 80044d2:	2000      	movs	r0, #0
 80044d4:	f884 02a8 	strb.w	r0, [r4, #680]	; 0x2a8
 80044d8:	bd10      	pop	{r4, pc}
 80044da:	2002      	movs	r0, #2
 80044dc:	e7fc      	b.n	80044d8 <HAL_PCD_SetAddress+0x22>
	...

080044e0 <HAL_PCD_IRQHandler>:
 80044e0:	e92d 4ff0 	stmdb	sp!, {r4, r5, r6, r7, r8, r9, sl, fp, lr}
 80044e4:	4604      	mov	r4, r0
 80044e6:	b085      	sub	sp, #20
 80044e8:	6800      	ldr	r0, [r0, #0]
 80044ea:	f002 f9d9 	bl	80068a0 <USB_ReadInterrupts>
 80044ee:	f410 4500 	ands.w	r5, r0, #32768	; 0x8000
 80044f2:	f000 8424 	beq.w	8004d3e <HAL_PCD_IRQHandler+0x85e>
 80044f6:	f8df 931c 	ldr.w	r9, [pc, #796]	; 8004814 <HAL_PCD_IRQHandler+0x334>
 80044fa:	f8df 831c 	ldr.w	r8, [pc, #796]	; 8004818 <HAL_PCD_IRQHandler+0x338>
 80044fe:	6820      	ldr	r0, [r4, #0]
 8004500:	f8b0 3044 	ldrh.w	r3, [r0, #68]	; 0x44
 8004504:	041f      	lsls	r7, r3, #16
 8004506:	d402      	bmi.n	800450e <HAL_PCD_IRQHandler+0x2e>
 8004508:	b005      	add	sp, #20
 800450a:	e8bd 8ff0 	ldmia.w	sp!, {r4, r5, r6, r7, r8, r9, sl, fp, pc}
 800450e:	f8b0 6044 	ldrh.w	r6, [r0, #68]	; 0x44
 8004512:	b2b1      	uxth	r1, r6
 8004514:	f016 060f 	ands.w	r6, r6, #15
 8004518:	f040 80c6 	bne.w	80046a8 <HAL_PCD_IRQHandler+0x1c8>
 800451c:	f011 0110 	ands.w	r1, r1, #16
 8004520:	d12b      	bne.n	800457a <HAL_PCD_IRQHandler+0x9a>
 8004522:	8803      	ldrh	r3, [r0, #0]
 8004524:	b29b      	uxth	r3, r3
 8004526:	ea03 0309 	and.w	r3, r3, r9
 800452a:	f443 4300 	orr.w	r3, r3, #32768	; 0x8000
 800452e:	8003      	strh	r3, [r0, #0]
 8004530:	f8b0 3050 	ldrh.w	r3, [r0, #80]	; 0x50
 8004534:	f894 2028 	ldrb.w	r2, [r4, #40]	; 0x28
 8004538:	b29b      	uxth	r3, r3
 800453a:	eb03 03c2 	add.w	r3, r3, r2, lsl #3
 800453e:	eb00 0343 	add.w	r3, r0, r3, lsl #1
 8004542:	f8b3 3404 	ldrh.w	r3, [r3, #1028]	; 0x404
 8004546:	6be2      	ldr	r2, [r4, #60]	; 0x3c
 8004548:	f3c3 0309 	ubfx	r3, r3, #0, #10
 800454c:	441a      	add	r2, r3
 800454e:	6463      	str	r3, [r4, #68]	; 0x44
 8004550:	4620      	mov	r0, r4
 8004552:	63e2      	str	r2, [r4, #60]	; 0x3c
 8004554:	f003 fa1d 	bl	8007992 <HAL_PCD_DataInStageCallback>
 8004558:	f894 3024 	ldrb.w	r3, [r4, #36]	; 0x24
 800455c:	2b00      	cmp	r3, #0
 800455e:	d0ce      	beq.n	80044fe <HAL_PCD_IRQHandler+0x1e>
 8004560:	6c22      	ldr	r2, [r4, #64]	; 0x40
 8004562:	6821      	ldr	r1, [r4, #0]
 8004564:	2a00      	cmp	r2, #0
 8004566:	d1ca      	bne.n	80044fe <HAL_PCD_IRQHandler+0x1e>
 8004568:	f894 3024 	ldrb.w	r3, [r4, #36]	; 0x24
 800456c:	f043 0380 	orr.w	r3, r3, #128	; 0x80
 8004570:	f8a1 304c 	strh.w	r3, [r1, #76]	; 0x4c
 8004574:	f884 2024 	strb.w	r2, [r4, #36]	; 0x24
 8004578:	e7c1      	b.n	80044fe <HAL_PCD_IRQHandler+0x1e>
 800457a:	8805      	ldrh	r5, [r0, #0]
 800457c:	b2ab      	uxth	r3, r5
 800457e:	f415 6500 	ands.w	r5, r5, #2048	; 0x800
 8004582:	d021      	beq.n	80045c8 <HAL_PCD_IRQHandler+0xe8>
 8004584:	f8b0 3050 	ldrh.w	r3, [r0, #80]	; 0x50
 8004588:	f894 2168 	ldrb.w	r2, [r4, #360]	; 0x168
 800458c:	b29b      	uxth	r3, r3
 800458e:	eb03 03c2 	add.w	r3, r3, r2, lsl #3
 8004592:	eb00 0343 	add.w	r3, r0, r3, lsl #1
 8004596:	f8b3 340c 	ldrh.w	r3, [r3, #1036]	; 0x40c
 800459a:	f8b4 216e 	ldrh.w	r2, [r4, #366]	; 0x16e
 800459e:	f3c3 0309 	ubfx	r3, r3, #0, #10
 80045a2:	f8c4 3184 	str.w	r3, [r4, #388]	; 0x184
 80045a6:	f504 712c 	add.w	r1, r4, #688	; 0x2b0
 80045aa:	f002 fba7 	bl	8006cfc <USB_ReadPMA>
 80045ae:	6822      	ldr	r2, [r4, #0]
 80045b0:	4620      	mov	r0, r4
 80045b2:	8813      	ldrh	r3, [r2, #0]
 80045b4:	f023 0370 	bic.w	r3, r3, #112	; 0x70
 80045b8:	051b      	lsls	r3, r3, #20
 80045ba:	0d1b      	lsrs	r3, r3, #20
 80045bc:	f043 0380 	orr.w	r3, r3, #128	; 0x80
 80045c0:	8013      	strh	r3, [r2, #0]
 80045c2:	f003 f9d7 	bl	8007974 <HAL_PCD_SetupStageCallback>
 80045c6:	e79a      	b.n	80044fe <HAL_PCD_IRQHandler+0x1e>
 80045c8:	0419      	lsls	r1, r3, #16
 80045ca:	d598      	bpl.n	80044fe <HAL_PCD_IRQHandler+0x1e>
 80045cc:	8803      	ldrh	r3, [r0, #0]
 80045ce:	f023 0370 	bic.w	r3, r3, #112	; 0x70
 80045d2:	051b      	lsls	r3, r3, #20
 80045d4:	0d1b      	lsrs	r3, r3, #20
 80045d6:	f043 0380 	orr.w	r3, r3, #128	; 0x80
 80045da:	8003      	strh	r3, [r0, #0]
 80045dc:	f8b0 3050 	ldrh.w	r3, [r0, #80]	; 0x50
 80045e0:	f894 2168 	ldrb.w	r2, [r4, #360]	; 0x168
 80045e4:	b29b      	uxth	r3, r3
 80045e6:	eb03 03c2 	add.w	r3, r3, r2, lsl #3
 80045ea:	eb00 0343 	add.w	r3, r0, r3, lsl #1
 80045ee:	f8b3 340c 	ldrh.w	r3, [r3, #1036]	; 0x40c
 80045f2:	f3c3 0309 	ubfx	r3, r3, #0, #10
 80045f6:	f8c4 3184 	str.w	r3, [r4, #388]	; 0x184
 80045fa:	b18b      	cbz	r3, 8004620 <HAL_PCD_IRQHandler+0x140>
 80045fc:	f8d4 117c 	ldr.w	r1, [r4, #380]	; 0x17c
 8004600:	b171      	cbz	r1, 8004620 <HAL_PCD_IRQHandler+0x140>
 8004602:	f8b4 216e 	ldrh.w	r2, [r4, #366]	; 0x16e
 8004606:	f002 fb79 	bl	8006cfc <USB_ReadPMA>
 800460a:	f8d4 317c 	ldr.w	r3, [r4, #380]	; 0x17c
 800460e:	f8d4 2184 	ldr.w	r2, [r4, #388]	; 0x184
 8004612:	4629      	mov	r1, r5
 8004614:	4413      	add	r3, r2
 8004616:	4620      	mov	r0, r4
 8004618:	f8c4 317c 	str.w	r3, [r4, #380]	; 0x17c
 800461c:	f003 f9b0 	bl	8007980 <HAL_PCD_DataOutStageCallback>
 8004620:	6821      	ldr	r1, [r4, #0]
 8004622:	880a      	ldrh	r2, [r1, #0]
 8004624:	b293      	uxth	r3, r2
 8004626:	0512      	lsls	r2, r2, #20
 8004628:	f53f af69 	bmi.w	80044fe <HAL_PCD_IRQHandler+0x1e>
 800462c:	f403 5340 	and.w	r3, r3, #12288	; 0x3000
 8004630:	f5b3 5f40 	cmp.w	r3, #12288	; 0x3000
 8004634:	f43f af63 	beq.w	80044fe <HAL_PCD_IRQHandler+0x1e>
 8004638:	f8b1 3050 	ldrh.w	r3, [r1, #80]	; 0x50
 800463c:	f201 400c 	addw	r0, r1, #1036	; 0x40c
 8004640:	b29b      	uxth	r3, r3
 8004642:	5ac2      	ldrh	r2, [r0, r3]
 8004644:	f3c2 0209 	ubfx	r2, r2, #0, #10
 8004648:	52c2      	strh	r2, [r0, r3]
 800464a:	f8d4 2178 	ldr.w	r2, [r4, #376]	; 0x178
 800464e:	2a3e      	cmp	r2, #62	; 0x3e
 8004650:	d90c      	bls.n	800466c <HAL_PCD_IRQHandler+0x18c>
 8004652:	0955      	lsrs	r5, r2, #5
 8004654:	06d7      	lsls	r7, r2, #27
 8004656:	5ac2      	ldrh	r2, [r0, r3]
 8004658:	bf08      	it	eq
 800465a:	f105 35ff 	addeq.w	r5, r5, #4294967295
 800465e:	b292      	uxth	r2, r2
 8004660:	ea42 2285 	orr.w	r2, r2, r5, lsl #10
 8004664:	ea42 0208 	orr.w	r2, r2, r8
 8004668:	b292      	uxth	r2, r2
 800466a:	e004      	b.n	8004676 <HAL_PCD_IRQHandler+0x196>
 800466c:	b99a      	cbnz	r2, 8004696 <HAL_PCD_IRQHandler+0x1b6>
 800466e:	5ac2      	ldrh	r2, [r0, r3]
 8004670:	b292      	uxth	r2, r2
 8004672:	f442 4200 	orr.w	r2, r2, #32768	; 0x8000
 8004676:	52c2      	strh	r2, [r0, r3]
 8004678:	880b      	ldrh	r3, [r1, #0]
 800467a:	f423 4380 	bic.w	r3, r3, #16384	; 0x4000
 800467e:	f023 0370 	bic.w	r3, r3, #112	; 0x70
 8004682:	041b      	lsls	r3, r3, #16
 8004684:	0c1b      	lsrs	r3, r3, #16
 8004686:	f483 5340 	eor.w	r3, r3, #12288	; 0x3000
 800468a:	f443 4300 	orr.w	r3, r3, #32768	; 0x8000
 800468e:	f043 0380 	orr.w	r3, r3, #128	; 0x80
 8004692:	800b      	strh	r3, [r1, #0]
 8004694:	e733      	b.n	80044fe <HAL_PCD_IRQHandler+0x1e>
 8004696:	0855      	lsrs	r5, r2, #1
 8004698:	07d6      	lsls	r6, r2, #31
 800469a:	5ac2      	ldrh	r2, [r0, r3]
 800469c:	bf48      	it	mi
 800469e:	3501      	addmi	r5, #1
 80046a0:	b292      	uxth	r2, r2
 80046a2:	ea42 2285 	orr.w	r2, r2, r5, lsl #10
 80046a6:	e7df      	b.n	8004668 <HAL_PCD_IRQHandler+0x188>
 80046a8:	f830 3026 	ldrh.w	r3, [r0, r6, lsl #2]
 80046ac:	041a      	lsls	r2, r3, #16
 80046ae:	b29f      	uxth	r7, r3
 80046b0:	f140 80f1 	bpl.w	8004896 <HAL_PCD_IRQHandler+0x3b6>
 80046b4:	2128      	movs	r1, #40	; 0x28
 80046b6:	f830 3026 	ldrh.w	r3, [r0, r6, lsl #2]
 80046ba:	fb01 4106 	mla	r1, r1, r6, r4
 80046be:	f023 0370 	bic.w	r3, r3, #112	; 0x70
 80046c2:	051b      	lsls	r3, r3, #20
 80046c4:	0d1b      	lsrs	r3, r3, #20
 80046c6:	f043 0380 	orr.w	r3, r3, #128	; 0x80
 80046ca:	f820 3026 	strh.w	r3, [r0, r6, lsl #2]
 80046ce:	f891 3174 	ldrb.w	r3, [r1, #372]	; 0x174
 80046d2:	f500 6c80 	add.w	ip, r0, #1024	; 0x400
 80046d6:	b9b3      	cbnz	r3, 8004706 <HAL_PCD_IRQHandler+0x226>
 80046d8:	f8b0 3050 	ldrh.w	r3, [r0, #80]	; 0x50
 80046dc:	f891 2168 	ldrb.w	r2, [r1, #360]	; 0x168
 80046e0:	b29b      	uxth	r3, r3
 80046e2:	3306      	adds	r3, #6
 80046e4:	eb03 03c2 	add.w	r3, r3, r2, lsl #3
 80046e8:	f83c 5013 	ldrh.w	r5, [ip, r3, lsl #1]
 80046ec:	f3c5 0509 	ubfx	r5, r5, #0, #10
 80046f0:	2d00      	cmp	r5, #0
 80046f2:	f000 80b4 	beq.w	800485e <HAL_PCD_IRQHandler+0x37e>
 80046f6:	462b      	mov	r3, r5
 80046f8:	f8b1 216e 	ldrh.w	r2, [r1, #366]	; 0x16e
 80046fc:	f8d1 117c 	ldr.w	r1, [r1, #380]	; 0x17c
 8004700:	f002 fafc 	bl	8006cfc <USB_ReadPMA>
 8004704:	e0ab      	b.n	800485e <HAL_PCD_IRQHandler+0x37e>
 8004706:	f891 216b 	ldrb.w	r2, [r1, #363]	; 0x16b
 800470a:	f891 3168 	ldrb.w	r3, [r1, #360]	; 0x168
 800470e:	2a02      	cmp	r2, #2
 8004710:	f040 8084 	bne.w	800481c <HAL_PCD_IRQHandler+0x33c>
 8004714:	f8b0 5050 	ldrh.w	r5, [r0, #80]	; 0x50
 8004718:	ea4f 0bc3 	mov.w	fp, r3, lsl #3
 800471c:	b2ad      	uxth	r5, r5
 800471e:	f417 4a80 	ands.w	sl, r7, #16384	; 0x4000
 8004722:	f8d1 2180 	ldr.w	r2, [r1, #384]	; 0x180
 8004726:	445d      	add	r5, fp
 8004728:	f007 0e40 	and.w	lr, r7, #64	; 0x40
 800472c:	d039      	beq.n	80047a2 <HAL_PCD_IRQHandler+0x2c2>
 800472e:	3502      	adds	r5, #2
 8004730:	f83c 5015 	ldrh.w	r5, [ip, r5, lsl #1]
 8004734:	f3c5 0509 	ubfx	r5, r5, #0, #10
 8004738:	4295      	cmp	r5, r2
 800473a:	d913      	bls.n	8004764 <HAL_PCD_IRQHandler+0x284>
 800473c:	2200      	movs	r2, #0
 800473e:	f8c1 2180 	str.w	r2, [r1, #384]	; 0x180
 8004742:	f830 2023 	ldrh.w	r2, [r0, r3, lsl #2]
 8004746:	f422 4280 	bic.w	r2, r2, #16384	; 0x4000
 800474a:	f022 0270 	bic.w	r2, r2, #112	; 0x70
 800474e:	0412      	lsls	r2, r2, #16
 8004750:	0c12      	lsrs	r2, r2, #16
 8004752:	f482 5200 	eor.w	r2, r2, #8192	; 0x2000
 8004756:	f442 4200 	orr.w	r2, r2, #32768	; 0x8000
 800475a:	f042 0280 	orr.w	r2, r2, #128	; 0x80
 800475e:	f820 2023 	strh.w	r2, [r0, r3, lsl #2]
 8004762:	e004      	b.n	800476e <HAL_PCD_IRQHandler+0x28e>
 8004764:	1b52      	subs	r2, r2, r5
 8004766:	f8c1 2180 	str.w	r2, [r1, #384]	; 0x180
 800476a:	2a00      	cmp	r2, #0
 800476c:	d0e9      	beq.n	8004742 <HAL_PCD_IRQHandler+0x262>
 800476e:	f1be 0f00 	cmp.w	lr, #0
 8004772:	d00d      	beq.n	8004790 <HAL_PCD_IRQHandler+0x2b0>
 8004774:	f830 2023 	ldrh.w	r2, [r0, r3, lsl #2]
 8004778:	f422 42e0 	bic.w	r2, r2, #28672	; 0x7000
 800477c:	f022 0270 	bic.w	r2, r2, #112	; 0x70
 8004780:	0412      	lsls	r2, r2, #16
 8004782:	0c12      	lsrs	r2, r2, #16
 8004784:	f442 4200 	orr.w	r2, r2, #32768	; 0x8000
 8004788:	f042 02c0 	orr.w	r2, r2, #192	; 0xc0
 800478c:	f820 2023 	strh.w	r2, [r0, r3, lsl #2]
 8004790:	2d00      	cmp	r5, #0
 8004792:	d064      	beq.n	800485e <HAL_PCD_IRQHandler+0x37e>
 8004794:	2128      	movs	r1, #40	; 0x28
 8004796:	fb01 4106 	mla	r1, r1, r6, r4
 800479a:	462b      	mov	r3, r5
 800479c:	f8b1 2170 	ldrh.w	r2, [r1, #368]	; 0x170
 80047a0:	e7ac      	b.n	80046fc <HAL_PCD_IRQHandler+0x21c>
 80047a2:	3506      	adds	r5, #6
 80047a4:	f83c 5015 	ldrh.w	r5, [ip, r5, lsl #1]
 80047a8:	f3c5 0509 	ubfx	r5, r5, #0, #10
 80047ac:	4295      	cmp	r5, r2
 80047ae:	d912      	bls.n	80047d6 <HAL_PCD_IRQHandler+0x2f6>
 80047b0:	f8c1 a180 	str.w	sl, [r1, #384]	; 0x180
 80047b4:	f830 2023 	ldrh.w	r2, [r0, r3, lsl #2]
 80047b8:	f422 4280 	bic.w	r2, r2, #16384	; 0x4000
 80047bc:	f022 0270 	bic.w	r2, r2, #112	; 0x70
 80047c0:	0412      	lsls	r2, r2, #16
 80047c2:	0c12      	lsrs	r2, r2, #16
 80047c4:	f482 5200 	eor.w	r2, r2, #8192	; 0x2000
 80047c8:	f442 4200 	orr.w	r2, r2, #32768	; 0x8000
 80047cc:	f042 0280 	orr.w	r2, r2, #128	; 0x80
 80047d0:	f820 2023 	strh.w	r2, [r0, r3, lsl #2]
 80047d4:	e004      	b.n	80047e0 <HAL_PCD_IRQHandler+0x300>
 80047d6:	1b52      	subs	r2, r2, r5
 80047d8:	f8c1 2180 	str.w	r2, [r1, #384]	; 0x180
 80047dc:	2a00      	cmp	r2, #0
 80047de:	d0e9      	beq.n	80047b4 <HAL_PCD_IRQHandler+0x2d4>
 80047e0:	f1be 0f00 	cmp.w	lr, #0
 80047e4:	d10d      	bne.n	8004802 <HAL_PCD_IRQHandler+0x322>
 80047e6:	f830 2023 	ldrh.w	r2, [r0, r3, lsl #2]
 80047ea:	f422 42e0 	bic.w	r2, r2, #28672	; 0x7000
 80047ee:	f022 0270 	bic.w	r2, r2, #112	; 0x70
 80047f2:	0412      	lsls	r2, r2, #16
 80047f4:	0c12      	lsrs	r2, r2, #16
 80047f6:	f442 4200 	orr.w	r2, r2, #32768	; 0x8000
 80047fa:	f042 02c0 	orr.w	r2, r2, #192	; 0xc0
 80047fe:	f820 2023 	strh.w	r2, [r0, r3, lsl #2]
 8004802:	b365      	cbz	r5, 800485e <HAL_PCD_IRQHandler+0x37e>
 8004804:	2128      	movs	r1, #40	; 0x28
 8004806:	fb01 4106 	mla	r1, r1, r6, r4
 800480a:	462b      	mov	r3, r5
 800480c:	f8b1 2172 	ldrh.w	r2, [r1, #370]	; 0x172
 8004810:	e774      	b.n	80046fc <HAL_PCD_IRQHandler+0x21c>
 8004812:	bf00      	nop
 8004814:	ffff8f0f 	.word	0xffff8f0f
 8004818:	ffff8000 	.word	0xffff8000
 800481c:	f830 2023 	ldrh.w	r2, [r0, r3, lsl #2]
 8004820:	f422 42e0 	bic.w	r2, r2, #28672	; 0x7000
 8004824:	f022 0270 	bic.w	r2, r2, #112	; 0x70
 8004828:	0412      	lsls	r2, r2, #16
 800482a:	0c12      	lsrs	r2, r2, #16
 800482c:	f442 4200 	orr.w	r2, r2, #32768	; 0x8000
 8004830:	f042 02c0 	orr.w	r2, r2, #192	; 0xc0
 8004834:	f820 2023 	strh.w	r2, [r0, r3, lsl #2]
 8004838:	f891 2168 	ldrb.w	r2, [r1, #360]	; 0x168
 800483c:	f830 3022 	ldrh.w	r3, [r0, r2, lsl #2]
 8004840:	00d2      	lsls	r2, r2, #3
 8004842:	f413 4f80 	tst.w	r3, #16384	; 0x4000
 8004846:	f8b0 3050 	ldrh.w	r3, [r0, #80]	; 0x50
 800484a:	b29b      	uxth	r3, r3
 800484c:	d055      	beq.n	80048fa <HAL_PCD_IRQHandler+0x41a>
 800484e:	3302      	adds	r3, #2
 8004850:	4413      	add	r3, r2
 8004852:	f83c 5013 	ldrh.w	r5, [ip, r3, lsl #1]
 8004856:	f3c5 0509 	ubfx	r5, r5, #0, #10
 800485a:	2d00      	cmp	r5, #0
 800485c:	d19d      	bne.n	800479a <HAL_PCD_IRQHandler+0x2ba>
 800485e:	2128      	movs	r1, #40	; 0x28
 8004860:	4371      	muls	r1, r6
 8004862:	1863      	adds	r3, r4, r1
 8004864:	f8d3 2184 	ldr.w	r2, [r3, #388]	; 0x184
 8004868:	442a      	add	r2, r5
 800486a:	f8c3 2184 	str.w	r2, [r3, #388]	; 0x184
 800486e:	f8d3 217c 	ldr.w	r2, [r3, #380]	; 0x17c
 8004872:	442a      	add	r2, r5
 8004874:	f8c3 217c 	str.w	r2, [r3, #380]	; 0x17c
 8004878:	f8d3 2180 	ldr.w	r2, [r3, #384]	; 0x180
 800487c:	b11a      	cbz	r2, 8004886 <HAL_PCD_IRQHandler+0x3a6>
 800487e:	f8d3 3178 	ldr.w	r3, [r3, #376]	; 0x178
 8004882:	429d      	cmp	r5, r3
 8004884:	d242      	bcs.n	800490c <HAL_PCD_IRQHandler+0x42c>
 8004886:	2328      	movs	r3, #40	; 0x28
 8004888:	fb03 4306 	mla	r3, r3, r6, r4
 800488c:	4620      	mov	r0, r4
 800488e:	f893 1168 	ldrb.w	r1, [r3, #360]	; 0x168
 8004892:	f003 f875 	bl	8007980 <HAL_PCD_DataOutStageCallback>
 8004896:	063b      	lsls	r3, r7, #24
 8004898:	6820      	ldr	r0, [r4, #0]
 800489a:	f57f ae30 	bpl.w	80044fe <HAL_PCD_IRQHandler+0x1e>
 800489e:	2228      	movs	r2, #40	; 0x28
 80048a0:	f830 3026 	ldrh.w	r3, [r0, r6, lsl #2]
 80048a4:	fb02 4506 	mla	r5, r2, r6, r4
 80048a8:	b29b      	uxth	r3, r3
 80048aa:	ea03 0309 	and.w	r3, r3, r9
 80048ae:	f443 4300 	orr.w	r3, r3, #32768	; 0x8000
 80048b2:	f820 3026 	strh.w	r3, [r0, r6, lsl #2]
 80048b6:	f895 302b 	ldrb.w	r3, [r5, #43]	; 0x2b
 80048ba:	2b01      	cmp	r3, #1
 80048bc:	d150      	bne.n	8004960 <HAL_PCD_IRQHandler+0x480>
 80048be:	2100      	movs	r1, #0
 80048c0:	f895 3034 	ldrb.w	r3, [r5, #52]	; 0x34
 80048c4:	6429      	str	r1, [r5, #64]	; 0x40
 80048c6:	b393      	cbz	r3, 800492e <HAL_PCD_IRQHandler+0x44e>
 80048c8:	f017 0740 	ands.w	r7, r7, #64	; 0x40
 80048cc:	f895 2029 	ldrb.w	r2, [r5, #41]	; 0x29
 80048d0:	f895 3028 	ldrb.w	r3, [r5, #40]	; 0x28
 80048d4:	d031      	beq.n	800493a <HAL_PCD_IRQHandler+0x45a>
 80048d6:	bb02      	cbnz	r2, 800491a <HAL_PCD_IRQHandler+0x43a>
 80048d8:	f8b0 2050 	ldrh.w	r2, [r0, #80]	; 0x50
 80048dc:	011b      	lsls	r3, r3, #4
 80048de:	b292      	uxth	r2, r2
 80048e0:	f200 4004 	addw	r0, r0, #1028	; 0x404
 80048e4:	4410      	add	r0, r2
 80048e6:	5a1a      	ldrh	r2, [r3, r0]
 80048e8:	f3c2 0209 	ubfx	r2, r2, #0, #10
 80048ec:	521a      	strh	r2, [r3, r0]
 80048ee:	5a1a      	ldrh	r2, [r3, r0]
 80048f0:	b292      	uxth	r2, r2
 80048f2:	f442 4200 	orr.w	r2, r2, #32768	; 0x8000
 80048f6:	521a      	strh	r2, [r3, r0]
 80048f8:	e019      	b.n	800492e <HAL_PCD_IRQHandler+0x44e>
 80048fa:	3306      	adds	r3, #6
 80048fc:	441a      	add	r2, r3
 80048fe:	f83c 5012 	ldrh.w	r5, [ip, r2, lsl #1]
 8004902:	f3c5 0509 	ubfx	r5, r5, #0, #10
 8004906:	2d00      	cmp	r5, #0
 8004908:	d0a9      	beq.n	800485e <HAL_PCD_IRQHandler+0x37e>
 800490a:	e77e      	b.n	800480a <HAL_PCD_IRQHandler+0x32a>
 800490c:	f501 71b4 	add.w	r1, r1, #360	; 0x168
 8004910:	6820      	ldr	r0, [r4, #0]
 8004912:	4421      	add	r1, r4
 8004914:	f001 ffda 	bl	80068cc <USB_EPStartXfer>
 8004918:	e7bd      	b.n	8004896 <HAL_PCD_IRQHandler+0x3b6>
 800491a:	2a01      	cmp	r2, #1
 800491c:	d107      	bne.n	800492e <HAL_PCD_IRQHandler+0x44e>
 800491e:	f8b0 2050 	ldrh.w	r2, [r0, #80]	; 0x50
 8004922:	f200 4004 	addw	r0, r0, #1028	; 0x404
 8004926:	b292      	uxth	r2, r2
 8004928:	011b      	lsls	r3, r3, #4
 800492a:	4410      	add	r0, r2
 800492c:	5219      	strh	r1, [r3, r0]
 800492e:	f895 1028 	ldrb.w	r1, [r5, #40]	; 0x28
 8004932:	4620      	mov	r0, r4
 8004934:	f003 f82d 	bl	8007992 <HAL_PCD_DataInStageCallback>
 8004938:	e5e1      	b.n	80044fe <HAL_PCD_IRQHandler+0x1e>
 800493a:	b932      	cbnz	r2, 800494a <HAL_PCD_IRQHandler+0x46a>
 800493c:	f8b0 2050 	ldrh.w	r2, [r0, #80]	; 0x50
 8004940:	011b      	lsls	r3, r3, #4
 8004942:	b292      	uxth	r2, r2
 8004944:	f200 400c 	addw	r0, r0, #1036	; 0x40c
 8004948:	e7cc      	b.n	80048e4 <HAL_PCD_IRQHandler+0x404>
 800494a:	2a01      	cmp	r2, #1
 800494c:	d1ef      	bne.n	800492e <HAL_PCD_IRQHandler+0x44e>
 800494e:	f8b0 2050 	ldrh.w	r2, [r0, #80]	; 0x50
 8004952:	f200 400c 	addw	r0, r0, #1036	; 0x40c
 8004956:	b292      	uxth	r2, r2
 8004958:	011b      	lsls	r3, r3, #4
 800495a:	4410      	add	r0, r2
 800495c:	521f      	strh	r7, [r3, r0]
 800495e:	e7e6      	b.n	800492e <HAL_PCD_IRQHandler+0x44e>
 8004960:	f895 1028 	ldrb.w	r1, [r5, #40]	; 0x28
 8004964:	f417 7c80 	ands.w	ip, r7, #256	; 0x100
 8004968:	6c2b      	ldr	r3, [r5, #64]	; 0x40
 800496a:	ea4f 0ac1 	mov.w	sl, r1, lsl #3
 800496e:	f500 6e80 	add.w	lr, r0, #1024	; 0x400
 8004972:	d11b      	bne.n	80049ac <HAL_PCD_IRQHandler+0x4cc>
 8004974:	f8b0 7050 	ldrh.w	r7, [r0, #80]	; 0x50
 8004978:	b2bf      	uxth	r7, r7
 800497a:	4457      	add	r7, sl
 800497c:	3702      	adds	r7, #2
 800497e:	f83e 7017 	ldrh.w	r7, [lr, r7, lsl #1]
 8004982:	f3c7 0709 	ubfx	r7, r7, #0, #10
 8004986:	429f      	cmp	r7, r3
 8004988:	d302      	bcc.n	8004990 <HAL_PCD_IRQHandler+0x4b0>
 800498a:	f8c5 c040 	str.w	ip, [r5, #64]	; 0x40
 800498e:	e7d0      	b.n	8004932 <HAL_PCD_IRQHandler+0x452>
 8004990:	1bdb      	subs	r3, r3, r7
 8004992:	642b      	str	r3, [r5, #64]	; 0x40
 8004994:	6beb      	ldr	r3, [r5, #60]	; 0x3c
 8004996:	fb06 2202 	mla	r2, r6, r2, r2
 800499a:	443b      	add	r3, r7
 800499c:	63eb      	str	r3, [r5, #60]	; 0x3c
 800499e:	6c6b      	ldr	r3, [r5, #68]	; 0x44
 80049a0:	18a1      	adds	r1, r4, r2
 80049a2:	443b      	add	r3, r7
 80049a4:	646b      	str	r3, [r5, #68]	; 0x44
 80049a6:	f001 ff91 	bl	80068cc <USB_EPStartXfer>
 80049aa:	e5a8      	b.n	80044fe <HAL_PCD_IRQHandler+0x1e>
 80049ac:	f8b0 2050 	ldrh.w	r2, [r0, #80]	; 0x50
 80049b0:	f017 0c40 	ands.w	ip, r7, #64	; 0x40
 80049b4:	b292      	uxth	r2, r2
 80049b6:	4452      	add	r2, sl
 80049b8:	f407 4780 	and.w	r7, r7, #16384	; 0x4000
 80049bc:	f000 80dc 	beq.w	8004b78 <HAL_PCD_IRQHandler+0x698>
 80049c0:	3202      	adds	r2, #2
 80049c2:	f83e 2012 	ldrh.w	r2, [lr, r2, lsl #1]
 80049c6:	f04f 0c28 	mov.w	ip, #40	; 0x28
 80049ca:	f3c2 0209 	ubfx	r2, r2, #0, #10
 80049ce:	429a      	cmp	r2, r3
 80049d0:	bf28      	it	cs
 80049d2:	2300      	movcs	r3, #0
 80049d4:	fb0c 4c06 	mla	ip, ip, r6, r4
 80049d8:	bf38      	it	cc
 80049da:	1a9b      	subcc	r3, r3, r2
 80049dc:	f8cc 3040 	str.w	r3, [ip, #64]	; 0x40
 80049e0:	b2bf      	uxth	r7, r7
 80049e2:	2b00      	cmp	r3, #0
 80049e4:	d14d      	bne.n	8004a82 <HAL_PCD_IRQHandler+0x5a2>
 80049e6:	f895 2029 	ldrb.w	r2, [r5, #41]	; 0x29
 80049ea:	2a00      	cmp	r2, #0
 80049ec:	d136      	bne.n	8004a5c <HAL_PCD_IRQHandler+0x57c>
 80049ee:	f8b0 2050 	ldrh.w	r2, [r0, #80]	; 0x50
 80049f2:	f200 4604 	addw	r6, r0, #1028	; 0x404
 80049f6:	b292      	uxth	r2, r2
 80049f8:	010b      	lsls	r3, r1, #4
 80049fa:	4416      	add	r6, r2
 80049fc:	5af2      	ldrh	r2, [r6, r3]
 80049fe:	f3c2 0209 	ubfx	r2, r2, #0, #10
 8004a02:	52f2      	strh	r2, [r6, r3]
 8004a04:	5af2      	ldrh	r2, [r6, r3]
 8004a06:	b292      	uxth	r2, r2
 8004a08:	f442 4200 	orr.w	r2, r2, #32768	; 0x8000
 8004a0c:	52f2      	strh	r2, [r6, r3]
 8004a0e:	f8b0 2050 	ldrh.w	r2, [r0, #80]	; 0x50
 8004a12:	f200 400c 	addw	r0, r0, #1036	; 0x40c
 8004a16:	b292      	uxth	r2, r2
 8004a18:	4410      	add	r0, r2
 8004a1a:	5ac2      	ldrh	r2, [r0, r3]
 8004a1c:	f3c2 0209 	ubfx	r2, r2, #0, #10
 8004a20:	52c2      	strh	r2, [r0, r3]
 8004a22:	5ac2      	ldrh	r2, [r0, r3]
 8004a24:	b292      	uxth	r2, r2
 8004a26:	f442 4200 	orr.w	r2, r2, #32768	; 0x8000
 8004a2a:	52c2      	strh	r2, [r0, r3]
 8004a2c:	4620      	mov	r0, r4
 8004a2e:	f002 ffb0 	bl	8007992 <HAL_PCD_DataInStageCallback>
 8004a32:	2f00      	cmp	r7, #0
 8004a34:	f000 80dc 	beq.w	8004bf0 <HAL_PCD_IRQHandler+0x710>
 8004a38:	f895 1028 	ldrb.w	r1, [r5, #40]	; 0x28
 8004a3c:	6822      	ldr	r2, [r4, #0]
 8004a3e:	f832 3021 	ldrh.w	r3, [r2, r1, lsl #2]
 8004a42:	f423 43e0 	bic.w	r3, r3, #28672	; 0x7000
 8004a46:	f023 0370 	bic.w	r3, r3, #112	; 0x70
 8004a4a:	041b      	lsls	r3, r3, #16
 8004a4c:	0c1b      	lsrs	r3, r3, #16
 8004a4e:	f443 4340 	orr.w	r3, r3, #49152	; 0xc000
 8004a52:	f043 0380 	orr.w	r3, r3, #128	; 0x80
 8004a56:	f822 3021 	strh.w	r3, [r2, r1, lsl #2]
 8004a5a:	e0c9      	b.n	8004bf0 <HAL_PCD_IRQHandler+0x710>
 8004a5c:	2a01      	cmp	r2, #1
 8004a5e:	d1e5      	bne.n	8004a2c <HAL_PCD_IRQHandler+0x54c>
 8004a60:	f8b0 c050 	ldrh.w	ip, [r0, #80]	; 0x50
 8004a64:	f200 4604 	addw	r6, r0, #1028	; 0x404
 8004a68:	fa1f fc8c 	uxth.w	ip, ip
 8004a6c:	010a      	lsls	r2, r1, #4
 8004a6e:	4466      	add	r6, ip
 8004a70:	52b3      	strh	r3, [r6, r2]
 8004a72:	f8b0 6050 	ldrh.w	r6, [r0, #80]	; 0x50
 8004a76:	f200 400c 	addw	r0, r0, #1036	; 0x40c
 8004a7a:	b2b6      	uxth	r6, r6
 8004a7c:	4430      	add	r0, r6
 8004a7e:	5283      	strh	r3, [r0, r2]
 8004a80:	e7d4      	b.n	8004a2c <HAL_PCD_IRQHandler+0x54c>
 8004a82:	b16f      	cbz	r7, 8004aa0 <HAL_PCD_IRQHandler+0x5c0>
 8004a84:	f830 3021 	ldrh.w	r3, [r0, r1, lsl #2]
 8004a88:	f423 43e0 	bic.w	r3, r3, #28672	; 0x7000
 8004a8c:	f023 0370 	bic.w	r3, r3, #112	; 0x70
 8004a90:	041b      	lsls	r3, r3, #16
 8004a92:	0c1b      	lsrs	r3, r3, #16
 8004a94:	f443 4340 	orr.w	r3, r3, #49152	; 0xc000
 8004a98:	f043 0380 	orr.w	r3, r3, #128	; 0x80
 8004a9c:	f820 3021 	strh.w	r3, [r0, r1, lsl #2]
 8004aa0:	2728      	movs	r7, #40	; 0x28
 8004aa2:	fb07 4706 	mla	r7, r7, r6, r4
 8004aa6:	f897 304c 	ldrb.w	r3, [r7, #76]	; 0x4c
 8004aaa:	2b01      	cmp	r3, #1
 8004aac:	f040 80a0 	bne.w	8004bf0 <HAL_PCD_IRQHandler+0x710>
 8004ab0:	6bfb      	ldr	r3, [r7, #60]	; 0x3c
 8004ab2:	f8d7 e048 	ldr.w	lr, [r7, #72]	; 0x48
 8004ab6:	eb03 0c02 	add.w	ip, r3, r2
 8004aba:	6c7b      	ldr	r3, [r7, #68]	; 0x44
 8004abc:	f8c7 c03c 	str.w	ip, [r7, #60]	; 0x3c
 8004ac0:	4413      	add	r3, r2
 8004ac2:	647b      	str	r3, [r7, #68]	; 0x44
 8004ac4:	6bbb      	ldr	r3, [r7, #56]	; 0x38
 8004ac6:	459e      	cmp	lr, r3
 8004ac8:	d32c      	bcc.n	8004b24 <HAL_PCD_IRQHandler+0x644>
 8004aca:	ebae 0203 	sub.w	r2, lr, r3
 8004ace:	64ba      	str	r2, [r7, #72]	; 0x48
 8004ad0:	f895 2029 	ldrb.w	r2, [r5, #41]	; 0x29
 8004ad4:	fa1f fe83 	uxth.w	lr, r3
 8004ad8:	2a00      	cmp	r2, #0
 8004ada:	d141      	bne.n	8004b60 <HAL_PCD_IRQHandler+0x680>
 8004adc:	f8b0 7050 	ldrh.w	r7, [r0, #80]	; 0x50
 8004ae0:	f200 4204 	addw	r2, r0, #1028	; 0x404
 8004ae4:	b2bf      	uxth	r7, r7
 8004ae6:	443a      	add	r2, r7
 8004ae8:	0109      	lsls	r1, r1, #4
 8004aea:	5a57      	ldrh	r7, [r2, r1]
 8004aec:	2b3e      	cmp	r3, #62	; 0x3e
 8004aee:	f3c7 0709 	ubfx	r7, r7, #0, #10
 8004af2:	5257      	strh	r7, [r2, r1]
 8004af4:	d923      	bls.n	8004b3e <HAL_PCD_IRQHandler+0x65e>
 8004af6:	06df      	lsls	r7, r3, #27
 8004af8:	5a57      	ldrh	r7, [r2, r1]
 8004afa:	ea4f 1a53 	mov.w	sl, r3, lsr #5
 8004afe:	bf08      	it	eq
 8004b00:	f10a 3aff 	addeq.w	sl, sl, #4294967295
 8004b04:	b2bf      	uxth	r7, r7
 8004b06:	ea47 278a 	orr.w	r7, r7, sl, lsl #10
 8004b0a:	ea47 0708 	orr.w	r7, r7, r8
 8004b0e:	b2bf      	uxth	r7, r7
 8004b10:	5257      	strh	r7, [r2, r1]
 8004b12:	2228      	movs	r2, #40	; 0x28
 8004b14:	4673      	mov	r3, lr
 8004b16:	4661      	mov	r1, ip
 8004b18:	fb02 4206 	mla	r2, r2, r6, r4
 8004b1c:	8e12      	ldrh	r2, [r2, #48]	; 0x30
 8004b1e:	f001 fec5 	bl	80068ac <USB_WritePMA>
 8004b22:	e065      	b.n	8004bf0 <HAL_PCD_IRQHandler+0x710>
 8004b24:	f1be 0f00 	cmp.w	lr, #0
 8004b28:	d103      	bne.n	8004b32 <HAL_PCD_IRQHandler+0x652>
 8004b2a:	4613      	mov	r3, r2
 8004b2c:	f887 e04c 	strb.w	lr, [r7, #76]	; 0x4c
 8004b30:	e7ce      	b.n	8004ad0 <HAL_PCD_IRQHandler+0x5f0>
 8004b32:	2300      	movs	r3, #0
 8004b34:	f887 304c 	strb.w	r3, [r7, #76]	; 0x4c
 8004b38:	64bb      	str	r3, [r7, #72]	; 0x48
 8004b3a:	4673      	mov	r3, lr
 8004b3c:	e7c8      	b.n	8004ad0 <HAL_PCD_IRQHandler+0x5f0>
 8004b3e:	b92b      	cbnz	r3, 8004b4c <HAL_PCD_IRQHandler+0x66c>
 8004b40:	5a53      	ldrh	r3, [r2, r1]
 8004b42:	b29b      	uxth	r3, r3
 8004b44:	f443 4300 	orr.w	r3, r3, #32768	; 0x8000
 8004b48:	5253      	strh	r3, [r2, r1]
 8004b4a:	e7e2      	b.n	8004b12 <HAL_PCD_IRQHandler+0x632>
 8004b4c:	085f      	lsrs	r7, r3, #1
 8004b4e:	07db      	lsls	r3, r3, #31
 8004b50:	5a53      	ldrh	r3, [r2, r1]
 8004b52:	bf48      	it	mi
 8004b54:	3701      	addmi	r7, #1
 8004b56:	b29b      	uxth	r3, r3
 8004b58:	ea43 2387 	orr.w	r3, r3, r7, lsl #10
 8004b5c:	b29b      	uxth	r3, r3
 8004b5e:	e7f3      	b.n	8004b48 <HAL_PCD_IRQHandler+0x668>
 8004b60:	2a01      	cmp	r2, #1
 8004b62:	d1d6      	bne.n	8004b12 <HAL_PCD_IRQHandler+0x632>
 8004b64:	f8b0 2050 	ldrh.w	r2, [r0, #80]	; 0x50
 8004b68:	f200 4304 	addw	r3, r0, #1028	; 0x404
 8004b6c:	b292      	uxth	r2, r2
 8004b6e:	4413      	add	r3, r2
 8004b70:	0109      	lsls	r1, r1, #4
 8004b72:	f823 e001 	strh.w	lr, [r3, r1]
 8004b76:	e7cc      	b.n	8004b12 <HAL_PCD_IRQHandler+0x632>
 8004b78:	3206      	adds	r2, #6
 8004b7a:	f83e 2012 	ldrh.w	r2, [lr, r2, lsl #1]
 8004b7e:	b2bf      	uxth	r7, r7
 8004b80:	f3c2 0209 	ubfx	r2, r2, #0, #10
 8004b84:	429a      	cmp	r2, r3
 8004b86:	bf88      	it	hi
 8004b88:	4663      	movhi	r3, ip
 8004b8a:	f04f 0c28 	mov.w	ip, #40	; 0x28
 8004b8e:	fb0c 4c06 	mla	ip, ip, r6, r4
 8004b92:	bf98      	it	ls
 8004b94:	1a9b      	subls	r3, r3, r2
 8004b96:	f8cc 3040 	str.w	r3, [ip, #64]	; 0x40
 8004b9a:	2b00      	cmp	r3, #0
 8004b9c:	d14e      	bne.n	8004c3c <HAL_PCD_IRQHandler+0x75c>
 8004b9e:	f895 2029 	ldrb.w	r2, [r5, #41]	; 0x29
 8004ba2:	2a00      	cmp	r2, #0
 8004ba4:	d137      	bne.n	8004c16 <HAL_PCD_IRQHandler+0x736>
 8004ba6:	f8b0 2050 	ldrh.w	r2, [r0, #80]	; 0x50
 8004baa:	f200 4604 	addw	r6, r0, #1028	; 0x404
 8004bae:	b292      	uxth	r2, r2
 8004bb0:	010b      	lsls	r3, r1, #4
 8004bb2:	4416      	add	r6, r2
 8004bb4:	5af2      	ldrh	r2, [r6, r3]
 8004bb6:	f3c2 0209 	ubfx	r2, r2, #0, #10
 8004bba:	52f2      	strh	r2, [r6, r3]
 8004bbc:	5af2      	ldrh	r2, [r6, r3]
 8004bbe:	b292      	uxth	r2, r2
 8004bc0:	f442 4200 	orr.w	r2, r2, #32768	; 0x8000
 8004bc4:	52f2      	strh	r2, [r6, r3]
 8004bc6:	f8b0 2050 	ldrh.w	r2, [r0, #80]	; 0x50
 8004bca:	f200 400c 	addw	r0, r0, #1036	; 0x40c
 8004bce:	b292      	uxth	r2, r2
 8004bd0:	4410      	add	r0, r2
 8004bd2:	5ac2      	ldrh	r2, [r0, r3]
 8004bd4:	f3c2 0209 	ubfx	r2, r2, #0, #10
 8004bd8:	52c2      	strh	r2, [r0, r3]
 8004bda:	5ac2      	ldrh	r2, [r0, r3]
 8004bdc:	b292      	uxth	r2, r2
 8004bde:	f442 4200 	orr.w	r2, r2, #32768	; 0x8000
 8004be2:	52c2      	strh	r2, [r0, r3]
 8004be4:	4620      	mov	r0, r4
 8004be6:	f002 fed4 	bl	8007992 <HAL_PCD_DataInStageCallback>
 8004bea:	2f00      	cmp	r7, #0
 8004bec:	f43f af24 	beq.w	8004a38 <HAL_PCD_IRQHandler+0x558>
 8004bf0:	f895 1028 	ldrb.w	r1, [r5, #40]	; 0x28
 8004bf4:	6822      	ldr	r2, [r4, #0]
 8004bf6:	f832 3021 	ldrh.w	r3, [r2, r1, lsl #2]
 8004bfa:	b29b      	uxth	r3, r3
 8004bfc:	f423 43e0 	bic.w	r3, r3, #28672	; 0x7000
 8004c00:	f023 0340 	bic.w	r3, r3, #64	; 0x40
 8004c04:	f083 0330 	eor.w	r3, r3, #48	; 0x30
 8004c08:	f443 4300 	orr.w	r3, r3, #32768	; 0x8000
 8004c0c:	f043 0380 	orr.w	r3, r3, #128	; 0x80
 8004c10:	f822 3021 	strh.w	r3, [r2, r1, lsl #2]
 8004c14:	e473      	b.n	80044fe <HAL_PCD_IRQHandler+0x1e>
 8004c16:	2a01      	cmp	r2, #1
 8004c18:	d1e4      	bne.n	8004be4 <HAL_PCD_IRQHandler+0x704>
 8004c1a:	f8b0 c050 	ldrh.w	ip, [r0, #80]	; 0x50
 8004c1e:	f200 4604 	addw	r6, r0, #1028	; 0x404
 8004c22:	fa1f fc8c 	uxth.w	ip, ip
 8004c26:	010a      	lsls	r2, r1, #4
 8004c28:	4466      	add	r6, ip
 8004c2a:	52b3      	strh	r3, [r6, r2]
 8004c2c:	f8b0 6050 	ldrh.w	r6, [r0, #80]	; 0x50
 8004c30:	f200 400c 	addw	r0, r0, #1036	; 0x40c
 8004c34:	b2b6      	uxth	r6, r6
 8004c36:	4430      	add	r0, r6
 8004c38:	5283      	strh	r3, [r0, r2]
 8004c3a:	e7d3      	b.n	8004be4 <HAL_PCD_IRQHandler+0x704>
 8004c3c:	b96f      	cbnz	r7, 8004c5a <HAL_PCD_IRQHandler+0x77a>
 8004c3e:	f830 3021 	ldrh.w	r3, [r0, r1, lsl #2]
 8004c42:	f423 43e0 	bic.w	r3, r3, #28672	; 0x7000
 8004c46:	f023 0370 	bic.w	r3, r3, #112	; 0x70
 8004c4a:	041b      	lsls	r3, r3, #16
 8004c4c:	0c1b      	lsrs	r3, r3, #16
 8004c4e:	f443 4340 	orr.w	r3, r3, #49152	; 0xc000
 8004c52:	f043 0380 	orr.w	r3, r3, #128	; 0x80
 8004c56:	f820 3021 	strh.w	r3, [r0, r1, lsl #2]
 8004c5a:	f04f 0c28 	mov.w	ip, #40	; 0x28
 8004c5e:	fb0c 4c06 	mla	ip, ip, r6, r4
 8004c62:	f89c 304c 	ldrb.w	r3, [ip, #76]	; 0x4c
 8004c66:	2b01      	cmp	r3, #1
 8004c68:	d1c2      	bne.n	8004bf0 <HAL_PCD_IRQHandler+0x710>
 8004c6a:	f8dc 3044 	ldr.w	r3, [ip, #68]	; 0x44
 8004c6e:	f8dc 703c 	ldr.w	r7, [ip, #60]	; 0x3c
 8004c72:	4413      	add	r3, r2
 8004c74:	f8dc e048 	ldr.w	lr, [ip, #72]	; 0x48
 8004c78:	f8cc 3044 	str.w	r3, [ip, #68]	; 0x44
 8004c7c:	f8dc 3038 	ldr.w	r3, [ip, #56]	; 0x38
 8004c80:	4417      	add	r7, r2
 8004c82:	459e      	cmp	lr, r3
 8004c84:	f8cc 703c 	str.w	r7, [ip, #60]	; 0x3c
 8004c88:	d327      	bcc.n	8004cda <HAL_PCD_IRQHandler+0x7fa>
 8004c8a:	ebae 0203 	sub.w	r2, lr, r3
 8004c8e:	f8cc 2048 	str.w	r2, [ip, #72]	; 0x48
 8004c92:	f895 2029 	ldrb.w	r2, [r5, #41]	; 0x29
 8004c96:	fa1f fc83 	uxth.w	ip, r3
 8004c9a:	2a00      	cmp	r2, #0
 8004c9c:	d143      	bne.n	8004d26 <HAL_PCD_IRQHandler+0x846>
 8004c9e:	f8b0 e050 	ldrh.w	lr, [r0, #80]	; 0x50
 8004ca2:	f200 420c 	addw	r2, r0, #1036	; 0x40c
 8004ca6:	fa1f fe8e 	uxth.w	lr, lr
 8004caa:	4472      	add	r2, lr
 8004cac:	0109      	lsls	r1, r1, #4
 8004cae:	f832 e001 	ldrh.w	lr, [r2, r1]
 8004cb2:	2b3e      	cmp	r3, #62	; 0x3e
 8004cb4:	f3ce 0e09 	ubfx	lr, lr, #0, #10
 8004cb8:	f822 e001 	strh.w	lr, [r2, r1]
 8004cbc:	d91b      	bls.n	8004cf6 <HAL_PCD_IRQHandler+0x816>
 8004cbe:	ea4f 1e53 	mov.w	lr, r3, lsr #5
 8004cc2:	06db      	lsls	r3, r3, #27
 8004cc4:	5a53      	ldrh	r3, [r2, r1]
 8004cc6:	bf08      	it	eq
 8004cc8:	f10e 3eff 	addeq.w	lr, lr, #4294967295
 8004ccc:	b29b      	uxth	r3, r3
 8004cce:	ea43 238e 	orr.w	r3, r3, lr, lsl #10
 8004cd2:	ea43 0308 	orr.w	r3, r3, r8
 8004cd6:	b29b      	uxth	r3, r3
 8004cd8:	e012      	b.n	8004d00 <HAL_PCD_IRQHandler+0x820>
 8004cda:	f1be 0f00 	cmp.w	lr, #0
 8004cde:	d103      	bne.n	8004ce8 <HAL_PCD_IRQHandler+0x808>
 8004ce0:	4613      	mov	r3, r2
 8004ce2:	f88c e04c 	strb.w	lr, [ip, #76]	; 0x4c
 8004ce6:	e7d4      	b.n	8004c92 <HAL_PCD_IRQHandler+0x7b2>
 8004ce8:	2300      	movs	r3, #0
 8004cea:	f8cc 3048 	str.w	r3, [ip, #72]	; 0x48
 8004cee:	f88c 304c 	strb.w	r3, [ip, #76]	; 0x4c
 8004cf2:	4673      	mov	r3, lr
 8004cf4:	e7cd      	b.n	8004c92 <HAL_PCD_IRQHandler+0x7b2>
 8004cf6:	b95b      	cbnz	r3, 8004d10 <HAL_PCD_IRQHandler+0x830>
 8004cf8:	5a53      	ldrh	r3, [r2, r1]
 8004cfa:	b29b      	uxth	r3, r3
 8004cfc:	f443 4300 	orr.w	r3, r3, #32768	; 0x8000
 8004d00:	5253      	strh	r3, [r2, r1]
 8004d02:	2328      	movs	r3, #40	; 0x28
 8004d04:	fb03 4606 	mla	r6, r3, r6, r4
 8004d08:	4639      	mov	r1, r7
 8004d0a:	4663      	mov	r3, ip
 8004d0c:	8e72      	ldrh	r2, [r6, #50]	; 0x32
 8004d0e:	e706      	b.n	8004b1e <HAL_PCD_IRQHandler+0x63e>
 8004d10:	ea4f 0e53 	mov.w	lr, r3, lsr #1
 8004d14:	07db      	lsls	r3, r3, #31
 8004d16:	5a53      	ldrh	r3, [r2, r1]
 8004d18:	bf48      	it	mi
 8004d1a:	f10e 0e01 	addmi.w	lr, lr, #1
 8004d1e:	b29b      	uxth	r3, r3
 8004d20:	ea43 238e 	orr.w	r3, r3, lr, lsl #10
 8004d24:	e7d7      	b.n	8004cd6 <HAL_PCD_IRQHandler+0x7f6>
 8004d26:	2a01      	cmp	r2, #1
 8004d28:	d1eb      	bne.n	8004d02 <HAL_PCD_IRQHandler+0x822>
 8004d2a:	f8b0 2050 	ldrh.w	r2, [r0, #80]	; 0x50
 8004d2e:	f200 430c 	addw	r3, r0, #1036	; 0x40c
 8004d32:	b292      	uxth	r2, r2
 8004d34:	4413      	add	r3, r2
 8004d36:	010a      	lsls	r2, r1, #4
 8004d38:	f823 c002 	strh.w	ip, [r3, r2]
 8004d3c:	e7e1      	b.n	8004d02 <HAL_PCD_IRQHandler+0x822>
 8004d3e:	0546      	lsls	r6, r0, #21
 8004d40:	d512      	bpl.n	8004d68 <HAL_PCD_IRQHandler+0x888>
 8004d42:	6822      	ldr	r2, [r4, #0]
 8004d44:	4620      	mov	r0, r4
 8004d46:	f8b2 3044 	ldrh.w	r3, [r2, #68]	; 0x44
 8004d4a:	f423 6380 	bic.w	r3, r3, #1024	; 0x400
 8004d4e:	041b      	lsls	r3, r3, #16
 8004d50:	0c1b      	lsrs	r3, r3, #16
 8004d52:	f8a2 3044 	strh.w	r3, [r2, #68]	; 0x44
 8004d56:	f002 fe28 	bl	80079aa <HAL_PCD_ResetCallback>
 8004d5a:	4629      	mov	r1, r5
 8004d5c:	4620      	mov	r0, r4
 8004d5e:	b005      	add	sp, #20
 8004d60:	e8bd 4ff0 	ldmia.w	sp!, {r4, r5, r6, r7, r8, r9, sl, fp, lr}
 8004d64:	f7ff bba7 	b.w	80044b6 <HAL_PCD_SetAddress>
 8004d68:	0441      	lsls	r1, r0, #17
 8004d6a:	d50a      	bpl.n	8004d82 <HAL_PCD_IRQHandler+0x8a2>
 8004d6c:	6822      	ldr	r2, [r4, #0]
 8004d6e:	f8b2 3044 	ldrh.w	r3, [r2, #68]	; 0x44
 8004d72:	f423 4380 	bic.w	r3, r3, #16384	; 0x4000
 8004d76:	041b      	lsls	r3, r3, #16
 8004d78:	0c1b      	lsrs	r3, r3, #16
 8004d7a:	f8a2 3044 	strh.w	r3, [r2, #68]	; 0x44
 8004d7e:	f7ff bbc3 	b.w	8004508 <HAL_PCD_IRQHandler+0x28>
 8004d82:	0482      	lsls	r2, r0, #18
 8004d84:	d505      	bpl.n	8004d92 <HAL_PCD_IRQHandler+0x8b2>
 8004d86:	6822      	ldr	r2, [r4, #0]
 8004d88:	f8b2 3044 	ldrh.w	r3, [r2, #68]	; 0x44
 8004d8c:	f423 5300 	bic.w	r3, r3, #8192	; 0x2000
 8004d90:	e7f1      	b.n	8004d76 <HAL_PCD_IRQHandler+0x896>
 8004d92:	04c3      	lsls	r3, r0, #19
 8004d94:	d519      	bpl.n	8004dca <HAL_PCD_IRQHandler+0x8ea>
 8004d96:	6822      	ldr	r2, [r4, #0]
 8004d98:	4620      	mov	r0, r4
 8004d9a:	f8b2 3040 	ldrh.w	r3, [r2, #64]	; 0x40
 8004d9e:	f023 0304 	bic.w	r3, r3, #4
 8004da2:	041b      	lsls	r3, r3, #16
 8004da4:	0c1b      	lsrs	r3, r3, #16
 8004da6:	f8a2 3040 	strh.w	r3, [r2, #64]	; 0x40
 8004daa:	f8b2 3040 	ldrh.w	r3, [r2, #64]	; 0x40
 8004dae:	f023 0308 	bic.w	r3, r3, #8
 8004db2:	041b      	lsls	r3, r3, #16
 8004db4:	0c1b      	lsrs	r3, r3, #16
 8004db6:	f8a2 3040 	strh.w	r3, [r2, #64]	; 0x40
 8004dba:	f002 fe19 	bl	80079f0 <HAL_PCD_ResumeCallback>
 8004dbe:	6822      	ldr	r2, [r4, #0]
 8004dc0:	f8b2 3044 	ldrh.w	r3, [r2, #68]	; 0x44
 8004dc4:	f423 5380 	bic.w	r3, r3, #4096	; 0x1000
 8004dc8:	e7d5      	b.n	8004d76 <HAL_PCD_IRQHandler+0x896>
 8004dca:	0507      	lsls	r7, r0, #20
 8004dcc:	d548      	bpl.n	8004e60 <HAL_PCD_IRQHandler+0x980>
 8004dce:	4668      	mov	r0, sp
 8004dd0:	6822      	ldr	r2, [r4, #0]
 8004dd2:	4606      	mov	r6, r0
 8004dd4:	4611      	mov	r1, r2
 8004dd6:	4613      	mov	r3, r2
 8004dd8:	f102 0520 	add.w	r5, r2, #32
 8004ddc:	f833 7b04 	ldrh.w	r7, [r3], #4
 8004de0:	429d      	cmp	r5, r3
 8004de2:	f826 7b02 	strh.w	r7, [r6], #2
 8004de6:	d1f9      	bne.n	8004ddc <HAL_PCD_IRQHandler+0x8fc>
 8004de8:	f8b2 3040 	ldrh.w	r3, [r2, #64]	; 0x40
 8004dec:	b29b      	uxth	r3, r3
 8004dee:	f043 0301 	orr.w	r3, r3, #1
 8004df2:	f8a2 3040 	strh.w	r3, [r2, #64]	; 0x40
 8004df6:	f8b2 3040 	ldrh.w	r3, [r2, #64]	; 0x40
 8004dfa:	f023 0301 	bic.w	r3, r3, #1
 8004dfe:	041b      	lsls	r3, r3, #16
 8004e00:	0c1b      	lsrs	r3, r3, #16
 8004e02:	f8a2 3040 	strh.w	r3, [r2, #64]	; 0x40
 8004e06:	f8b2 3044 	ldrh.w	r3, [r2, #68]	; 0x44
 8004e0a:	055e      	lsls	r6, r3, #21
 8004e0c:	d5fb      	bpl.n	8004e06 <HAL_PCD_IRQHandler+0x926>
 8004e0e:	f8b2 3044 	ldrh.w	r3, [r2, #68]	; 0x44
 8004e12:	f423 6380 	bic.w	r3, r3, #1024	; 0x400
 8004e16:	041b      	lsls	r3, r3, #16
 8004e18:	0c1b      	lsrs	r3, r3, #16
 8004e1a:	f8a2 3044 	strh.w	r3, [r2, #68]	; 0x44
 8004e1e:	f830 3b02 	ldrh.w	r3, [r0], #2
 8004e22:	f821 3b04 	strh.w	r3, [r1], #4
 8004e26:	428d      	cmp	r5, r1
 8004e28:	d1f9      	bne.n	8004e1e <HAL_PCD_IRQHandler+0x93e>
 8004e2a:	f8b2 3040 	ldrh.w	r3, [r2, #64]	; 0x40
 8004e2e:	4620      	mov	r0, r4
 8004e30:	b29b      	uxth	r3, r3
 8004e32:	f043 0308 	orr.w	r3, r3, #8
 8004e36:	f8a2 3040 	strh.w	r3, [r2, #64]	; 0x40
 8004e3a:	f8b2 3044 	ldrh.w	r3, [r2, #68]	; 0x44
 8004e3e:	f423 6300 	bic.w	r3, r3, #2048	; 0x800
 8004e42:	041b      	lsls	r3, r3, #16
 8004e44:	0c1b      	lsrs	r3, r3, #16
 8004e46:	f8a2 3044 	strh.w	r3, [r2, #68]	; 0x44
 8004e4a:	f8b2 3040 	ldrh.w	r3, [r2, #64]	; 0x40
 8004e4e:	b29b      	uxth	r3, r3
 8004e50:	f043 0304 	orr.w	r3, r3, #4
 8004e54:	f8a2 3040 	strh.w	r3, [r2, #64]	; 0x40
 8004e58:	f002 fdba 	bl	80079d0 <HAL_PCD_SuspendCallback>
 8004e5c:	f7ff bb54 	b.w	8004508 <HAL_PCD_IRQHandler+0x28>
 8004e60:	0582      	lsls	r2, r0, #22
 8004e62:	d50d      	bpl.n	8004e80 <HAL_PCD_IRQHandler+0x9a0>
 8004e64:	6822      	ldr	r2, [r4, #0]
 8004e66:	4620      	mov	r0, r4
 8004e68:	f8b2 3044 	ldrh.w	r3, [r2, #68]	; 0x44
 8004e6c:	f423 7300 	bic.w	r3, r3, #512	; 0x200
 8004e70:	041b      	lsls	r3, r3, #16
 8004e72:	0c1b      	lsrs	r3, r3, #16
 8004e74:	f8a2 3044 	strh.w	r3, [r2, #68]	; 0x44
 8004e78:	f002 fd93 	bl	80079a2 <HAL_PCD_SOFCallback>
 8004e7c:	f7ff bb44 	b.w	8004508 <HAL_PCD_IRQHandler+0x28>
 8004e80:	05c3      	lsls	r3, r0, #23
 8004e82:	f57f ab41 	bpl.w	8004508 <HAL_PCD_IRQHandler+0x28>
 8004e86:	6822      	ldr	r2, [r4, #0]
 8004e88:	f8b2 3044 	ldrh.w	r3, [r2, #68]	; 0x44
 8004e8c:	f423 7380 	bic.w	r3, r3, #256	; 0x100
 8004e90:	e771      	b.n	8004d76 <HAL_PCD_IRQHandler+0x896>
 8004e92:	bf00      	nop

08004e94 <HAL_PCD_EP_Open>:
 8004e94:	f011 0f80 	tst.w	r1, #128	; 0x80
 8004e98:	b570      	push	{r4, r5, r6, lr}
 8004e9a:	4605      	mov	r5, r0
 8004e9c:	f001 0007 	and.w	r0, r1, #7
 8004ea0:	f04f 0128 	mov.w	r1, #40	; 0x28
 8004ea4:	d01a      	beq.n	8004edc <HAL_PCD_EP_Open+0x48>
 8004ea6:	2401      	movs	r4, #1
 8004ea8:	fb00 1101 	mla	r1, r0, r1, r1
 8004eac:	4429      	add	r1, r5
 8004eae:	704c      	strb	r4, [r1, #1]
 8004eb0:	2b02      	cmp	r3, #2
 8004eb2:	70cb      	strb	r3, [r1, #3]
 8004eb4:	bf08      	it	eq
 8004eb6:	2300      	moveq	r3, #0
 8004eb8:	7008      	strb	r0, [r1, #0]
 8004eba:	bf08      	it	eq
 8004ebc:	710b      	strbeq	r3, [r1, #4]
 8004ebe:	610a      	str	r2, [r1, #16]
 8004ec0:	f895 32a8 	ldrb.w	r3, [r5, #680]	; 0x2a8
 8004ec4:	2b01      	cmp	r3, #1
 8004ec6:	d013      	beq.n	8004ef0 <HAL_PCD_EP_Open+0x5c>
 8004ec8:	2301      	movs	r3, #1
 8004eca:	6828      	ldr	r0, [r5, #0]
 8004ecc:	f885 32a8 	strb.w	r3, [r5, #680]	; 0x2a8
 8004ed0:	f001 fa40 	bl	8006354 <USB_ActivateEndpoint>
 8004ed4:	2000      	movs	r0, #0
 8004ed6:	f885 02a8 	strb.w	r0, [r5, #680]	; 0x2a8
 8004eda:	bd70      	pop	{r4, r5, r6, pc}
 8004edc:	2600      	movs	r6, #0
 8004ede:	fb01 f400 	mul.w	r4, r1, r0
 8004ee2:	f504 71b4 	add.w	r1, r4, #360	; 0x168
 8004ee6:	442c      	add	r4, r5
 8004ee8:	4429      	add	r1, r5
 8004eea:	f884 6169 	strb.w	r6, [r4, #361]	; 0x169
 8004eee:	e7df      	b.n	8004eb0 <HAL_PCD_EP_Open+0x1c>
 8004ef0:	2002      	movs	r0, #2
 8004ef2:	e7f2      	b.n	8004eda <HAL_PCD_EP_Open+0x46>

08004ef4 <HAL_PCD_EP_Close>:
 8004ef4:	f011 0f80 	tst.w	r1, #128	; 0x80
 8004ef8:	b510      	push	{r4, lr}
 8004efa:	f001 0207 	and.w	r2, r1, #7
 8004efe:	4604      	mov	r4, r0
 8004f00:	f04f 0128 	mov.w	r1, #40	; 0x28
 8004f04:	d013      	beq.n	8004f2e <HAL_PCD_EP_Close+0x3a>
 8004f06:	2301      	movs	r3, #1
 8004f08:	fb02 1101 	mla	r1, r2, r1, r1
 8004f0c:	4401      	add	r1, r0
 8004f0e:	704b      	strb	r3, [r1, #1]
 8004f10:	700a      	strb	r2, [r1, #0]
 8004f12:	f894 32a8 	ldrb.w	r3, [r4, #680]	; 0x2a8
 8004f16:	2b01      	cmp	r3, #1
 8004f18:	d013      	beq.n	8004f42 <HAL_PCD_EP_Close+0x4e>
 8004f1a:	2301      	movs	r3, #1
 8004f1c:	6820      	ldr	r0, [r4, #0]
 8004f1e:	f884 32a8 	strb.w	r3, [r4, #680]	; 0x2a8
 8004f22:	f001 fb77 	bl	8006614 <USB_DeactivateEndpoint>
 8004f26:	2000      	movs	r0, #0
 8004f28:	f884 02a8 	strb.w	r0, [r4, #680]	; 0x2a8
 8004f2c:	bd10      	pop	{r4, pc}
 8004f2e:	fb01 f302 	mul.w	r3, r1, r2
 8004f32:	f503 71b4 	add.w	r1, r3, #360	; 0x168
 8004f36:	4401      	add	r1, r0
 8004f38:	4403      	add	r3, r0
 8004f3a:	2000      	movs	r0, #0
 8004f3c:	f883 0169 	strb.w	r0, [r3, #361]	; 0x169
 8004f40:	e7e6      	b.n	8004f10 <HAL_PCD_EP_Close+0x1c>
 8004f42:	2002      	movs	r0, #2
 8004f44:	e7f2      	b.n	8004f2c <HAL_PCD_EP_Close+0x38>

08004f46 <HAL_PCD_EP_Receive>:
 8004f46:	b570      	push	{r4, r5, r6, lr}
 8004f48:	2428      	movs	r4, #40	; 0x28
 8004f4a:	2600      	movs	r6, #0
 8004f4c:	f001 0107 	and.w	r1, r1, #7
 8004f50:	434c      	muls	r4, r1
 8004f52:	1905      	adds	r5, r0, r4
 8004f54:	f885 1168 	strb.w	r1, [r5, #360]	; 0x168
 8004f58:	f504 71b4 	add.w	r1, r4, #360	; 0x168
 8004f5c:	4401      	add	r1, r0
 8004f5e:	e9c5 235f 	strd	r2, r3, [r5, #380]	; 0x17c
 8004f62:	f8c5 6184 	str.w	r6, [r5, #388]	; 0x184
 8004f66:	f885 6169 	strb.w	r6, [r5, #361]	; 0x169
 8004f6a:	6800      	ldr	r0, [r0, #0]
 8004f6c:	f001 fcae 	bl	80068cc <USB_EPStartXfer>
 8004f70:	4630      	mov	r0, r6
 8004f72:	bd70      	pop	{r4, r5, r6, pc}

08004f74 <HAL_PCD_EP_GetRxCount>:
 8004f74:	2328      	movs	r3, #40	; 0x28
 8004f76:	f001 0107 	and.w	r1, r1, #7
 8004f7a:	fb03 0001 	mla	r0, r3, r1, r0
 8004f7e:	f8d0 0184 	ldr.w	r0, [r0, #388]	; 0x184
 8004f82:	4770      	bx	lr

08004f84 <HAL_PCD_EP_Transmit>:
 8004f84:	b570      	push	{r4, r5, r6, lr}
 8004f86:	f001 0507 	and.w	r5, r1, #7
 8004f8a:	2128      	movs	r1, #40	; 0x28
 8004f8c:	fb01 0405 	mla	r4, r1, r5, r0
 8004f90:	2600      	movs	r6, #0
 8004f92:	e9c4 230f 	strd	r2, r3, [r4, #60]	; 0x3c
 8004f96:	2201      	movs	r2, #1
 8004f98:	fb05 1101 	mla	r1, r5, r1, r1
 8004f9c:	f884 204c 	strb.w	r2, [r4, #76]	; 0x4c
 8004fa0:	4401      	add	r1, r0
 8004fa2:	64a3      	str	r3, [r4, #72]	; 0x48
 8004fa4:	6466      	str	r6, [r4, #68]	; 0x44
 8004fa6:	f884 2029 	strb.w	r2, [r4, #41]	; 0x29
 8004faa:	f884 5028 	strb.w	r5, [r4, #40]	; 0x28
 8004fae:	6800      	ldr	r0, [r0, #0]
 8004fb0:	f001 fc8c 	bl	80068cc <USB_EPStartXfer>
 8004fb4:	4630      	mov	r0, r6
 8004fb6:	bd70      	pop	{r4, r5, r6, pc}

08004fb8 <HAL_PCD_EP_SetStall>:
 8004fb8:	b538      	push	{r3, r4, r5, lr}
 8004fba:	6843      	ldr	r3, [r0, #4]
 8004fbc:	f001 0507 	and.w	r5, r1, #7
 8004fc0:	429d      	cmp	r5, r3
 8004fc2:	4604      	mov	r4, r0
 8004fc4:	d828      	bhi.n	8005018 <HAL_PCD_EP_SetStall+0x60>
 8004fc6:	f011 0f80 	tst.w	r1, #128	; 0x80
 8004fca:	f04f 0328 	mov.w	r3, #40	; 0x28
 8004fce:	d01a      	beq.n	8005006 <HAL_PCD_EP_SetStall+0x4e>
 8004fd0:	fb05 3303 	mla	r3, r5, r3, r3
 8004fd4:	18c1      	adds	r1, r0, r3
 8004fd6:	2301      	movs	r3, #1
 8004fd8:	704b      	strb	r3, [r1, #1]
 8004fda:	2301      	movs	r3, #1
 8004fdc:	700d      	strb	r5, [r1, #0]
 8004fde:	708b      	strb	r3, [r1, #2]
 8004fe0:	f894 22a8 	ldrb.w	r2, [r4, #680]	; 0x2a8
 8004fe4:	429a      	cmp	r2, r3
 8004fe6:	d019      	beq.n	800501c <HAL_PCD_EP_SetStall+0x64>
 8004fe8:	6820      	ldr	r0, [r4, #0]
 8004fea:	f884 32a8 	strb.w	r3, [r4, #680]	; 0x2a8
 8004fee:	f001 fbe4 	bl	80067ba <USB_EPSetStall>
 8004ff2:	b925      	cbnz	r5, 8004ffe <HAL_PCD_EP_SetStall+0x46>
 8004ff4:	6820      	ldr	r0, [r4, #0]
 8004ff6:	f504 712c 	add.w	r1, r4, #688	; 0x2b0
 8004ffa:	f001 fc55 	bl	80068a8 <USB_EP0_OutStart>
 8004ffe:	2000      	movs	r0, #0
 8005000:	f884 02a8 	strb.w	r0, [r4, #680]	; 0x2a8
 8005004:	bd38      	pop	{r3, r4, r5, pc}
 8005006:	2200      	movs	r2, #0
 8005008:	434b      	muls	r3, r1
 800500a:	f503 71b4 	add.w	r1, r3, #360	; 0x168
 800500e:	4403      	add	r3, r0
 8005010:	4401      	add	r1, r0
 8005012:	f883 2169 	strb.w	r2, [r3, #361]	; 0x169
 8005016:	e7e0      	b.n	8004fda <HAL_PCD_EP_SetStall+0x22>
 8005018:	2001      	movs	r0, #1
 800501a:	e7f3      	b.n	8005004 <HAL_PCD_EP_SetStall+0x4c>
 800501c:	2002      	movs	r0, #2
 800501e:	e7f1      	b.n	8005004 <HAL_PCD_EP_SetStall+0x4c>

08005020 <HAL_PCD_EP_ClrStall>:
 8005020:	b538      	push	{r3, r4, r5, lr}
 8005022:	6843      	ldr	r3, [r0, #4]
 8005024:	f001 020f 	and.w	r2, r1, #15
 8005028:	429a      	cmp	r2, r3
 800502a:	4604      	mov	r4, r0
 800502c:	d826      	bhi.n	800507c <HAL_PCD_EP_ClrStall+0x5c>
 800502e:	f011 0f80 	tst.w	r1, #128	; 0x80
 8005032:	f001 0207 	and.w	r2, r1, #7
 8005036:	f04f 0128 	mov.w	r1, #40	; 0x28
 800503a:	d015      	beq.n	8005068 <HAL_PCD_EP_ClrStall+0x48>
 800503c:	2301      	movs	r3, #1
 800503e:	fb02 1101 	mla	r1, r2, r1, r1
 8005042:	4401      	add	r1, r0
 8005044:	704b      	strb	r3, [r1, #1]
 8005046:	2500      	movs	r5, #0
 8005048:	700a      	strb	r2, [r1, #0]
 800504a:	708d      	strb	r5, [r1, #2]
 800504c:	f894 32a8 	ldrb.w	r3, [r4, #680]	; 0x2a8
 8005050:	2b01      	cmp	r3, #1
 8005052:	d015      	beq.n	8005080 <HAL_PCD_EP_ClrStall+0x60>
 8005054:	2301      	movs	r3, #1
 8005056:	6820      	ldr	r0, [r4, #0]
 8005058:	f884 32a8 	strb.w	r3, [r4, #680]	; 0x2a8
 800505c:	f001 fbcd 	bl	80067fa <USB_EPClearStall>
 8005060:	4628      	mov	r0, r5
 8005062:	f884 52a8 	strb.w	r5, [r4, #680]	; 0x2a8
 8005066:	bd38      	pop	{r3, r4, r5, pc}
 8005068:	fb01 f302 	mul.w	r3, r1, r2
 800506c:	f503 71b4 	add.w	r1, r3, #360	; 0x168
 8005070:	4401      	add	r1, r0
 8005072:	4403      	add	r3, r0
 8005074:	2000      	movs	r0, #0
 8005076:	f883 0169 	strb.w	r0, [r3, #361]	; 0x169
 800507a:	e7e4      	b.n	8005046 <HAL_PCD_EP_ClrStall+0x26>
 800507c:	2001      	movs	r0, #1
 800507e:	e7f2      	b.n	8005066 <HAL_PCD_EP_ClrStall+0x46>
 8005080:	2002      	movs	r0, #2
 8005082:	e7f0      	b.n	8005066 <HAL_PCD_EP_ClrStall+0x46>

08005084 <HAL_PCDEx_PMAConfig>:
 8005084:	b510      	push	{r4, lr}
 8005086:	2428      	movs	r4, #40	; 0x28
 8005088:	f011 0f80 	tst.w	r1, #128	; 0x80
 800508c:	bf1b      	ittet	ne
 800508e:	f001 0107 	andne.w	r1, r1, #7
 8005092:	fb01 4404 	mlane	r4, r1, r4, r4
 8005096:	fb04 0001 	mlaeq	r0, r4, r1, r0
 800509a:	1900      	addne	r0, r0, r4
 800509c:	bf08      	it	eq
 800509e:	f500 70b4 	addeq.w	r0, r0, #360	; 0x168
 80050a2:	b299      	uxth	r1, r3
 80050a4:	b91a      	cbnz	r2, 80050ae <HAL_PCDEx_PMAConfig+0x2a>
 80050a6:	7302      	strb	r2, [r0, #12]
 80050a8:	80c1      	strh	r1, [r0, #6]
 80050aa:	2000      	movs	r0, #0
 80050ac:	bd10      	pop	{r4, pc}
 80050ae:	2201      	movs	r2, #1
 80050b0:	6083      	str	r3, [r0, #8]
 80050b2:	7302      	strb	r2, [r0, #12]
 80050b4:	e7f9      	b.n	80050aa <HAL_PCDEx_PMAConfig+0x26>
	...

080050b8 <HAL_RCC_OscConfig>:
 80050b8:	e92d 41f3 	stmdb	sp!, {r0, r1, r4, r5, r6, r7, r8, lr}
 80050bc:	4605      	mov	r5, r0
 80050be:	b338      	cbz	r0, 8005110 <HAL_RCC_OscConfig+0x58>
 80050c0:	6803      	ldr	r3, [r0, #0]
 80050c2:	07db      	lsls	r3, r3, #31
 80050c4:	d410      	bmi.n	80050e8 <HAL_RCC_OscConfig+0x30>
 80050c6:	682b      	ldr	r3, [r5, #0]
 80050c8:	079f      	lsls	r7, r3, #30
 80050ca:	d45e      	bmi.n	800518a <HAL_RCC_OscConfig+0xd2>
 80050cc:	682b      	ldr	r3, [r5, #0]
 80050ce:	0719      	lsls	r1, r3, #28
 80050d0:	f100 8095 	bmi.w	80051fe <HAL_RCC_OscConfig+0x146>
 80050d4:	682b      	ldr	r3, [r5, #0]
 80050d6:	075a      	lsls	r2, r3, #29
 80050d8:	f100 80c1 	bmi.w	800525e <HAL_RCC_OscConfig+0x1a6>
 80050dc:	69e8      	ldr	r0, [r5, #28]
 80050de:	2800      	cmp	r0, #0
 80050e0:	f040 812c 	bne.w	800533c <HAL_RCC_OscConfig+0x284>
 80050e4:	2000      	movs	r0, #0
 80050e6:	e029      	b.n	800513c <HAL_RCC_OscConfig+0x84>
 80050e8:	4c90      	ldr	r4, [pc, #576]	; (800532c <HAL_RCC_OscConfig+0x274>)
 80050ea:	6863      	ldr	r3, [r4, #4]
 80050ec:	f003 030c 	and.w	r3, r3, #12
 80050f0:	2b04      	cmp	r3, #4
 80050f2:	d007      	beq.n	8005104 <HAL_RCC_OscConfig+0x4c>
 80050f4:	6863      	ldr	r3, [r4, #4]
 80050f6:	f003 030c 	and.w	r3, r3, #12
 80050fa:	2b08      	cmp	r3, #8
 80050fc:	d10a      	bne.n	8005114 <HAL_RCC_OscConfig+0x5c>
 80050fe:	6863      	ldr	r3, [r4, #4]
 8005100:	03de      	lsls	r6, r3, #15
 8005102:	d507      	bpl.n	8005114 <HAL_RCC_OscConfig+0x5c>
 8005104:	6823      	ldr	r3, [r4, #0]
 8005106:	039c      	lsls	r4, r3, #14
 8005108:	d5dd      	bpl.n	80050c6 <HAL_RCC_OscConfig+0xe>
 800510a:	686b      	ldr	r3, [r5, #4]
 800510c:	2b00      	cmp	r3, #0
 800510e:	d1da      	bne.n	80050c6 <HAL_RCC_OscConfig+0xe>
 8005110:	2001      	movs	r0, #1
 8005112:	e013      	b.n	800513c <HAL_RCC_OscConfig+0x84>
 8005114:	686b      	ldr	r3, [r5, #4]
 8005116:	f5b3 3f80 	cmp.w	r3, #65536	; 0x10000
 800511a:	d112      	bne.n	8005142 <HAL_RCC_OscConfig+0x8a>
 800511c:	6823      	ldr	r3, [r4, #0]
 800511e:	f443 3380 	orr.w	r3, r3, #65536	; 0x10000
 8005122:	6023      	str	r3, [r4, #0]
 8005124:	f7fd ff52 	bl	8002fcc <HAL_GetTick>
 8005128:	4606      	mov	r6, r0
 800512a:	6823      	ldr	r3, [r4, #0]
 800512c:	0398      	lsls	r0, r3, #14
 800512e:	d4ca      	bmi.n	80050c6 <HAL_RCC_OscConfig+0xe>
 8005130:	f7fd ff4c 	bl	8002fcc <HAL_GetTick>
 8005134:	1b80      	subs	r0, r0, r6
 8005136:	2864      	cmp	r0, #100	; 0x64
 8005138:	d9f7      	bls.n	800512a <HAL_RCC_OscConfig+0x72>
 800513a:	2003      	movs	r0, #3
 800513c:	b002      	add	sp, #8
 800513e:	e8bd 81f0 	ldmia.w	sp!, {r4, r5, r6, r7, r8, pc}
 8005142:	b99b      	cbnz	r3, 800516c <HAL_RCC_OscConfig+0xb4>
 8005144:	6823      	ldr	r3, [r4, #0]
 8005146:	f423 3380 	bic.w	r3, r3, #65536	; 0x10000
 800514a:	6023      	str	r3, [r4, #0]
 800514c:	6823      	ldr	r3, [r4, #0]
 800514e:	f423 2380 	bic.w	r3, r3, #262144	; 0x40000
 8005152:	6023      	str	r3, [r4, #0]
 8005154:	f7fd ff3a 	bl	8002fcc <HAL_GetTick>
 8005158:	4606      	mov	r6, r0
 800515a:	6823      	ldr	r3, [r4, #0]
 800515c:	0399      	lsls	r1, r3, #14
 800515e:	d5b2      	bpl.n	80050c6 <HAL_RCC_OscConfig+0xe>
 8005160:	f7fd ff34 	bl	8002fcc <HAL_GetTick>
 8005164:	1b80      	subs	r0, r0, r6
 8005166:	2864      	cmp	r0, #100	; 0x64
 8005168:	d9f7      	bls.n	800515a <HAL_RCC_OscConfig+0xa2>
 800516a:	e7e6      	b.n	800513a <HAL_RCC_OscConfig+0x82>
 800516c:	f5b3 2fa0 	cmp.w	r3, #327680	; 0x50000
 8005170:	6823      	ldr	r3, [r4, #0]
 8005172:	d103      	bne.n	800517c <HAL_RCC_OscConfig+0xc4>
 8005174:	f443 2380 	orr.w	r3, r3, #262144	; 0x40000
 8005178:	6023      	str	r3, [r4, #0]
 800517a:	e7cf      	b.n	800511c <HAL_RCC_OscConfig+0x64>
 800517c:	f423 3380 	bic.w	r3, r3, #65536	; 0x10000
 8005180:	6023      	str	r3, [r4, #0]
 8005182:	6823      	ldr	r3, [r4, #0]
 8005184:	f423 2380 	bic.w	r3, r3, #262144	; 0x40000
 8005188:	e7cb      	b.n	8005122 <HAL_RCC_OscConfig+0x6a>
 800518a:	4c68      	ldr	r4, [pc, #416]	; (800532c <HAL_RCC_OscConfig+0x274>)
 800518c:	6863      	ldr	r3, [r4, #4]
 800518e:	f013 0f0c 	tst.w	r3, #12
 8005192:	d007      	beq.n	80051a4 <HAL_RCC_OscConfig+0xec>
 8005194:	6863      	ldr	r3, [r4, #4]
 8005196:	f003 030c 	and.w	r3, r3, #12
 800519a:	2b08      	cmp	r3, #8
 800519c:	d110      	bne.n	80051c0 <HAL_RCC_OscConfig+0x108>
 800519e:	6863      	ldr	r3, [r4, #4]
 80051a0:	03da      	lsls	r2, r3, #15
 80051a2:	d40d      	bmi.n	80051c0 <HAL_RCC_OscConfig+0x108>
 80051a4:	6823      	ldr	r3, [r4, #0]
 80051a6:	079b      	lsls	r3, r3, #30
 80051a8:	d502      	bpl.n	80051b0 <HAL_RCC_OscConfig+0xf8>
 80051aa:	692b      	ldr	r3, [r5, #16]
 80051ac:	2b01      	cmp	r3, #1
 80051ae:	d1af      	bne.n	8005110 <HAL_RCC_OscConfig+0x58>
 80051b0:	6823      	ldr	r3, [r4, #0]
 80051b2:	696a      	ldr	r2, [r5, #20]
 80051b4:	f023 03f8 	bic.w	r3, r3, #248	; 0xf8
 80051b8:	ea43 03c2 	orr.w	r3, r3, r2, lsl #3
 80051bc:	6023      	str	r3, [r4, #0]
 80051be:	e785      	b.n	80050cc <HAL_RCC_OscConfig+0x14>
 80051c0:	692a      	ldr	r2, [r5, #16]
 80051c2:	4b5b      	ldr	r3, [pc, #364]	; (8005330 <HAL_RCC_OscConfig+0x278>)
 80051c4:	b16a      	cbz	r2, 80051e2 <HAL_RCC_OscConfig+0x12a>
 80051c6:	2201      	movs	r2, #1
 80051c8:	601a      	str	r2, [r3, #0]
 80051ca:	f7fd feff 	bl	8002fcc <HAL_GetTick>
 80051ce:	4606      	mov	r6, r0
 80051d0:	6823      	ldr	r3, [r4, #0]
 80051d2:	079f      	lsls	r7, r3, #30
 80051d4:	d4ec      	bmi.n	80051b0 <HAL_RCC_OscConfig+0xf8>
 80051d6:	f7fd fef9 	bl	8002fcc <HAL_GetTick>
 80051da:	1b80      	subs	r0, r0, r6
 80051dc:	2802      	cmp	r0, #2
 80051de:	d9f7      	bls.n	80051d0 <HAL_RCC_OscConfig+0x118>
 80051e0:	e7ab      	b.n	800513a <HAL_RCC_OscConfig+0x82>
 80051e2:	601a      	str	r2, [r3, #0]
 80051e4:	f7fd fef2 	bl	8002fcc <HAL_GetTick>
 80051e8:	4606      	mov	r6, r0
 80051ea:	6823      	ldr	r3, [r4, #0]
 80051ec:	0798      	lsls	r0, r3, #30
 80051ee:	f57f af6d 	bpl.w	80050cc <HAL_RCC_OscConfig+0x14>
 80051f2:	f7fd feeb 	bl	8002fcc <HAL_GetTick>
 80051f6:	1b80      	subs	r0, r0, r6
 80051f8:	2802      	cmp	r0, #2
 80051fa:	d9f6      	bls.n	80051ea <HAL_RCC_OscConfig+0x132>
 80051fc:	e79d      	b.n	800513a <HAL_RCC_OscConfig+0x82>
 80051fe:	69aa      	ldr	r2, [r5, #24]
 8005200:	4e4a      	ldr	r6, [pc, #296]	; (800532c <HAL_RCC_OscConfig+0x274>)
 8005202:	4b4b      	ldr	r3, [pc, #300]	; (8005330 <HAL_RCC_OscConfig+0x278>)
 8005204:	b1e2      	cbz	r2, 8005240 <HAL_RCC_OscConfig+0x188>
 8005206:	2201      	movs	r2, #1
 8005208:	f8c3 2480 	str.w	r2, [r3, #1152]	; 0x480
 800520c:	f7fd fede 	bl	8002fcc <HAL_GetTick>
 8005210:	4604      	mov	r4, r0
 8005212:	6a73      	ldr	r3, [r6, #36]	; 0x24
 8005214:	079b      	lsls	r3, r3, #30
 8005216:	d50d      	bpl.n	8005234 <HAL_RCC_OscConfig+0x17c>
 8005218:	f44f 52fa 	mov.w	r2, #8000	; 0x1f40
 800521c:	4b45      	ldr	r3, [pc, #276]	; (8005334 <HAL_RCC_OscConfig+0x27c>)
 800521e:	681b      	ldr	r3, [r3, #0]
 8005220:	fbb3 f3f2 	udiv	r3, r3, r2
 8005224:	9301      	str	r3, [sp, #4]
 8005226:	bf00      	nop
 8005228:	9b01      	ldr	r3, [sp, #4]
 800522a:	1e5a      	subs	r2, r3, #1
 800522c:	9201      	str	r2, [sp, #4]
 800522e:	2b00      	cmp	r3, #0
 8005230:	d1f9      	bne.n	8005226 <HAL_RCC_OscConfig+0x16e>
 8005232:	e74f      	b.n	80050d4 <HAL_RCC_OscConfig+0x1c>
 8005234:	f7fd feca 	bl	8002fcc <HAL_GetTick>
 8005238:	1b00      	subs	r0, r0, r4
 800523a:	2802      	cmp	r0, #2
 800523c:	d9e9      	bls.n	8005212 <HAL_RCC_OscConfig+0x15a>
 800523e:	e77c      	b.n	800513a <HAL_RCC_OscConfig+0x82>
 8005240:	f8c3 2480 	str.w	r2, [r3, #1152]	; 0x480
 8005244:	f7fd fec2 	bl	8002fcc <HAL_GetTick>
 8005248:	4604      	mov	r4, r0
 800524a:	6a73      	ldr	r3, [r6, #36]	; 0x24
 800524c:	079f      	lsls	r7, r3, #30
 800524e:	f57f af41 	bpl.w	80050d4 <HAL_RCC_OscConfig+0x1c>
 8005252:	f7fd febb 	bl	8002fcc <HAL_GetTick>
 8005256:	1b00      	subs	r0, r0, r4
 8005258:	2802      	cmp	r0, #2
 800525a:	d9f6      	bls.n	800524a <HAL_RCC_OscConfig+0x192>
 800525c:	e76d      	b.n	800513a <HAL_RCC_OscConfig+0x82>
 800525e:	4c33      	ldr	r4, [pc, #204]	; (800532c <HAL_RCC_OscConfig+0x274>)
 8005260:	69e3      	ldr	r3, [r4, #28]
 8005262:	00d8      	lsls	r0, r3, #3
 8005264:	d424      	bmi.n	80052b0 <HAL_RCC_OscConfig+0x1f8>
 8005266:	2701      	movs	r7, #1
 8005268:	69e3      	ldr	r3, [r4, #28]
 800526a:	f043 5380 	orr.w	r3, r3, #268435456	; 0x10000000
 800526e:	61e3      	str	r3, [r4, #28]
 8005270:	69e3      	ldr	r3, [r4, #28]
 8005272:	f003 5380 	and.w	r3, r3, #268435456	; 0x10000000
 8005276:	9300      	str	r3, [sp, #0]
 8005278:	9b00      	ldr	r3, [sp, #0]
 800527a:	4e2f      	ldr	r6, [pc, #188]	; (8005338 <HAL_RCC_OscConfig+0x280>)
 800527c:	6833      	ldr	r3, [r6, #0]
 800527e:	05d9      	lsls	r1, r3, #23
 8005280:	d518      	bpl.n	80052b4 <HAL_RCC_OscConfig+0x1fc>
 8005282:	68eb      	ldr	r3, [r5, #12]
 8005284:	2b01      	cmp	r3, #1
 8005286:	d126      	bne.n	80052d6 <HAL_RCC_OscConfig+0x21e>
 8005288:	6a23      	ldr	r3, [r4, #32]
 800528a:	f043 0301 	orr.w	r3, r3, #1
 800528e:	6223      	str	r3, [r4, #32]
 8005290:	f7fd fe9c 	bl	8002fcc <HAL_GetTick>
 8005294:	f241 3888 	movw	r8, #5000	; 0x1388
 8005298:	4606      	mov	r6, r0
 800529a:	6a23      	ldr	r3, [r4, #32]
 800529c:	079b      	lsls	r3, r3, #30
 800529e:	d53f      	bpl.n	8005320 <HAL_RCC_OscConfig+0x268>
 80052a0:	2f00      	cmp	r7, #0
 80052a2:	f43f af1b 	beq.w	80050dc <HAL_RCC_OscConfig+0x24>
 80052a6:	69e3      	ldr	r3, [r4, #28]
 80052a8:	f023 5380 	bic.w	r3, r3, #268435456	; 0x10000000
 80052ac:	61e3      	str	r3, [r4, #28]
 80052ae:	e715      	b.n	80050dc <HAL_RCC_OscConfig+0x24>
 80052b0:	2700      	movs	r7, #0
 80052b2:	e7e2      	b.n	800527a <HAL_RCC_OscConfig+0x1c2>
 80052b4:	6833      	ldr	r3, [r6, #0]
 80052b6:	f443 7380 	orr.w	r3, r3, #256	; 0x100
 80052ba:	6033      	str	r3, [r6, #0]
 80052bc:	f7fd fe86 	bl	8002fcc <HAL_GetTick>
 80052c0:	4680      	mov	r8, r0
 80052c2:	6833      	ldr	r3, [r6, #0]
 80052c4:	05da      	lsls	r2, r3, #23
 80052c6:	d4dc      	bmi.n	8005282 <HAL_RCC_OscConfig+0x1ca>
 80052c8:	f7fd fe80 	bl	8002fcc <HAL_GetTick>
 80052cc:	eba0 0008 	sub.w	r0, r0, r8
 80052d0:	2864      	cmp	r0, #100	; 0x64
 80052d2:	d9f6      	bls.n	80052c2 <HAL_RCC_OscConfig+0x20a>
 80052d4:	e731      	b.n	800513a <HAL_RCC_OscConfig+0x82>
 80052d6:	b9ab      	cbnz	r3, 8005304 <HAL_RCC_OscConfig+0x24c>
 80052d8:	6a23      	ldr	r3, [r4, #32]
 80052da:	f241 3888 	movw	r8, #5000	; 0x1388
 80052de:	f023 0301 	bic.w	r3, r3, #1
 80052e2:	6223      	str	r3, [r4, #32]
 80052e4:	6a23      	ldr	r3, [r4, #32]
 80052e6:	f023 0304 	bic.w	r3, r3, #4
 80052ea:	6223      	str	r3, [r4, #32]
 80052ec:	f7fd fe6e 	bl	8002fcc <HAL_GetTick>
 80052f0:	4606      	mov	r6, r0
 80052f2:	6a23      	ldr	r3, [r4, #32]
 80052f4:	0798      	lsls	r0, r3, #30
 80052f6:	d5d3      	bpl.n	80052a0 <HAL_RCC_OscConfig+0x1e8>
 80052f8:	f7fd fe68 	bl	8002fcc <HAL_GetTick>
 80052fc:	1b80      	subs	r0, r0, r6
 80052fe:	4540      	cmp	r0, r8
 8005300:	d9f7      	bls.n	80052f2 <HAL_RCC_OscConfig+0x23a>
 8005302:	e71a      	b.n	800513a <HAL_RCC_OscConfig+0x82>
 8005304:	2b05      	cmp	r3, #5
 8005306:	6a23      	ldr	r3, [r4, #32]
 8005308:	d103      	bne.n	8005312 <HAL_RCC_OscConfig+0x25a>
 800530a:	f043 0304 	orr.w	r3, r3, #4
 800530e:	6223      	str	r3, [r4, #32]
 8005310:	e7ba      	b.n	8005288 <HAL_RCC_OscConfig+0x1d0>
 8005312:	f023 0301 	bic.w	r3, r3, #1
 8005316:	6223      	str	r3, [r4, #32]
 8005318:	6a23      	ldr	r3, [r4, #32]
 800531a:	f023 0304 	bic.w	r3, r3, #4
 800531e:	e7b6      	b.n	800528e <HAL_RCC_OscConfig+0x1d6>
 8005320:	f7fd fe54 	bl	8002fcc <HAL_GetTick>
 8005324:	1b80      	subs	r0, r0, r6
 8005326:	4540      	cmp	r0, r8
 8005328:	d9b7      	bls.n	800529a <HAL_RCC_OscConfig+0x1e2>
 800532a:	e706      	b.n	800513a <HAL_RCC_OscConfig+0x82>
 800532c:	40021000 	.word	0x40021000
 8005330:	42420000 	.word	0x42420000
 8005334:	20000024 	.word	0x20000024
 8005338:	40007000 	.word	0x40007000
 800533c:	4c2a      	ldr	r4, [pc, #168]	; (80053e8 <HAL_RCC_OscConfig+0x330>)
 800533e:	6863      	ldr	r3, [r4, #4]
 8005340:	f003 030c 	and.w	r3, r3, #12
 8005344:	2b08      	cmp	r3, #8
 8005346:	d03e      	beq.n	80053c6 <HAL_RCC_OscConfig+0x30e>
 8005348:	2200      	movs	r2, #0
 800534a:	4b28      	ldr	r3, [pc, #160]	; (80053ec <HAL_RCC_OscConfig+0x334>)
 800534c:	2802      	cmp	r0, #2
 800534e:	661a      	str	r2, [r3, #96]	; 0x60
 8005350:	d12c      	bne.n	80053ac <HAL_RCC_OscConfig+0x2f4>
 8005352:	f7fd fe3b 	bl	8002fcc <HAL_GetTick>
 8005356:	4606      	mov	r6, r0
 8005358:	6823      	ldr	r3, [r4, #0]
 800535a:	0199      	lsls	r1, r3, #6
 800535c:	d420      	bmi.n	80053a0 <HAL_RCC_OscConfig+0x2e8>
 800535e:	6a2b      	ldr	r3, [r5, #32]
 8005360:	f5b3 3f80 	cmp.w	r3, #65536	; 0x10000
 8005364:	d105      	bne.n	8005372 <HAL_RCC_OscConfig+0x2ba>
 8005366:	6862      	ldr	r2, [r4, #4]
 8005368:	68a9      	ldr	r1, [r5, #8]
 800536a:	f422 3200 	bic.w	r2, r2, #131072	; 0x20000
 800536e:	430a      	orrs	r2, r1
 8005370:	6062      	str	r2, [r4, #4]
 8005372:	6a69      	ldr	r1, [r5, #36]	; 0x24
 8005374:	6862      	ldr	r2, [r4, #4]
 8005376:	430b      	orrs	r3, r1
 8005378:	f422 1274 	bic.w	r2, r2, #3997696	; 0x3d0000
 800537c:	4313      	orrs	r3, r2
 800537e:	2201      	movs	r2, #1
 8005380:	6063      	str	r3, [r4, #4]
 8005382:	4b1a      	ldr	r3, [pc, #104]	; (80053ec <HAL_RCC_OscConfig+0x334>)
 8005384:	661a      	str	r2, [r3, #96]	; 0x60
 8005386:	f7fd fe21 	bl	8002fcc <HAL_GetTick>
 800538a:	4605      	mov	r5, r0
 800538c:	6823      	ldr	r3, [r4, #0]
 800538e:	019a      	lsls	r2, r3, #6
 8005390:	f53f aea8 	bmi.w	80050e4 <HAL_RCC_OscConfig+0x2c>
 8005394:	f7fd fe1a 	bl	8002fcc <HAL_GetTick>
 8005398:	1b40      	subs	r0, r0, r5
 800539a:	2802      	cmp	r0, #2
 800539c:	d9f6      	bls.n	800538c <HAL_RCC_OscConfig+0x2d4>
 800539e:	e6cc      	b.n	800513a <HAL_RCC_OscConfig+0x82>
 80053a0:	f7fd fe14 	bl	8002fcc <HAL_GetTick>
 80053a4:	1b80      	subs	r0, r0, r6
 80053a6:	2802      	cmp	r0, #2
 80053a8:	d9d6      	bls.n	8005358 <HAL_RCC_OscConfig+0x2a0>
 80053aa:	e6c6      	b.n	800513a <HAL_RCC_OscConfig+0x82>
 80053ac:	f7fd fe0e 	bl	8002fcc <HAL_GetTick>
 80053b0:	4605      	mov	r5, r0
 80053b2:	6823      	ldr	r3, [r4, #0]
 80053b4:	019b      	lsls	r3, r3, #6
 80053b6:	f57f ae95 	bpl.w	80050e4 <HAL_RCC_OscConfig+0x2c>
 80053ba:	f7fd fe07 	bl	8002fcc <HAL_GetTick>
 80053be:	1b40      	subs	r0, r0, r5
 80053c0:	2802      	cmp	r0, #2
 80053c2:	d9f6      	bls.n	80053b2 <HAL_RCC_OscConfig+0x2fa>
 80053c4:	e6b9      	b.n	800513a <HAL_RCC_OscConfig+0x82>
 80053c6:	2801      	cmp	r0, #1
 80053c8:	f43f aeb8 	beq.w	800513c <HAL_RCC_OscConfig+0x84>
 80053cc:	6863      	ldr	r3, [r4, #4]
 80053ce:	6a2a      	ldr	r2, [r5, #32]
 80053d0:	f403 3180 	and.w	r1, r3, #65536	; 0x10000
 80053d4:	4291      	cmp	r1, r2
 80053d6:	f47f ae9b 	bne.w	8005110 <HAL_RCC_OscConfig+0x58>
 80053da:	6a6a      	ldr	r2, [r5, #36]	; 0x24
 80053dc:	f403 1370 	and.w	r3, r3, #3932160	; 0x3c0000
 80053e0:	4293      	cmp	r3, r2
 80053e2:	f43f ae7f 	beq.w	80050e4 <HAL_RCC_OscConfig+0x2c>
 80053e6:	e693      	b.n	8005110 <HAL_RCC_OscConfig+0x58>
 80053e8:	40021000 	.word	0x40021000
 80053ec:	42420000 	.word	0x42420000

080053f0 <HAL_RCC_GetSysClockFreq>:
 80053f0:	4a0d      	ldr	r2, [pc, #52]	; (8005428 <HAL_RCC_GetSysClockFreq+0x38>)
 80053f2:	6853      	ldr	r3, [r2, #4]
 80053f4:	f003 010c 	and.w	r1, r3, #12
 80053f8:	2908      	cmp	r1, #8
 80053fa:	d112      	bne.n	8005422 <HAL_RCC_GetSysClockFreq+0x32>
 80053fc:	480b      	ldr	r0, [pc, #44]	; (800542c <HAL_RCC_GetSysClockFreq+0x3c>)
 80053fe:	f3c3 4183 	ubfx	r1, r3, #18, #4
 8005402:	03db      	lsls	r3, r3, #15
 8005404:	5c40      	ldrb	r0, [r0, r1]
 8005406:	d509      	bpl.n	800541c <HAL_RCC_GetSysClockFreq+0x2c>
 8005408:	6853      	ldr	r3, [r2, #4]
 800540a:	4a09      	ldr	r2, [pc, #36]	; (8005430 <HAL_RCC_GetSysClockFreq+0x40>)
 800540c:	f3c3 4340 	ubfx	r3, r3, #17, #1
 8005410:	4350      	muls	r0, r2
 8005412:	4a08      	ldr	r2, [pc, #32]	; (8005434 <HAL_RCC_GetSysClockFreq+0x44>)
 8005414:	5cd3      	ldrb	r3, [r2, r3]
 8005416:	fbb0 f0f3 	udiv	r0, r0, r3
 800541a:	4770      	bx	lr
 800541c:	4b06      	ldr	r3, [pc, #24]	; (8005438 <HAL_RCC_GetSysClockFreq+0x48>)
 800541e:	4358      	muls	r0, r3
 8005420:	4770      	bx	lr
 8005422:	4803      	ldr	r0, [pc, #12]	; (8005430 <HAL_RCC_GetSysClockFreq+0x40>)
 8005424:	4770      	bx	lr
 8005426:	bf00      	nop
 8005428:	40021000 	.word	0x40021000
 800542c:	08008030 	.word	0x08008030
 8005430:	007a1200 	.word	0x007a1200
 8005434:	08008040 	.word	0x08008040
 8005438:	003d0900 	.word	0x003d0900

0800543c <HAL_RCC_ClockConfig>:
 800543c:	e92d 41f0 	stmdb	sp!, {r4, r5, r6, r7, r8, lr}
 8005440:	460d      	mov	r5, r1
 8005442:	4604      	mov	r4, r0
 8005444:	b910      	cbnz	r0, 800544c <HAL_RCC_ClockConfig+0x10>
 8005446:	2001      	movs	r0, #1
 8005448:	e8bd 81f0 	ldmia.w	sp!, {r4, r5, r6, r7, r8, pc}
 800544c:	4a44      	ldr	r2, [pc, #272]	; (8005560 <HAL_RCC_ClockConfig+0x124>)
 800544e:	6813      	ldr	r3, [r2, #0]
 8005450:	f003 0307 	and.w	r3, r3, #7
 8005454:	428b      	cmp	r3, r1
 8005456:	d328      	bcc.n	80054aa <HAL_RCC_ClockConfig+0x6e>
 8005458:	6821      	ldr	r1, [r4, #0]
 800545a:	078e      	lsls	r6, r1, #30
 800545c:	d430      	bmi.n	80054c0 <HAL_RCC_ClockConfig+0x84>
 800545e:	07ca      	lsls	r2, r1, #31
 8005460:	d443      	bmi.n	80054ea <HAL_RCC_ClockConfig+0xae>
 8005462:	4a3f      	ldr	r2, [pc, #252]	; (8005560 <HAL_RCC_ClockConfig+0x124>)
 8005464:	6813      	ldr	r3, [r2, #0]
 8005466:	f003 0307 	and.w	r3, r3, #7
 800546a:	42ab      	cmp	r3, r5
 800546c:	d865      	bhi.n	800553a <HAL_RCC_ClockConfig+0xfe>
 800546e:	6822      	ldr	r2, [r4, #0]
 8005470:	4d3c      	ldr	r5, [pc, #240]	; (8005564 <HAL_RCC_ClockConfig+0x128>)
 8005472:	f012 0f04 	tst.w	r2, #4
 8005476:	d16c      	bne.n	8005552 <HAL_RCC_ClockConfig+0x116>
 8005478:	0713      	lsls	r3, r2, #28
 800547a:	d506      	bpl.n	800548a <HAL_RCC_ClockConfig+0x4e>
 800547c:	686b      	ldr	r3, [r5, #4]
 800547e:	6922      	ldr	r2, [r4, #16]
 8005480:	f423 5360 	bic.w	r3, r3, #14336	; 0x3800
 8005484:	ea43 03c2 	orr.w	r3, r3, r2, lsl #3
 8005488:	606b      	str	r3, [r5, #4]
 800548a:	f7ff ffb1 	bl	80053f0 <HAL_RCC_GetSysClockFreq>
 800548e:	686b      	ldr	r3, [r5, #4]
 8005490:	4a35      	ldr	r2, [pc, #212]	; (8005568 <HAL_RCC_ClockConfig+0x12c>)
 8005492:	f3c3 1303 	ubfx	r3, r3, #4, #4
 8005496:	5cd3      	ldrb	r3, [r2, r3]
 8005498:	40d8      	lsrs	r0, r3
 800549a:	4b34      	ldr	r3, [pc, #208]	; (800556c <HAL_RCC_ClockConfig+0x130>)
 800549c:	6018      	str	r0, [r3, #0]
 800549e:	4b34      	ldr	r3, [pc, #208]	; (8005570 <HAL_RCC_ClockConfig+0x134>)
 80054a0:	6818      	ldr	r0, [r3, #0]
 80054a2:	f7fd fd51 	bl	8002f48 <HAL_InitTick>
 80054a6:	2000      	movs	r0, #0
 80054a8:	e7ce      	b.n	8005448 <HAL_RCC_ClockConfig+0xc>
 80054aa:	6813      	ldr	r3, [r2, #0]
 80054ac:	f023 0307 	bic.w	r3, r3, #7
 80054b0:	430b      	orrs	r3, r1
 80054b2:	6013      	str	r3, [r2, #0]
 80054b4:	6813      	ldr	r3, [r2, #0]
 80054b6:	f003 0307 	and.w	r3, r3, #7
 80054ba:	428b      	cmp	r3, r1
 80054bc:	d1c3      	bne.n	8005446 <HAL_RCC_ClockConfig+0xa>
 80054be:	e7cb      	b.n	8005458 <HAL_RCC_ClockConfig+0x1c>
 80054c0:	4b28      	ldr	r3, [pc, #160]	; (8005564 <HAL_RCC_ClockConfig+0x128>)
 80054c2:	f011 0f04 	tst.w	r1, #4
 80054c6:	bf1e      	ittt	ne
 80054c8:	685a      	ldrne	r2, [r3, #4]
 80054ca:	f442 62e0 	orrne.w	r2, r2, #1792	; 0x700
 80054ce:	605a      	strne	r2, [r3, #4]
 80054d0:	0708      	lsls	r0, r1, #28
 80054d2:	bf42      	ittt	mi
 80054d4:	685a      	ldrmi	r2, [r3, #4]
 80054d6:	f442 5260 	orrmi.w	r2, r2, #14336	; 0x3800
 80054da:	605a      	strmi	r2, [r3, #4]
 80054dc:	685a      	ldr	r2, [r3, #4]
 80054de:	68a0      	ldr	r0, [r4, #8]
 80054e0:	f022 02f0 	bic.w	r2, r2, #240	; 0xf0
 80054e4:	4302      	orrs	r2, r0
 80054e6:	605a      	str	r2, [r3, #4]
 80054e8:	e7b9      	b.n	800545e <HAL_RCC_ClockConfig+0x22>
 80054ea:	6862      	ldr	r2, [r4, #4]
 80054ec:	4e1d      	ldr	r6, [pc, #116]	; (8005564 <HAL_RCC_ClockConfig+0x128>)
 80054ee:	2a01      	cmp	r2, #1
 80054f0:	6833      	ldr	r3, [r6, #0]
 80054f2:	d11a      	bne.n	800552a <HAL_RCC_ClockConfig+0xee>
 80054f4:	f413 3f00 	tst.w	r3, #131072	; 0x20000
 80054f8:	d0a5      	beq.n	8005446 <HAL_RCC_ClockConfig+0xa>
 80054fa:	6873      	ldr	r3, [r6, #4]
 80054fc:	f241 3888 	movw	r8, #5000	; 0x1388
 8005500:	f023 0303 	bic.w	r3, r3, #3
 8005504:	4313      	orrs	r3, r2
 8005506:	6073      	str	r3, [r6, #4]
 8005508:	f7fd fd60 	bl	8002fcc <HAL_GetTick>
 800550c:	4607      	mov	r7, r0
 800550e:	6873      	ldr	r3, [r6, #4]
 8005510:	6862      	ldr	r2, [r4, #4]
 8005512:	f003 030c 	and.w	r3, r3, #12
 8005516:	ebb3 0f82 	cmp.w	r3, r2, lsl #2
 800551a:	d0a2      	beq.n	8005462 <HAL_RCC_ClockConfig+0x26>
 800551c:	f7fd fd56 	bl	8002fcc <HAL_GetTick>
 8005520:	1bc0      	subs	r0, r0, r7
 8005522:	4540      	cmp	r0, r8
 8005524:	d9f3      	bls.n	800550e <HAL_RCC_ClockConfig+0xd2>
 8005526:	2003      	movs	r0, #3
 8005528:	e78e      	b.n	8005448 <HAL_RCC_ClockConfig+0xc>
 800552a:	2a02      	cmp	r2, #2
 800552c:	d102      	bne.n	8005534 <HAL_RCC_ClockConfig+0xf8>
 800552e:	f013 7f00 	tst.w	r3, #33554432	; 0x2000000
 8005532:	e7e1      	b.n	80054f8 <HAL_RCC_ClockConfig+0xbc>
 8005534:	f013 0f02 	tst.w	r3, #2
 8005538:	e7de      	b.n	80054f8 <HAL_RCC_ClockConfig+0xbc>
 800553a:	6813      	ldr	r3, [r2, #0]
 800553c:	f023 0307 	bic.w	r3, r3, #7
 8005540:	432b      	orrs	r3, r5
 8005542:	6013      	str	r3, [r2, #0]
 8005544:	6813      	ldr	r3, [r2, #0]
 8005546:	f003 0307 	and.w	r3, r3, #7
 800554a:	42ab      	cmp	r3, r5
 800554c:	f47f af7b 	bne.w	8005446 <HAL_RCC_ClockConfig+0xa>
 8005550:	e78d      	b.n	800546e <HAL_RCC_ClockConfig+0x32>
 8005552:	686b      	ldr	r3, [r5, #4]
 8005554:	68e1      	ldr	r1, [r4, #12]
 8005556:	f423 63e0 	bic.w	r3, r3, #1792	; 0x700
 800555a:	430b      	orrs	r3, r1
 800555c:	606b      	str	r3, [r5, #4]
 800555e:	e78b      	b.n	8005478 <HAL_RCC_ClockConfig+0x3c>
 8005560:	40022000 	.word	0x40022000
 8005564:	40021000 	.word	0x40021000
 8005568:	08008018 	.word	0x08008018
 800556c:	20000024 	.word	0x20000024
 8005570:	2000002c 	.word	0x2000002c

08005574 <HAL_RCC_GetPCLK1Freq>:
 8005574:	4b04      	ldr	r3, [pc, #16]	; (8005588 <HAL_RCC_GetPCLK1Freq+0x14>)
 8005576:	4a05      	ldr	r2, [pc, #20]	; (800558c <HAL_RCC_GetPCLK1Freq+0x18>)
 8005578:	685b      	ldr	r3, [r3, #4]
 800557a:	f3c3 2302 	ubfx	r3, r3, #8, #3
 800557e:	5cd3      	ldrb	r3, [r2, r3]
 8005580:	4a03      	ldr	r2, [pc, #12]	; (8005590 <HAL_RCC_GetPCLK1Freq+0x1c>)
 8005582:	6810      	ldr	r0, [r2, #0]
 8005584:	40d8      	lsrs	r0, r3
 8005586:	4770      	bx	lr
 8005588:	40021000 	.word	0x40021000
 800558c:	08008028 	.word	0x08008028
 8005590:	20000024 	.word	0x20000024

08005594 <HAL_RCC_GetPCLK2Freq>:
 8005594:	4b04      	ldr	r3, [pc, #16]	; (80055a8 <HAL_RCC_GetPCLK2Freq+0x14>)
 8005596:	4a05      	ldr	r2, [pc, #20]	; (80055ac <HAL_RCC_GetPCLK2Freq+0x18>)
 8005598:	685b      	ldr	r3, [r3, #4]
 800559a:	f3c3 23c2 	ubfx	r3, r3, #11, #3
 800559e:	5cd3      	ldrb	r3, [r2, r3]
 80055a0:	4a03      	ldr	r2, [pc, #12]	; (80055b0 <HAL_RCC_GetPCLK2Freq+0x1c>)
 80055a2:	6810      	ldr	r0, [r2, #0]
 80055a4:	40d8      	lsrs	r0, r3
 80055a6:	4770      	bx	lr
 80055a8:	40021000 	.word	0x40021000
 80055ac:	08008028 	.word	0x08008028
 80055b0:	20000024 	.word	0x20000024

080055b4 <HAL_RCCEx_PeriphCLKConfig>:
 80055b4:	6803      	ldr	r3, [r0, #0]
 80055b6:	e92d 41f3 	stmdb	sp!, {r0, r1, r4, r5, r6, r7, r8, lr}
 80055ba:	07d9      	lsls	r1, r3, #31
 80055bc:	4605      	mov	r5, r0
 80055be:	d521      	bpl.n	8005604 <HAL_RCCEx_PeriphCLKConfig+0x50>
 80055c0:	4c36      	ldr	r4, [pc, #216]	; (800569c <HAL_RCCEx_PeriphCLKConfig+0xe8>)
 80055c2:	69e3      	ldr	r3, [r4, #28]
 80055c4:	00da      	lsls	r2, r3, #3
 80055c6:	d433      	bmi.n	8005630 <HAL_RCCEx_PeriphCLKConfig+0x7c>
 80055c8:	2601      	movs	r6, #1
 80055ca:	69e3      	ldr	r3, [r4, #28]
 80055cc:	f043 5380 	orr.w	r3, r3, #268435456	; 0x10000000
 80055d0:	61e3      	str	r3, [r4, #28]
 80055d2:	69e3      	ldr	r3, [r4, #28]
 80055d4:	f003 5380 	and.w	r3, r3, #268435456	; 0x10000000
 80055d8:	9301      	str	r3, [sp, #4]
 80055da:	9b01      	ldr	r3, [sp, #4]
 80055dc:	4f30      	ldr	r7, [pc, #192]	; (80056a0 <HAL_RCCEx_PeriphCLKConfig+0xec>)
 80055de:	683b      	ldr	r3, [r7, #0]
 80055e0:	05db      	lsls	r3, r3, #23
 80055e2:	d527      	bpl.n	8005634 <HAL_RCCEx_PeriphCLKConfig+0x80>
 80055e4:	6a23      	ldr	r3, [r4, #32]
 80055e6:	686a      	ldr	r2, [r5, #4]
 80055e8:	f413 7340 	ands.w	r3, r3, #768	; 0x300
 80055ec:	d136      	bne.n	800565c <HAL_RCCEx_PeriphCLKConfig+0xa8>
 80055ee:	6a23      	ldr	r3, [r4, #32]
 80055f0:	686a      	ldr	r2, [r5, #4]
 80055f2:	f423 7340 	bic.w	r3, r3, #768	; 0x300
 80055f6:	4313      	orrs	r3, r2
 80055f8:	6223      	str	r3, [r4, #32]
 80055fa:	b11e      	cbz	r6, 8005604 <HAL_RCCEx_PeriphCLKConfig+0x50>
 80055fc:	69e3      	ldr	r3, [r4, #28]
 80055fe:	f023 5380 	bic.w	r3, r3, #268435456	; 0x10000000
 8005602:	61e3      	str	r3, [r4, #28]
 8005604:	6828      	ldr	r0, [r5, #0]
 8005606:	0783      	lsls	r3, r0, #30
 8005608:	d506      	bpl.n	8005618 <HAL_RCCEx_PeriphCLKConfig+0x64>
 800560a:	4924      	ldr	r1, [pc, #144]	; (800569c <HAL_RCCEx_PeriphCLKConfig+0xe8>)
 800560c:	68ab      	ldr	r3, [r5, #8]
 800560e:	684a      	ldr	r2, [r1, #4]
 8005610:	f422 4240 	bic.w	r2, r2, #49152	; 0xc000
 8005614:	431a      	orrs	r2, r3
 8005616:	604a      	str	r2, [r1, #4]
 8005618:	f010 0010 	ands.w	r0, r0, #16
 800561c:	d01b      	beq.n	8005656 <HAL_RCCEx_PeriphCLKConfig+0xa2>
 800561e:	4a1f      	ldr	r2, [pc, #124]	; (800569c <HAL_RCCEx_PeriphCLKConfig+0xe8>)
 8005620:	68e9      	ldr	r1, [r5, #12]
 8005622:	6853      	ldr	r3, [r2, #4]
 8005624:	2000      	movs	r0, #0
 8005626:	f423 0380 	bic.w	r3, r3, #4194304	; 0x400000
 800562a:	430b      	orrs	r3, r1
 800562c:	6053      	str	r3, [r2, #4]
 800562e:	e012      	b.n	8005656 <HAL_RCCEx_PeriphCLKConfig+0xa2>
 8005630:	2600      	movs	r6, #0
 8005632:	e7d3      	b.n	80055dc <HAL_RCCEx_PeriphCLKConfig+0x28>
 8005634:	683b      	ldr	r3, [r7, #0]
 8005636:	f443 7380 	orr.w	r3, r3, #256	; 0x100
 800563a:	603b      	str	r3, [r7, #0]
 800563c:	f7fd fcc6 	bl	8002fcc <HAL_GetTick>
 8005640:	4680      	mov	r8, r0
 8005642:	683b      	ldr	r3, [r7, #0]
 8005644:	05d8      	lsls	r0, r3, #23
 8005646:	d4cd      	bmi.n	80055e4 <HAL_RCCEx_PeriphCLKConfig+0x30>
 8005648:	f7fd fcc0 	bl	8002fcc <HAL_GetTick>
 800564c:	eba0 0008 	sub.w	r0, r0, r8
 8005650:	2864      	cmp	r0, #100	; 0x64
 8005652:	d9f6      	bls.n	8005642 <HAL_RCCEx_PeriphCLKConfig+0x8e>
 8005654:	2003      	movs	r0, #3
 8005656:	b002      	add	sp, #8
 8005658:	e8bd 81f0 	ldmia.w	sp!, {r4, r5, r6, r7, r8, pc}
 800565c:	f402 7240 	and.w	r2, r2, #768	; 0x300
 8005660:	429a      	cmp	r2, r3
 8005662:	d0c4      	beq.n	80055ee <HAL_RCCEx_PeriphCLKConfig+0x3a>
 8005664:	2001      	movs	r0, #1
 8005666:	4a0f      	ldr	r2, [pc, #60]	; (80056a4 <HAL_RCCEx_PeriphCLKConfig+0xf0>)
 8005668:	6a23      	ldr	r3, [r4, #32]
 800566a:	f8c2 0440 	str.w	r0, [r2, #1088]	; 0x440
 800566e:	2000      	movs	r0, #0
 8005670:	f423 7140 	bic.w	r1, r3, #768	; 0x300
 8005674:	f8c2 0440 	str.w	r0, [r2, #1088]	; 0x440
 8005678:	6221      	str	r1, [r4, #32]
 800567a:	07d9      	lsls	r1, r3, #31
 800567c:	d5b7      	bpl.n	80055ee <HAL_RCCEx_PeriphCLKConfig+0x3a>
 800567e:	f7fd fca5 	bl	8002fcc <HAL_GetTick>
 8005682:	f241 3888 	movw	r8, #5000	; 0x1388
 8005686:	4607      	mov	r7, r0
 8005688:	6a23      	ldr	r3, [r4, #32]
 800568a:	079a      	lsls	r2, r3, #30
 800568c:	d4af      	bmi.n	80055ee <HAL_RCCEx_PeriphCLKConfig+0x3a>
 800568e:	f7fd fc9d 	bl	8002fcc <HAL_GetTick>
 8005692:	1bc0      	subs	r0, r0, r7
 8005694:	4540      	cmp	r0, r8
 8005696:	d9f7      	bls.n	8005688 <HAL_RCCEx_PeriphCLKConfig+0xd4>
 8005698:	e7dc      	b.n	8005654 <HAL_RCCEx_PeriphCLKConfig+0xa0>
 800569a:	bf00      	nop
 800569c:	40021000 	.word	0x40021000
 80056a0:	40007000 	.word	0x40007000
 80056a4:	42420000 	.word	0x42420000

080056a8 <TIM_OC1_SetConfig>:
 80056a8:	6a03      	ldr	r3, [r0, #32]
 80056aa:	6a02      	ldr	r2, [r0, #32]
 80056ac:	b570      	push	{r4, r5, r6, lr}
 80056ae:	f022 0201 	bic.w	r2, r2, #1
 80056b2:	6202      	str	r2, [r0, #32]
 80056b4:	6844      	ldr	r4, [r0, #4]
 80056b6:	6982      	ldr	r2, [r0, #24]
 80056b8:	680d      	ldr	r5, [r1, #0]
 80056ba:	f022 0273 	bic.w	r2, r2, #115	; 0x73
 80056be:	432a      	orrs	r2, r5
 80056c0:	688d      	ldr	r5, [r1, #8]
 80056c2:	f023 0302 	bic.w	r3, r3, #2
 80056c6:	432b      	orrs	r3, r5
 80056c8:	4d0a      	ldr	r5, [pc, #40]	; (80056f4 <TIM_OC1_SetConfig+0x4c>)
 80056ca:	42a8      	cmp	r0, r5
 80056cc:	d10b      	bne.n	80056e6 <TIM_OC1_SetConfig+0x3e>
 80056ce:	68cd      	ldr	r5, [r1, #12]
 80056d0:	f023 0308 	bic.w	r3, r3, #8
 80056d4:	432b      	orrs	r3, r5
 80056d6:	f424 7440 	bic.w	r4, r4, #768	; 0x300
 80056da:	e9d1 5605 	ldrd	r5, r6, [r1, #20]
 80056de:	4335      	orrs	r5, r6
 80056e0:	f023 0304 	bic.w	r3, r3, #4
 80056e4:	432c      	orrs	r4, r5
 80056e6:	6044      	str	r4, [r0, #4]
 80056e8:	6182      	str	r2, [r0, #24]
 80056ea:	684a      	ldr	r2, [r1, #4]
 80056ec:	6342      	str	r2, [r0, #52]	; 0x34
 80056ee:	6203      	str	r3, [r0, #32]
 80056f0:	bd70      	pop	{r4, r5, r6, pc}
 80056f2:	bf00      	nop
 80056f4:	40012c00 	.word	0x40012c00

080056f8 <TIM_OC3_SetConfig>:
 80056f8:	6a03      	ldr	r3, [r0, #32]
 80056fa:	6a02      	ldr	r2, [r0, #32]
 80056fc:	b570      	push	{r4, r5, r6, lr}
 80056fe:	f422 7280 	bic.w	r2, r2, #256	; 0x100
 8005702:	6202      	str	r2, [r0, #32]
 8005704:	6844      	ldr	r4, [r0, #4]
 8005706:	69c2      	ldr	r2, [r0, #28]
 8005708:	680d      	ldr	r5, [r1, #0]
 800570a:	f022 0273 	bic.w	r2, r2, #115	; 0x73
 800570e:	432a      	orrs	r2, r5
 8005710:	688d      	ldr	r5, [r1, #8]
 8005712:	f423 7300 	bic.w	r3, r3, #512	; 0x200
 8005716:	ea43 2305 	orr.w	r3, r3, r5, lsl #8
 800571a:	4d0b      	ldr	r5, [pc, #44]	; (8005748 <TIM_OC3_SetConfig+0x50>)
 800571c:	42a8      	cmp	r0, r5
 800571e:	d10d      	bne.n	800573c <TIM_OC3_SetConfig+0x44>
 8005720:	68cd      	ldr	r5, [r1, #12]
 8005722:	f423 6300 	bic.w	r3, r3, #2048	; 0x800
 8005726:	ea43 2305 	orr.w	r3, r3, r5, lsl #8
 800572a:	f424 5440 	bic.w	r4, r4, #12288	; 0x3000
 800572e:	e9d1 5605 	ldrd	r5, r6, [r1, #20]
 8005732:	4335      	orrs	r5, r6
 8005734:	f423 6380 	bic.w	r3, r3, #1024	; 0x400
 8005738:	ea44 1405 	orr.w	r4, r4, r5, lsl #4
 800573c:	6044      	str	r4, [r0, #4]
 800573e:	61c2      	str	r2, [r0, #28]
 8005740:	684a      	ldr	r2, [r1, #4]
 8005742:	63c2      	str	r2, [r0, #60]	; 0x3c
 8005744:	6203      	str	r3, [r0, #32]
 8005746:	bd70      	pop	{r4, r5, r6, pc}
 8005748:	40012c00 	.word	0x40012c00

0800574c <TIM_OC4_SetConfig>:
 800574c:	6a03      	ldr	r3, [r0, #32]
 800574e:	6a02      	ldr	r2, [r0, #32]
 8005750:	b530      	push	{r4, r5, lr}
 8005752:	f422 5280 	bic.w	r2, r2, #4096	; 0x1000
 8005756:	6202      	str	r2, [r0, #32]
 8005758:	6844      	ldr	r4, [r0, #4]
 800575a:	69c2      	ldr	r2, [r0, #28]
 800575c:	680d      	ldr	r5, [r1, #0]
 800575e:	f422 42e6 	bic.w	r2, r2, #29440	; 0x7300
 8005762:	ea42 2205 	orr.w	r2, r2, r5, lsl #8
 8005766:	688d      	ldr	r5, [r1, #8]
 8005768:	f423 5300 	bic.w	r3, r3, #8192	; 0x2000
 800576c:	ea43 3305 	orr.w	r3, r3, r5, lsl #12
 8005770:	4d06      	ldr	r5, [pc, #24]	; (800578c <TIM_OC4_SetConfig+0x40>)
 8005772:	42a8      	cmp	r0, r5
 8005774:	bf02      	ittt	eq
 8005776:	694d      	ldreq	r5, [r1, #20]
 8005778:	f424 4480 	biceq.w	r4, r4, #16384	; 0x4000
 800577c:	ea44 1485 	orreq.w	r4, r4, r5, lsl #6
 8005780:	6044      	str	r4, [r0, #4]
 8005782:	61c2      	str	r2, [r0, #28]
 8005784:	684a      	ldr	r2, [r1, #4]
 8005786:	6402      	str	r2, [r0, #64]	; 0x40
 8005788:	6203      	str	r3, [r0, #32]
 800578a:	bd30      	pop	{r4, r5, pc}
 800578c:	40012c00 	.word	0x40012c00

08005790 <HAL_TIM_Base_Start>:
 8005790:	f890 303d 	ldrb.w	r3, [r0, #61]	; 0x3d
 8005794:	2b01      	cmp	r3, #1
 8005796:	d11c      	bne.n	80057d2 <HAL_TIM_Base_Start+0x42>
 8005798:	2302      	movs	r3, #2
 800579a:	4a0f      	ldr	r2, [pc, #60]	; (80057d8 <HAL_TIM_Base_Start+0x48>)
 800579c:	f880 303d 	strb.w	r3, [r0, #61]	; 0x3d
 80057a0:	6803      	ldr	r3, [r0, #0]
 80057a2:	4293      	cmp	r3, r2
 80057a4:	d00a      	beq.n	80057bc <HAL_TIM_Base_Start+0x2c>
 80057a6:	f1b3 4f80 	cmp.w	r3, #1073741824	; 0x40000000
 80057aa:	d007      	beq.n	80057bc <HAL_TIM_Base_Start+0x2c>
 80057ac:	f5a2 3294 	sub.w	r2, r2, #75776	; 0x12800
 80057b0:	4293      	cmp	r3, r2
 80057b2:	d003      	beq.n	80057bc <HAL_TIM_Base_Start+0x2c>
 80057b4:	f502 6280 	add.w	r2, r2, #1024	; 0x400
 80057b8:	4293      	cmp	r3, r2
 80057ba:	d104      	bne.n	80057c6 <HAL_TIM_Base_Start+0x36>
 80057bc:	689a      	ldr	r2, [r3, #8]
 80057be:	f002 0207 	and.w	r2, r2, #7
 80057c2:	2a06      	cmp	r2, #6
 80057c4:	d003      	beq.n	80057ce <HAL_TIM_Base_Start+0x3e>
 80057c6:	681a      	ldr	r2, [r3, #0]
 80057c8:	f042 0201 	orr.w	r2, r2, #1
 80057cc:	601a      	str	r2, [r3, #0]
 80057ce:	2000      	movs	r0, #0
 80057d0:	4770      	bx	lr
 80057d2:	2001      	movs	r0, #1
 80057d4:	4770      	bx	lr
 80057d6:	bf00      	nop
 80057d8:	40012c00 	.word	0x40012c00

080057dc <HAL_TIM_Base_Start_IT>:
 80057dc:	f890 303d 	ldrb.w	r3, [r0, #61]	; 0x3d
 80057e0:	2b01      	cmp	r3, #1
 80057e2:	d120      	bne.n	8005826 <HAL_TIM_Base_Start_IT+0x4a>
 80057e4:	2302      	movs	r3, #2
 80057e6:	f880 303d 	strb.w	r3, [r0, #61]	; 0x3d
 80057ea:	6803      	ldr	r3, [r0, #0]
 80057ec:	68da      	ldr	r2, [r3, #12]
 80057ee:	f042 0201 	orr.w	r2, r2, #1
 80057f2:	60da      	str	r2, [r3, #12]
 80057f4:	4a0d      	ldr	r2, [pc, #52]	; (800582c <HAL_TIM_Base_Start_IT+0x50>)
 80057f6:	4293      	cmp	r3, r2
 80057f8:	d00a      	beq.n	8005810 <HAL_TIM_Base_Start_IT+0x34>
 80057fa:	f1b3 4f80 	cmp.w	r3, #1073741824	; 0x40000000
 80057fe:	d007      	beq.n	8005810 <HAL_TIM_Base_Start_IT+0x34>
 8005800:	f5a2 3294 	sub.w	r2, r2, #75776	; 0x12800
 8005804:	4293      	cmp	r3, r2
 8005806:	d003      	beq.n	8005810 <HAL_TIM_Base_Start_IT+0x34>
 8005808:	f502 6280 	add.w	r2, r2, #1024	; 0x400
 800580c:	4293      	cmp	r3, r2
 800580e:	d104      	bne.n	800581a <HAL_TIM_Base_Start_IT+0x3e>
 8005810:	689a      	ldr	r2, [r3, #8]
 8005812:	f002 0207 	and.w	r2, r2, #7
 8005816:	2a06      	cmp	r2, #6
 8005818:	d003      	beq.n	8005822 <HAL_TIM_Base_Start_IT+0x46>
 800581a:	681a      	ldr	r2, [r3, #0]
 800581c:	f042 0201 	orr.w	r2, r2, #1
 8005820:	601a      	str	r2, [r3, #0]
 8005822:	2000      	movs	r0, #0
 8005824:	4770      	bx	lr
 8005826:	2001      	movs	r0, #1
 8005828:	4770      	bx	lr
 800582a:	bf00      	nop
 800582c:	40012c00 	.word	0x40012c00

08005830 <HAL_TIM_PWM_MspInit>:
 8005830:	4770      	bx	lr

08005832 <HAL_TIM_OC_DelayElapsedCallback>:
 8005832:	4770      	bx	lr

08005834 <HAL_TIM_IC_CaptureCallback>:
 8005834:	4770      	bx	lr

08005836 <HAL_TIM_PWM_PulseFinishedCallback>:
 8005836:	4770      	bx	lr

08005838 <HAL_TIM_TriggerCallback>:
 8005838:	4770      	bx	lr

0800583a <HAL_TIM_IRQHandler>:
 800583a:	6803      	ldr	r3, [r0, #0]
 800583c:	b510      	push	{r4, lr}
 800583e:	691a      	ldr	r2, [r3, #16]
 8005840:	4604      	mov	r4, r0
 8005842:	0791      	lsls	r1, r2, #30
 8005844:	d50e      	bpl.n	8005864 <HAL_TIM_IRQHandler+0x2a>
 8005846:	68da      	ldr	r2, [r3, #12]
 8005848:	0792      	lsls	r2, r2, #30
 800584a:	d50b      	bpl.n	8005864 <HAL_TIM_IRQHandler+0x2a>
 800584c:	f06f 0202 	mvn.w	r2, #2
 8005850:	611a      	str	r2, [r3, #16]
 8005852:	2201      	movs	r2, #1
 8005854:	7702      	strb	r2, [r0, #28]
 8005856:	699b      	ldr	r3, [r3, #24]
 8005858:	079b      	lsls	r3, r3, #30
 800585a:	d077      	beq.n	800594c <HAL_TIM_IRQHandler+0x112>
 800585c:	f7ff ffea 	bl	8005834 <HAL_TIM_IC_CaptureCallback>
 8005860:	2300      	movs	r3, #0
 8005862:	7723      	strb	r3, [r4, #28]
 8005864:	6823      	ldr	r3, [r4, #0]
 8005866:	691a      	ldr	r2, [r3, #16]
 8005868:	0750      	lsls	r0, r2, #29
 800586a:	d510      	bpl.n	800588e <HAL_TIM_IRQHandler+0x54>
 800586c:	68da      	ldr	r2, [r3, #12]
 800586e:	0751      	lsls	r1, r2, #29
 8005870:	d50d      	bpl.n	800588e <HAL_TIM_IRQHandler+0x54>
 8005872:	f06f 0204 	mvn.w	r2, #4
 8005876:	611a      	str	r2, [r3, #16]
 8005878:	2202      	movs	r2, #2
 800587a:	7722      	strb	r2, [r4, #28]
 800587c:	699b      	ldr	r3, [r3, #24]
 800587e:	4620      	mov	r0, r4
 8005880:	f413 7f40 	tst.w	r3, #768	; 0x300
 8005884:	d068      	beq.n	8005958 <HAL_TIM_IRQHandler+0x11e>
 8005886:	f7ff ffd5 	bl	8005834 <HAL_TIM_IC_CaptureCallback>
 800588a:	2300      	movs	r3, #0
 800588c:	7723      	strb	r3, [r4, #28]
 800588e:	6823      	ldr	r3, [r4, #0]
 8005890:	691a      	ldr	r2, [r3, #16]
 8005892:	0712      	lsls	r2, r2, #28
 8005894:	d50f      	bpl.n	80058b6 <HAL_TIM_IRQHandler+0x7c>
 8005896:	68da      	ldr	r2, [r3, #12]
 8005898:	0710      	lsls	r0, r2, #28
 800589a:	d50c      	bpl.n	80058b6 <HAL_TIM_IRQHandler+0x7c>
 800589c:	f06f 0208 	mvn.w	r2, #8
 80058a0:	611a      	str	r2, [r3, #16]
 80058a2:	2204      	movs	r2, #4
 80058a4:	7722      	strb	r2, [r4, #28]
 80058a6:	69db      	ldr	r3, [r3, #28]
 80058a8:	4620      	mov	r0, r4
 80058aa:	0799      	lsls	r1, r3, #30
 80058ac:	d05a      	beq.n	8005964 <HAL_TIM_IRQHandler+0x12a>
 80058ae:	f7ff ffc1 	bl	8005834 <HAL_TIM_IC_CaptureCallback>
 80058b2:	2300      	movs	r3, #0
 80058b4:	7723      	strb	r3, [r4, #28]
 80058b6:	6823      	ldr	r3, [r4, #0]
 80058b8:	691a      	ldr	r2, [r3, #16]
 80058ba:	06d2      	lsls	r2, r2, #27
 80058bc:	d510      	bpl.n	80058e0 <HAL_TIM_IRQHandler+0xa6>
 80058be:	68da      	ldr	r2, [r3, #12]
 80058c0:	06d0      	lsls	r0, r2, #27
 80058c2:	d50d      	bpl.n	80058e0 <HAL_TIM_IRQHandler+0xa6>
 80058c4:	f06f 0210 	mvn.w	r2, #16
 80058c8:	611a      	str	r2, [r3, #16]
 80058ca:	2208      	movs	r2, #8
 80058cc:	7722      	strb	r2, [r4, #28]
 80058ce:	69db      	ldr	r3, [r3, #28]
 80058d0:	4620      	mov	r0, r4
 80058d2:	f413 7f40 	tst.w	r3, #768	; 0x300
 80058d6:	d04b      	beq.n	8005970 <HAL_TIM_IRQHandler+0x136>
 80058d8:	f7ff ffac 	bl	8005834 <HAL_TIM_IC_CaptureCallback>
 80058dc:	2300      	movs	r3, #0
 80058de:	7723      	strb	r3, [r4, #28]
 80058e0:	6823      	ldr	r3, [r4, #0]
 80058e2:	691a      	ldr	r2, [r3, #16]
 80058e4:	07d1      	lsls	r1, r2, #31
 80058e6:	d508      	bpl.n	80058fa <HAL_TIM_IRQHandler+0xc0>
 80058e8:	68da      	ldr	r2, [r3, #12]
 80058ea:	07d2      	lsls	r2, r2, #31
 80058ec:	d505      	bpl.n	80058fa <HAL_TIM_IRQHandler+0xc0>
 80058ee:	f06f 0201 	mvn.w	r2, #1
 80058f2:	4620      	mov	r0, r4
 80058f4:	611a      	str	r2, [r3, #16]
 80058f6:	f7fb ff1f 	bl	8001738 <HAL_TIM_PeriodElapsedCallback>
 80058fa:	6823      	ldr	r3, [r4, #0]
 80058fc:	691a      	ldr	r2, [r3, #16]
 80058fe:	0610      	lsls	r0, r2, #24
 8005900:	d508      	bpl.n	8005914 <HAL_TIM_IRQHandler+0xda>
 8005902:	68da      	ldr	r2, [r3, #12]
 8005904:	0611      	lsls	r1, r2, #24
 8005906:	d505      	bpl.n	8005914 <HAL_TIM_IRQHandler+0xda>
 8005908:	f06f 0280 	mvn.w	r2, #128	; 0x80
 800590c:	4620      	mov	r0, r4
 800590e:	611a      	str	r2, [r3, #16]
 8005910:	f000 fa7d 	bl	8005e0e <HAL_TIMEx_BreakCallback>
 8005914:	6823      	ldr	r3, [r4, #0]
 8005916:	691a      	ldr	r2, [r3, #16]
 8005918:	0652      	lsls	r2, r2, #25
 800591a:	d508      	bpl.n	800592e <HAL_TIM_IRQHandler+0xf4>
 800591c:	68da      	ldr	r2, [r3, #12]
 800591e:	0650      	lsls	r0, r2, #25
 8005920:	d505      	bpl.n	800592e <HAL_TIM_IRQHandler+0xf4>
 8005922:	f06f 0240 	mvn.w	r2, #64	; 0x40
 8005926:	4620      	mov	r0, r4
 8005928:	611a      	str	r2, [r3, #16]
 800592a:	f7ff ff85 	bl	8005838 <HAL_TIM_TriggerCallback>
 800592e:	6823      	ldr	r3, [r4, #0]
 8005930:	691a      	ldr	r2, [r3, #16]
 8005932:	0691      	lsls	r1, r2, #26
 8005934:	d522      	bpl.n	800597c <HAL_TIM_IRQHandler+0x142>
 8005936:	68da      	ldr	r2, [r3, #12]
 8005938:	0692      	lsls	r2, r2, #26
 800593a:	d51f      	bpl.n	800597c <HAL_TIM_IRQHandler+0x142>
 800593c:	f06f 0220 	mvn.w	r2, #32
 8005940:	4620      	mov	r0, r4
 8005942:	e8bd 4010 	ldmia.w	sp!, {r4, lr}
 8005946:	611a      	str	r2, [r3, #16]
 8005948:	f000 ba60 	b.w	8005e0c <HAL_TIMEx_CommutCallback>
 800594c:	f7ff ff71 	bl	8005832 <HAL_TIM_OC_DelayElapsedCallback>
 8005950:	4620      	mov	r0, r4
 8005952:	f7ff ff70 	bl	8005836 <HAL_TIM_PWM_PulseFinishedCallback>
 8005956:	e783      	b.n	8005860 <HAL_TIM_IRQHandler+0x26>
 8005958:	f7ff ff6b 	bl	8005832 <HAL_TIM_OC_DelayElapsedCallback>
 800595c:	4620      	mov	r0, r4
 800595e:	f7ff ff6a 	bl	8005836 <HAL_TIM_PWM_PulseFinishedCallback>
 8005962:	e792      	b.n	800588a <HAL_TIM_IRQHandler+0x50>
 8005964:	f7ff ff65 	bl	8005832 <HAL_TIM_OC_DelayElapsedCallback>
 8005968:	4620      	mov	r0, r4
 800596a:	f7ff ff64 	bl	8005836 <HAL_TIM_PWM_PulseFinishedCallback>
 800596e:	e7a0      	b.n	80058b2 <HAL_TIM_IRQHandler+0x78>
 8005970:	f7ff ff5f 	bl	8005832 <HAL_TIM_OC_DelayElapsedCallback>
 8005974:	4620      	mov	r0, r4
 8005976:	f7ff ff5e 	bl	8005836 <HAL_TIM_PWM_PulseFinishedCallback>
 800597a:	e7af      	b.n	80058dc <HAL_TIM_IRQHandler+0xa2>
 800597c:	bd10      	pop	{r4, pc}
	...

08005980 <TIM_Base_SetConfig>:
 8005980:	4a1a      	ldr	r2, [pc, #104]	; (80059ec <TIM_Base_SetConfig+0x6c>)
 8005982:	6803      	ldr	r3, [r0, #0]
 8005984:	4290      	cmp	r0, r2
 8005986:	d00a      	beq.n	800599e <TIM_Base_SetConfig+0x1e>
 8005988:	f1b0 4f80 	cmp.w	r0, #1073741824	; 0x40000000
 800598c:	d007      	beq.n	800599e <TIM_Base_SetConfig+0x1e>
 800598e:	f5a2 3294 	sub.w	r2, r2, #75776	; 0x12800
 8005992:	4290      	cmp	r0, r2
 8005994:	d003      	beq.n	800599e <TIM_Base_SetConfig+0x1e>
 8005996:	f502 6280 	add.w	r2, r2, #1024	; 0x400
 800599a:	4290      	cmp	r0, r2
 800599c:	d115      	bne.n	80059ca <TIM_Base_SetConfig+0x4a>
 800599e:	684a      	ldr	r2, [r1, #4]
 80059a0:	f023 0370 	bic.w	r3, r3, #112	; 0x70
 80059a4:	4313      	orrs	r3, r2
 80059a6:	4a11      	ldr	r2, [pc, #68]	; (80059ec <TIM_Base_SetConfig+0x6c>)
 80059a8:	4290      	cmp	r0, r2
 80059aa:	d00a      	beq.n	80059c2 <TIM_Base_SetConfig+0x42>
 80059ac:	f1b0 4f80 	cmp.w	r0, #1073741824	; 0x40000000
 80059b0:	d007      	beq.n	80059c2 <TIM_Base_SetConfig+0x42>
 80059b2:	f5a2 3294 	sub.w	r2, r2, #75776	; 0x12800
 80059b6:	4290      	cmp	r0, r2
 80059b8:	d003      	beq.n	80059c2 <TIM_Base_SetConfig+0x42>
 80059ba:	f502 6280 	add.w	r2, r2, #1024	; 0x400
 80059be:	4290      	cmp	r0, r2
 80059c0:	d103      	bne.n	80059ca <TIM_Base_SetConfig+0x4a>
 80059c2:	68ca      	ldr	r2, [r1, #12]
 80059c4:	f423 7340 	bic.w	r3, r3, #768	; 0x300
 80059c8:	4313      	orrs	r3, r2
 80059ca:	694a      	ldr	r2, [r1, #20]
 80059cc:	f023 0380 	bic.w	r3, r3, #128	; 0x80
 80059d0:	4313      	orrs	r3, r2
 80059d2:	6003      	str	r3, [r0, #0]
 80059d4:	688b      	ldr	r3, [r1, #8]
 80059d6:	62c3      	str	r3, [r0, #44]	; 0x2c
 80059d8:	680b      	ldr	r3, [r1, #0]
 80059da:	6283      	str	r3, [r0, #40]	; 0x28
 80059dc:	4b03      	ldr	r3, [pc, #12]	; (80059ec <TIM_Base_SetConfig+0x6c>)
 80059de:	4298      	cmp	r0, r3
 80059e0:	bf04      	itt	eq
 80059e2:	690b      	ldreq	r3, [r1, #16]
 80059e4:	6303      	streq	r3, [r0, #48]	; 0x30
 80059e6:	2301      	movs	r3, #1
 80059e8:	6143      	str	r3, [r0, #20]
 80059ea:	4770      	bx	lr
 80059ec:	40012c00 	.word	0x40012c00

080059f0 <HAL_TIM_Base_Init>:
 80059f0:	b510      	push	{r4, lr}
 80059f2:	4604      	mov	r4, r0
 80059f4:	b330      	cbz	r0, 8005a44 <HAL_TIM_Base_Init+0x54>
 80059f6:	f890 303d 	ldrb.w	r3, [r0, #61]	; 0x3d
 80059fa:	f003 02ff 	and.w	r2, r3, #255	; 0xff
 80059fe:	b91b      	cbnz	r3, 8005a08 <HAL_TIM_Base_Init+0x18>
 8005a00:	f880 203c 	strb.w	r2, [r0, #60]	; 0x3c
 8005a04:	f7fd f9ac 	bl	8002d60 <HAL_TIM_Base_MspInit>
 8005a08:	2302      	movs	r3, #2
 8005a0a:	6820      	ldr	r0, [r4, #0]
 8005a0c:	f884 303d 	strb.w	r3, [r4, #61]	; 0x3d
 8005a10:	1d21      	adds	r1, r4, #4
 8005a12:	f7ff ffb5 	bl	8005980 <TIM_Base_SetConfig>
 8005a16:	2301      	movs	r3, #1
 8005a18:	2000      	movs	r0, #0
 8005a1a:	f884 3046 	strb.w	r3, [r4, #70]	; 0x46
 8005a1e:	f884 303e 	strb.w	r3, [r4, #62]	; 0x3e
 8005a22:	f884 303f 	strb.w	r3, [r4, #63]	; 0x3f
 8005a26:	f884 3040 	strb.w	r3, [r4, #64]	; 0x40
 8005a2a:	f884 3041 	strb.w	r3, [r4, #65]	; 0x41
 8005a2e:	f884 3042 	strb.w	r3, [r4, #66]	; 0x42
 8005a32:	f884 3043 	strb.w	r3, [r4, #67]	; 0x43
 8005a36:	f884 3044 	strb.w	r3, [r4, #68]	; 0x44
 8005a3a:	f884 3045 	strb.w	r3, [r4, #69]	; 0x45
 8005a3e:	f884 303d 	strb.w	r3, [r4, #61]	; 0x3d
 8005a42:	bd10      	pop	{r4, pc}
 8005a44:	2001      	movs	r0, #1
 8005a46:	e7fc      	b.n	8005a42 <HAL_TIM_Base_Init+0x52>

08005a48 <HAL_TIM_PWM_Init>:
 8005a48:	b510      	push	{r4, lr}
 8005a4a:	4604      	mov	r4, r0
 8005a4c:	b330      	cbz	r0, 8005a9c <HAL_TIM_PWM_Init+0x54>
 8005a4e:	f890 303d 	ldrb.w	r3, [r0, #61]	; 0x3d
 8005a52:	f003 02ff 	and.w	r2, r3, #255	; 0xff
 8005a56:	b91b      	cbnz	r3, 8005a60 <HAL_TIM_PWM_Init+0x18>
 8005a58:	f880 203c 	strb.w	r2, [r0, #60]	; 0x3c
 8005a5c:	f7ff fee8 	bl	8005830 <HAL_TIM_PWM_MspInit>
 8005a60:	2302      	movs	r3, #2
 8005a62:	6820      	ldr	r0, [r4, #0]
 8005a64:	f884 303d 	strb.w	r3, [r4, #61]	; 0x3d
 8005a68:	1d21      	adds	r1, r4, #4
 8005a6a:	f7ff ff89 	bl	8005980 <TIM_Base_SetConfig>
 8005a6e:	2301      	movs	r3, #1
 8005a70:	2000      	movs	r0, #0
 8005a72:	f884 3046 	strb.w	r3, [r4, #70]	; 0x46
 8005a76:	f884 303e 	strb.w	r3, [r4, #62]	; 0x3e
 8005a7a:	f884 303f 	strb.w	r3, [r4, #63]	; 0x3f
 8005a7e:	f884 3040 	strb.w	r3, [r4, #64]	; 0x40
 8005a82:	f884 3041 	strb.w	r3, [r4, #65]	; 0x41
 8005a86:	f884 3042 	strb.w	r3, [r4, #66]	; 0x42
 8005a8a:	f884 3043 	strb.w	r3, [r4, #67]	; 0x43
 8005a8e:	f884 3044 	strb.w	r3, [r4, #68]	; 0x44
 8005a92:	f884 3045 	strb.w	r3, [r4, #69]	; 0x45
 8005a96:	f884 303d 	strb.w	r3, [r4, #61]	; 0x3d
 8005a9a:	bd10      	pop	{r4, pc}
 8005a9c:	2001      	movs	r0, #1
 8005a9e:	e7fc      	b.n	8005a9a <HAL_TIM_PWM_Init+0x52>

08005aa0 <TIM_OC2_SetConfig>:
 8005aa0:	6a03      	ldr	r3, [r0, #32]
 8005aa2:	6a02      	ldr	r2, [r0, #32]
 8005aa4:	b570      	push	{r4, r5, r6, lr}
 8005aa6:	f022 0210 	bic.w	r2, r2, #16
 8005aaa:	6202      	str	r2, [r0, #32]
 8005aac:	6844      	ldr	r4, [r0, #4]
 8005aae:	6982      	ldr	r2, [r0, #24]
 8005ab0:	680d      	ldr	r5, [r1, #0]
 8005ab2:	f422 42e6 	bic.w	r2, r2, #29440	; 0x7300
 8005ab6:	ea42 2205 	orr.w	r2, r2, r5, lsl #8
 8005aba:	688d      	ldr	r5, [r1, #8]
 8005abc:	f023 0320 	bic.w	r3, r3, #32
 8005ac0:	ea43 1305 	orr.w	r3, r3, r5, lsl #4
 8005ac4:	4d0b      	ldr	r5, [pc, #44]	; (8005af4 <TIM_OC2_SetConfig+0x54>)
 8005ac6:	42a8      	cmp	r0, r5
 8005ac8:	d10d      	bne.n	8005ae6 <TIM_OC2_SetConfig+0x46>
 8005aca:	68cd      	ldr	r5, [r1, #12]
 8005acc:	f023 0380 	bic.w	r3, r3, #128	; 0x80
 8005ad0:	ea43 1305 	orr.w	r3, r3, r5, lsl #4
 8005ad4:	f424 6440 	bic.w	r4, r4, #3072	; 0xc00
 8005ad8:	e9d1 5605 	ldrd	r5, r6, [r1, #20]
 8005adc:	4335      	orrs	r5, r6
 8005ade:	f023 0340 	bic.w	r3, r3, #64	; 0x40
 8005ae2:	ea44 0485 	orr.w	r4, r4, r5, lsl #2
 8005ae6:	6044      	str	r4, [r0, #4]
 8005ae8:	6182      	str	r2, [r0, #24]
 8005aea:	684a      	ldr	r2, [r1, #4]
 8005aec:	6382      	str	r2, [r0, #56]	; 0x38
 8005aee:	6203      	str	r3, [r0, #32]
 8005af0:	bd70      	pop	{r4, r5, r6, pc}
 8005af2:	bf00      	nop
 8005af4:	40012c00 	.word	0x40012c00

08005af8 <HAL_TIM_PWM_ConfigChannel>:
 8005af8:	b570      	push	{r4, r5, r6, lr}
 8005afa:	f890 303c 	ldrb.w	r3, [r0, #60]	; 0x3c
 8005afe:	4605      	mov	r5, r0
 8005b00:	2b01      	cmp	r3, #1
 8005b02:	d050      	beq.n	8005ba6 <HAL_TIM_PWM_ConfigChannel+0xae>
 8005b04:	2301      	movs	r3, #1
 8005b06:	2a08      	cmp	r2, #8
 8005b08:	f880 303c 	strb.w	r3, [r0, #60]	; 0x3c
 8005b0c:	d03b      	beq.n	8005b86 <HAL_TIM_PWM_ConfigChannel+0x8e>
 8005b0e:	d807      	bhi.n	8005b20 <HAL_TIM_PWM_ConfigChannel+0x28>
 8005b10:	b1c2      	cbz	r2, 8005b44 <HAL_TIM_PWM_ConfigChannel+0x4c>
 8005b12:	2a04      	cmp	r2, #4
 8005b14:	d027      	beq.n	8005b66 <HAL_TIM_PWM_ConfigChannel+0x6e>
 8005b16:	4618      	mov	r0, r3
 8005b18:	2300      	movs	r3, #0
 8005b1a:	f885 303c 	strb.w	r3, [r5, #60]	; 0x3c
 8005b1e:	bd70      	pop	{r4, r5, r6, pc}
 8005b20:	2a0c      	cmp	r2, #12
 8005b22:	d1f8      	bne.n	8005b16 <HAL_TIM_PWM_ConfigChannel+0x1e>
 8005b24:	6800      	ldr	r0, [r0, #0]
 8005b26:	f7ff fe11 	bl	800574c <TIM_OC4_SetConfig>
 8005b2a:	69c3      	ldr	r3, [r0, #28]
 8005b2c:	690a      	ldr	r2, [r1, #16]
 8005b2e:	f443 6300 	orr.w	r3, r3, #2048	; 0x800
 8005b32:	61c3      	str	r3, [r0, #28]
 8005b34:	69c3      	ldr	r3, [r0, #28]
 8005b36:	f423 6380 	bic.w	r3, r3, #1024	; 0x400
 8005b3a:	61c3      	str	r3, [r0, #28]
 8005b3c:	69c3      	ldr	r3, [r0, #28]
 8005b3e:	ea43 2302 	orr.w	r3, r3, r2, lsl #8
 8005b42:	e02e      	b.n	8005ba2 <HAL_TIM_PWM_ConfigChannel+0xaa>
 8005b44:	6800      	ldr	r0, [r0, #0]
 8005b46:	f7ff fdaf 	bl	80056a8 <TIM_OC1_SetConfig>
 8005b4a:	6983      	ldr	r3, [r0, #24]
 8005b4c:	690a      	ldr	r2, [r1, #16]
 8005b4e:	f043 0308 	orr.w	r3, r3, #8
 8005b52:	6183      	str	r3, [r0, #24]
 8005b54:	6983      	ldr	r3, [r0, #24]
 8005b56:	f023 0304 	bic.w	r3, r3, #4
 8005b5a:	6183      	str	r3, [r0, #24]
 8005b5c:	6983      	ldr	r3, [r0, #24]
 8005b5e:	4313      	orrs	r3, r2
 8005b60:	6183      	str	r3, [r0, #24]
 8005b62:	2000      	movs	r0, #0
 8005b64:	e7d8      	b.n	8005b18 <HAL_TIM_PWM_ConfigChannel+0x20>
 8005b66:	6800      	ldr	r0, [r0, #0]
 8005b68:	f7ff ff9a 	bl	8005aa0 <TIM_OC2_SetConfig>
 8005b6c:	6983      	ldr	r3, [r0, #24]
 8005b6e:	690a      	ldr	r2, [r1, #16]
 8005b70:	f443 6300 	orr.w	r3, r3, #2048	; 0x800
 8005b74:	6183      	str	r3, [r0, #24]
 8005b76:	6983      	ldr	r3, [r0, #24]
 8005b78:	f423 6380 	bic.w	r3, r3, #1024	; 0x400
 8005b7c:	6183      	str	r3, [r0, #24]
 8005b7e:	6983      	ldr	r3, [r0, #24]
 8005b80:	ea43 2302 	orr.w	r3, r3, r2, lsl #8
 8005b84:	e7ec      	b.n	8005b60 <HAL_TIM_PWM_ConfigChannel+0x68>
 8005b86:	6800      	ldr	r0, [r0, #0]
 8005b88:	f7ff fdb6 	bl	80056f8 <TIM_OC3_SetConfig>
 8005b8c:	69c3      	ldr	r3, [r0, #28]
 8005b8e:	690a      	ldr	r2, [r1, #16]
 8005b90:	f043 0308 	orr.w	r3, r3, #8
 8005b94:	61c3      	str	r3, [r0, #28]
 8005b96:	69c3      	ldr	r3, [r0, #28]
 8005b98:	f023 0304 	bic.w	r3, r3, #4
 8005b9c:	61c3      	str	r3, [r0, #28]
 8005b9e:	69c3      	ldr	r3, [r0, #28]
 8005ba0:	4313      	orrs	r3, r2
 8005ba2:	61c3      	str	r3, [r0, #28]
 8005ba4:	e7dd      	b.n	8005b62 <HAL_TIM_PWM_ConfigChannel+0x6a>
 8005ba6:	2002      	movs	r0, #2
 8005ba8:	e7b9      	b.n	8005b1e <HAL_TIM_PWM_ConfigChannel+0x26>

08005baa <TIM_ETR_SetConfig>:
 8005baa:	b510      	push	{r4, lr}
 8005bac:	6884      	ldr	r4, [r0, #8]
 8005bae:	430a      	orrs	r2, r1
 8005bb0:	f424 447f 	bic.w	r4, r4, #65280	; 0xff00
 8005bb4:	ea42 2203 	orr.w	r2, r2, r3, lsl #8
 8005bb8:	4322      	orrs	r2, r4
 8005bba:	6082      	str	r2, [r0, #8]
 8005bbc:	bd10      	pop	{r4, pc}

08005bbe <HAL_TIM_ConfigClockSource>:
 8005bbe:	b538      	push	{r3, r4, r5, lr}
 8005bc0:	f890 303c 	ldrb.w	r3, [r0, #60]	; 0x3c
 8005bc4:	4604      	mov	r4, r0
 8005bc6:	2b01      	cmp	r3, #1
 8005bc8:	f04f 0002 	mov.w	r0, #2
 8005bcc:	f000 808e 	beq.w	8005cec <HAL_TIM_ConfigClockSource+0x12e>
 8005bd0:	2201      	movs	r2, #1
 8005bd2:	f884 003d 	strb.w	r0, [r4, #61]	; 0x3d
 8005bd6:	6820      	ldr	r0, [r4, #0]
 8005bd8:	f884 203c 	strb.w	r2, [r4, #60]	; 0x3c
 8005bdc:	6883      	ldr	r3, [r0, #8]
 8005bde:	f423 437f 	bic.w	r3, r3, #65280	; 0xff00
 8005be2:	f023 0377 	bic.w	r3, r3, #119	; 0x77
 8005be6:	6083      	str	r3, [r0, #8]
 8005be8:	680b      	ldr	r3, [r1, #0]
 8005bea:	2b60      	cmp	r3, #96	; 0x60
 8005bec:	d04f      	beq.n	8005c8e <HAL_TIM_ConfigClockSource+0xd0>
 8005bee:	d832      	bhi.n	8005c56 <HAL_TIM_ConfigClockSource+0x98>
 8005bf0:	2b40      	cmp	r3, #64	; 0x40
 8005bf2:	d064      	beq.n	8005cbe <HAL_TIM_ConfigClockSource+0x100>
 8005bf4:	d816      	bhi.n	8005c24 <HAL_TIM_ConfigClockSource+0x66>
 8005bf6:	2b20      	cmp	r3, #32
 8005bf8:	d00d      	beq.n	8005c16 <HAL_TIM_ConfigClockSource+0x58>
 8005bfa:	d80a      	bhi.n	8005c12 <HAL_TIM_ConfigClockSource+0x54>
 8005bfc:	f033 0110 	bics.w	r1, r3, #16
 8005c00:	d009      	beq.n	8005c16 <HAL_TIM_ConfigClockSource+0x58>
 8005c02:	2301      	movs	r3, #1
 8005c04:	f884 303d 	strb.w	r3, [r4, #61]	; 0x3d
 8005c08:	2300      	movs	r3, #0
 8005c0a:	f884 303c 	strb.w	r3, [r4, #60]	; 0x3c
 8005c0e:	4610      	mov	r0, r2
 8005c10:	bd38      	pop	{r3, r4, r5, pc}
 8005c12:	2b30      	cmp	r3, #48	; 0x30
 8005c14:	d1f5      	bne.n	8005c02 <HAL_TIM_ConfigClockSource+0x44>
 8005c16:	6882      	ldr	r2, [r0, #8]
 8005c18:	f022 0270 	bic.w	r2, r2, #112	; 0x70
 8005c1c:	4313      	orrs	r3, r2
 8005c1e:	f043 0307 	orr.w	r3, r3, #7
 8005c22:	e028      	b.n	8005c76 <HAL_TIM_ConfigClockSource+0xb8>
 8005c24:	2b50      	cmp	r3, #80	; 0x50
 8005c26:	d1ec      	bne.n	8005c02 <HAL_TIM_ConfigClockSource+0x44>
 8005c28:	684a      	ldr	r2, [r1, #4]
 8005c2a:	68cd      	ldr	r5, [r1, #12]
 8005c2c:	6a01      	ldr	r1, [r0, #32]
 8005c2e:	6a03      	ldr	r3, [r0, #32]
 8005c30:	f021 010a 	bic.w	r1, r1, #10
 8005c34:	f023 0301 	bic.w	r3, r3, #1
 8005c38:	6203      	str	r3, [r0, #32]
 8005c3a:	6983      	ldr	r3, [r0, #24]
 8005c3c:	430a      	orrs	r2, r1
 8005c3e:	f023 03f0 	bic.w	r3, r3, #240	; 0xf0
 8005c42:	ea43 1305 	orr.w	r3, r3, r5, lsl #4
 8005c46:	6183      	str	r3, [r0, #24]
 8005c48:	6202      	str	r2, [r0, #32]
 8005c4a:	6883      	ldr	r3, [r0, #8]
 8005c4c:	f023 0370 	bic.w	r3, r3, #112	; 0x70
 8005c50:	f043 0357 	orr.w	r3, r3, #87	; 0x57
 8005c54:	e00f      	b.n	8005c76 <HAL_TIM_ConfigClockSource+0xb8>
 8005c56:	f5b3 5f80 	cmp.w	r3, #4096	; 0x1000
 8005c5a:	d00d      	beq.n	8005c78 <HAL_TIM_ConfigClockSource+0xba>
 8005c5c:	f5b3 5f00 	cmp.w	r3, #8192	; 0x2000
 8005c60:	d00c      	beq.n	8005c7c <HAL_TIM_ConfigClockSource+0xbe>
 8005c62:	2b70      	cmp	r3, #112	; 0x70
 8005c64:	d1cd      	bne.n	8005c02 <HAL_TIM_ConfigClockSource+0x44>
 8005c66:	68cb      	ldr	r3, [r1, #12]
 8005c68:	e9d1 2101 	ldrd	r2, r1, [r1, #4]
 8005c6c:	f7ff ff9d 	bl	8005baa <TIM_ETR_SetConfig>
 8005c70:	6883      	ldr	r3, [r0, #8]
 8005c72:	f043 0377 	orr.w	r3, r3, #119	; 0x77
 8005c76:	6083      	str	r3, [r0, #8]
 8005c78:	2200      	movs	r2, #0
 8005c7a:	e7c2      	b.n	8005c02 <HAL_TIM_ConfigClockSource+0x44>
 8005c7c:	68cb      	ldr	r3, [r1, #12]
 8005c7e:	e9d1 2101 	ldrd	r2, r1, [r1, #4]
 8005c82:	f7ff ff92 	bl	8005baa <TIM_ETR_SetConfig>
 8005c86:	6883      	ldr	r3, [r0, #8]
 8005c88:	f443 4380 	orr.w	r3, r3, #16384	; 0x4000
 8005c8c:	e7f3      	b.n	8005c76 <HAL_TIM_ConfigClockSource+0xb8>
 8005c8e:	6a03      	ldr	r3, [r0, #32]
 8005c90:	6a02      	ldr	r2, [r0, #32]
 8005c92:	684d      	ldr	r5, [r1, #4]
 8005c94:	f022 0210 	bic.w	r2, r2, #16
 8005c98:	68c9      	ldr	r1, [r1, #12]
 8005c9a:	6202      	str	r2, [r0, #32]
 8005c9c:	6982      	ldr	r2, [r0, #24]
 8005c9e:	f023 03a0 	bic.w	r3, r3, #160	; 0xa0
 8005ca2:	f422 4270 	bic.w	r2, r2, #61440	; 0xf000
 8005ca6:	ea43 1305 	orr.w	r3, r3, r5, lsl #4
 8005caa:	ea42 3201 	orr.w	r2, r2, r1, lsl #12
 8005cae:	6182      	str	r2, [r0, #24]
 8005cb0:	6203      	str	r3, [r0, #32]
 8005cb2:	6883      	ldr	r3, [r0, #8]
 8005cb4:	f023 0370 	bic.w	r3, r3, #112	; 0x70
 8005cb8:	f043 0367 	orr.w	r3, r3, #103	; 0x67
 8005cbc:	e7db      	b.n	8005c76 <HAL_TIM_ConfigClockSource+0xb8>
 8005cbe:	684a      	ldr	r2, [r1, #4]
 8005cc0:	68cd      	ldr	r5, [r1, #12]
 8005cc2:	6a01      	ldr	r1, [r0, #32]
 8005cc4:	6a03      	ldr	r3, [r0, #32]
 8005cc6:	f021 010a 	bic.w	r1, r1, #10
 8005cca:	f023 0301 	bic.w	r3, r3, #1
 8005cce:	6203      	str	r3, [r0, #32]
 8005cd0:	6983      	ldr	r3, [r0, #24]
 8005cd2:	430a      	orrs	r2, r1
 8005cd4:	f023 03f0 	bic.w	r3, r3, #240	; 0xf0
 8005cd8:	ea43 1305 	orr.w	r3, r3, r5, lsl #4
 8005cdc:	6183      	str	r3, [r0, #24]
 8005cde:	6202      	str	r2, [r0, #32]
 8005ce0:	6883      	ldr	r3, [r0, #8]
 8005ce2:	f023 0370 	bic.w	r3, r3, #112	; 0x70
 8005ce6:	f043 0347 	orr.w	r3, r3, #71	; 0x47
 8005cea:	e7c4      	b.n	8005c76 <HAL_TIM_ConfigClockSource+0xb8>
 8005cec:	4602      	mov	r2, r0
 8005cee:	e78e      	b.n	8005c0e <HAL_TIM_ConfigClockSource+0x50>

08005cf0 <TIM_CCxChannelCmd>:
 8005cf0:	b510      	push	{r4, lr}
 8005cf2:	2401      	movs	r4, #1
 8005cf4:	6a03      	ldr	r3, [r0, #32]
 8005cf6:	f001 011f 	and.w	r1, r1, #31
 8005cfa:	408c      	lsls	r4, r1
 8005cfc:	ea23 0304 	bic.w	r3, r3, r4
 8005d00:	6203      	str	r3, [r0, #32]
 8005d02:	6a03      	ldr	r3, [r0, #32]
 8005d04:	408a      	lsls	r2, r1
 8005d06:	431a      	orrs	r2, r3
 8005d08:	6202      	str	r2, [r0, #32]
 8005d0a:	bd10      	pop	{r4, pc}

08005d0c <HAL_TIM_OC_Start>:
 8005d0c:	b508      	push	{r3, lr}
 8005d0e:	b929      	cbnz	r1, 8005d1c <HAL_TIM_OC_Start+0x10>
 8005d10:	f890 303e 	ldrb.w	r3, [r0, #62]	; 0x3e
 8005d14:	2b01      	cmp	r3, #1
 8005d16:	d021      	beq.n	8005d5c <HAL_TIM_OC_Start+0x50>
 8005d18:	2001      	movs	r0, #1
 8005d1a:	bd08      	pop	{r3, pc}
 8005d1c:	2904      	cmp	r1, #4
 8005d1e:	d107      	bne.n	8005d30 <HAL_TIM_OC_Start+0x24>
 8005d20:	f890 303f 	ldrb.w	r3, [r0, #63]	; 0x3f
 8005d24:	2b01      	cmp	r3, #1
 8005d26:	d1f7      	bne.n	8005d18 <HAL_TIM_OC_Start+0xc>
 8005d28:	2302      	movs	r3, #2
 8005d2a:	f880 303f 	strb.w	r3, [r0, #63]	; 0x3f
 8005d2e:	e018      	b.n	8005d62 <HAL_TIM_OC_Start+0x56>
 8005d30:	2908      	cmp	r1, #8
 8005d32:	d107      	bne.n	8005d44 <HAL_TIM_OC_Start+0x38>
 8005d34:	f890 3040 	ldrb.w	r3, [r0, #64]	; 0x40
 8005d38:	2b01      	cmp	r3, #1
 8005d3a:	d1ed      	bne.n	8005d18 <HAL_TIM_OC_Start+0xc>
 8005d3c:	2302      	movs	r3, #2
 8005d3e:	f880 3040 	strb.w	r3, [r0, #64]	; 0x40
 8005d42:	e00e      	b.n	8005d62 <HAL_TIM_OC_Start+0x56>
 8005d44:	f890 3041 	ldrb.w	r3, [r0, #65]	; 0x41
 8005d48:	2b01      	cmp	r3, #1
 8005d4a:	d1e5      	bne.n	8005d18 <HAL_TIM_OC_Start+0xc>
 8005d4c:	2904      	cmp	r1, #4
 8005d4e:	d0eb      	beq.n	8005d28 <HAL_TIM_OC_Start+0x1c>
 8005d50:	2908      	cmp	r1, #8
 8005d52:	d0f3      	beq.n	8005d3c <HAL_TIM_OC_Start+0x30>
 8005d54:	2302      	movs	r3, #2
 8005d56:	f880 3041 	strb.w	r3, [r0, #65]	; 0x41
 8005d5a:	e002      	b.n	8005d62 <HAL_TIM_OC_Start+0x56>
 8005d5c:	2302      	movs	r3, #2
 8005d5e:	f880 303e 	strb.w	r3, [r0, #62]	; 0x3e
 8005d62:	6800      	ldr	r0, [r0, #0]
 8005d64:	2201      	movs	r2, #1
 8005d66:	f7ff ffc3 	bl	8005cf0 <TIM_CCxChannelCmd>
 8005d6a:	4b0e      	ldr	r3, [pc, #56]	; (8005da4 <HAL_TIM_OC_Start+0x98>)
 8005d6c:	4298      	cmp	r0, r3
 8005d6e:	d10a      	bne.n	8005d86 <HAL_TIM_OC_Start+0x7a>
 8005d70:	6c43      	ldr	r3, [r0, #68]	; 0x44
 8005d72:	f443 4300 	orr.w	r3, r3, #32768	; 0x8000
 8005d76:	6443      	str	r3, [r0, #68]	; 0x44
 8005d78:	6883      	ldr	r3, [r0, #8]
 8005d7a:	f003 0307 	and.w	r3, r3, #7
 8005d7e:	2b06      	cmp	r3, #6
 8005d80:	d10b      	bne.n	8005d9a <HAL_TIM_OC_Start+0x8e>
 8005d82:	2000      	movs	r0, #0
 8005d84:	e7c9      	b.n	8005d1a <HAL_TIM_OC_Start+0xe>
 8005d86:	f1b0 4f80 	cmp.w	r0, #1073741824	; 0x40000000
 8005d8a:	d0f5      	beq.n	8005d78 <HAL_TIM_OC_Start+0x6c>
 8005d8c:	4b06      	ldr	r3, [pc, #24]	; (8005da8 <HAL_TIM_OC_Start+0x9c>)
 8005d8e:	4298      	cmp	r0, r3
 8005d90:	d0f2      	beq.n	8005d78 <HAL_TIM_OC_Start+0x6c>
 8005d92:	f503 6380 	add.w	r3, r3, #1024	; 0x400
 8005d96:	4298      	cmp	r0, r3
 8005d98:	d0ee      	beq.n	8005d78 <HAL_TIM_OC_Start+0x6c>
 8005d9a:	6803      	ldr	r3, [r0, #0]
 8005d9c:	f043 0301 	orr.w	r3, r3, #1
 8005da0:	6003      	str	r3, [r0, #0]
 8005da2:	e7ee      	b.n	8005d82 <HAL_TIM_OC_Start+0x76>
 8005da4:	40012c00 	.word	0x40012c00
 8005da8:	40000400 	.word	0x40000400

08005dac <HAL_TIM_PWM_Start>:
 8005dac:	f7ff bfae 	b.w	8005d0c <HAL_TIM_OC_Start>

08005db0 <HAL_TIMEx_MasterConfigSynchronization>:
 8005db0:	b530      	push	{r4, r5, lr}
 8005db2:	f890 303c 	ldrb.w	r3, [r0, #60]	; 0x3c
 8005db6:	4602      	mov	r2, r0
 8005db8:	2b01      	cmp	r3, #1
 8005dba:	f04f 0002 	mov.w	r0, #2
 8005dbe:	d022      	beq.n	8005e06 <HAL_TIMEx_MasterConfigSynchronization+0x56>
 8005dc0:	6813      	ldr	r3, [r2, #0]
 8005dc2:	f882 003d 	strb.w	r0, [r2, #61]	; 0x3d
 8005dc6:	685c      	ldr	r4, [r3, #4]
 8005dc8:	680d      	ldr	r5, [r1, #0]
 8005dca:	f024 0470 	bic.w	r4, r4, #112	; 0x70
 8005dce:	432c      	orrs	r4, r5
 8005dd0:	6898      	ldr	r0, [r3, #8]
 8005dd2:	605c      	str	r4, [r3, #4]
 8005dd4:	4c0c      	ldr	r4, [pc, #48]	; (8005e08 <HAL_TIMEx_MasterConfigSynchronization+0x58>)
 8005dd6:	42a3      	cmp	r3, r4
 8005dd8:	d00a      	beq.n	8005df0 <HAL_TIMEx_MasterConfigSynchronization+0x40>
 8005dda:	f1b3 4f80 	cmp.w	r3, #1073741824	; 0x40000000
 8005dde:	d007      	beq.n	8005df0 <HAL_TIMEx_MasterConfigSynchronization+0x40>
 8005de0:	f5a4 3494 	sub.w	r4, r4, #75776	; 0x12800
 8005de4:	42a3      	cmp	r3, r4
 8005de6:	d003      	beq.n	8005df0 <HAL_TIMEx_MasterConfigSynchronization+0x40>
 8005de8:	f504 6480 	add.w	r4, r4, #1024	; 0x400
 8005dec:	42a3      	cmp	r3, r4
 8005dee:	d104      	bne.n	8005dfa <HAL_TIMEx_MasterConfigSynchronization+0x4a>
 8005df0:	6849      	ldr	r1, [r1, #4]
 8005df2:	f020 0080 	bic.w	r0, r0, #128	; 0x80
 8005df6:	4301      	orrs	r1, r0
 8005df8:	6099      	str	r1, [r3, #8]
 8005dfa:	2301      	movs	r3, #1
 8005dfc:	2000      	movs	r0, #0
 8005dfe:	f882 303d 	strb.w	r3, [r2, #61]	; 0x3d
 8005e02:	f882 003c 	strb.w	r0, [r2, #60]	; 0x3c
 8005e06:	bd30      	pop	{r4, r5, pc}
 8005e08:	40012c00 	.word	0x40012c00

08005e0c <HAL_TIMEx_CommutCallback>:
 8005e0c:	4770      	bx	lr

08005e0e <HAL_TIMEx_BreakCallback>:
 8005e0e:	4770      	bx	lr

08005e10 <UART_EndRxTransfer>:
 8005e10:	6802      	ldr	r2, [r0, #0]
 8005e12:	f102 030c 	add.w	r3, r2, #12
 8005e16:	e853 3f00 	ldrex	r3, [r3]
 8005e1a:	f423 7390 	bic.w	r3, r3, #288	; 0x120
 8005e1e:	320c      	adds	r2, #12
 8005e20:	e842 3100 	strex	r1, r3, [r2]
 8005e24:	6802      	ldr	r2, [r0, #0]
 8005e26:	2900      	cmp	r1, #0
 8005e28:	d1f2      	bne.n	8005e10 <UART_EndRxTransfer>
 8005e2a:	f102 0314 	add.w	r3, r2, #20
 8005e2e:	e853 3f00 	ldrex	r3, [r3]
 8005e32:	f023 0301 	bic.w	r3, r3, #1
 8005e36:	f102 0c14 	add.w	ip, r2, #20
 8005e3a:	e84c 3100 	strex	r1, r3, [ip]
 8005e3e:	2900      	cmp	r1, #0
 8005e40:	d1f3      	bne.n	8005e2a <UART_EndRxTransfer+0x1a>
 8005e42:	6b03      	ldr	r3, [r0, #48]	; 0x30
 8005e44:	2b01      	cmp	r3, #1
 8005e46:	d10b      	bne.n	8005e60 <UART_EndRxTransfer+0x50>
 8005e48:	f102 030c 	add.w	r3, r2, #12
 8005e4c:	e853 3f00 	ldrex	r3, [r3]
 8005e50:	f023 0310 	bic.w	r3, r3, #16
 8005e54:	f102 0c0c 	add.w	ip, r2, #12
 8005e58:	e84c 3100 	strex	r1, r3, [ip]
 8005e5c:	2900      	cmp	r1, #0
 8005e5e:	d1f3      	bne.n	8005e48 <UART_EndRxTransfer+0x38>
 8005e60:	2320      	movs	r3, #32
 8005e62:	f880 3042 	strb.w	r3, [r0, #66]	; 0x42
 8005e66:	2300      	movs	r3, #0
 8005e68:	6303      	str	r3, [r0, #48]	; 0x30
 8005e6a:	4770      	bx	lr

08005e6c <UART_SetConfig>:
 8005e6c:	b510      	push	{r4, lr}
 8005e6e:	4604      	mov	r4, r0
 8005e70:	6803      	ldr	r3, [r0, #0]
 8005e72:	68c1      	ldr	r1, [r0, #12]
 8005e74:	691a      	ldr	r2, [r3, #16]
 8005e76:	f422 5240 	bic.w	r2, r2, #12288	; 0x3000
 8005e7a:	430a      	orrs	r2, r1
 8005e7c:	611a      	str	r2, [r3, #16]
 8005e7e:	6882      	ldr	r2, [r0, #8]
 8005e80:	6900      	ldr	r0, [r0, #16]
 8005e82:	68d9      	ldr	r1, [r3, #12]
 8005e84:	4302      	orrs	r2, r0
 8005e86:	6960      	ldr	r0, [r4, #20]
 8005e88:	f421 51b0 	bic.w	r1, r1, #5632	; 0x1600
 8005e8c:	f021 010c 	bic.w	r1, r1, #12
 8005e90:	4302      	orrs	r2, r0
 8005e92:	430a      	orrs	r2, r1
 8005e94:	60da      	str	r2, [r3, #12]
 8005e96:	695a      	ldr	r2, [r3, #20]
 8005e98:	69a1      	ldr	r1, [r4, #24]
 8005e9a:	f422 7240 	bic.w	r2, r2, #768	; 0x300
 8005e9e:	430a      	orrs	r2, r1
 8005ea0:	615a      	str	r2, [r3, #20]
 8005ea2:	4a0e      	ldr	r2, [pc, #56]	; (8005edc <UART_SetConfig+0x70>)
 8005ea4:	4293      	cmp	r3, r2
 8005ea6:	d115      	bne.n	8005ed4 <UART_SetConfig+0x68>
 8005ea8:	f7ff fb74 	bl	8005594 <HAL_RCC_GetPCLK2Freq>
 8005eac:	2319      	movs	r3, #25
 8005eae:	4343      	muls	r3, r0
 8005eb0:	6862      	ldr	r2, [r4, #4]
 8005eb2:	6820      	ldr	r0, [r4, #0]
 8005eb4:	0092      	lsls	r2, r2, #2
 8005eb6:	fbb3 f3f2 	udiv	r3, r3, r2
 8005eba:	2264      	movs	r2, #100	; 0x64
 8005ebc:	fbb3 f1f2 	udiv	r1, r3, r2
 8005ec0:	fb02 3311 	mls	r3, r2, r1, r3
 8005ec4:	011b      	lsls	r3, r3, #4
 8005ec6:	3332      	adds	r3, #50	; 0x32
 8005ec8:	fbb3 f3f2 	udiv	r3, r3, r2
 8005ecc:	eb03 1301 	add.w	r3, r3, r1, lsl #4
 8005ed0:	6083      	str	r3, [r0, #8]
 8005ed2:	bd10      	pop	{r4, pc}
 8005ed4:	f7ff fb4e 	bl	8005574 <HAL_RCC_GetPCLK1Freq>
 8005ed8:	e7e8      	b.n	8005eac <UART_SetConfig+0x40>
 8005eda:	bf00      	nop
 8005edc:	40013800 	.word	0x40013800

08005ee0 <HAL_UART_Init>:
 8005ee0:	b510      	push	{r4, lr}
 8005ee2:	4604      	mov	r4, r0
 8005ee4:	b348      	cbz	r0, 8005f3a <HAL_UART_Init+0x5a>
 8005ee6:	f890 3041 	ldrb.w	r3, [r0, #65]	; 0x41
 8005eea:	f003 02ff 	and.w	r2, r3, #255	; 0xff
 8005eee:	b91b      	cbnz	r3, 8005ef8 <HAL_UART_Init+0x18>
 8005ef0:	f880 2040 	strb.w	r2, [r0, #64]	; 0x40
 8005ef4:	f7fc ff8c 	bl	8002e10 <HAL_UART_MspInit>
 8005ef8:	2324      	movs	r3, #36	; 0x24
 8005efa:	6822      	ldr	r2, [r4, #0]
 8005efc:	f884 3041 	strb.w	r3, [r4, #65]	; 0x41
 8005f00:	68d3      	ldr	r3, [r2, #12]
 8005f02:	4620      	mov	r0, r4
 8005f04:	f423 5300 	bic.w	r3, r3, #8192	; 0x2000
 8005f08:	60d3      	str	r3, [r2, #12]
 8005f0a:	f7ff ffaf 	bl	8005e6c <UART_SetConfig>
 8005f0e:	6823      	ldr	r3, [r4, #0]
 8005f10:	2000      	movs	r0, #0
 8005f12:	691a      	ldr	r2, [r3, #16]
 8005f14:	f422 4290 	bic.w	r2, r2, #18432	; 0x4800
 8005f18:	611a      	str	r2, [r3, #16]
 8005f1a:	695a      	ldr	r2, [r3, #20]
 8005f1c:	f022 022a 	bic.w	r2, r2, #42	; 0x2a
 8005f20:	615a      	str	r2, [r3, #20]
 8005f22:	68da      	ldr	r2, [r3, #12]
 8005f24:	f442 5200 	orr.w	r2, r2, #8192	; 0x2000
 8005f28:	60da      	str	r2, [r3, #12]
 8005f2a:	2320      	movs	r3, #32
 8005f2c:	6460      	str	r0, [r4, #68]	; 0x44
 8005f2e:	f884 3041 	strb.w	r3, [r4, #65]	; 0x41
 8005f32:	f884 3042 	strb.w	r3, [r4, #66]	; 0x42
 8005f36:	6360      	str	r0, [r4, #52]	; 0x34
 8005f38:	bd10      	pop	{r4, pc}
 8005f3a:	2001      	movs	r0, #1
 8005f3c:	e7fc      	b.n	8005f38 <HAL_UART_Init+0x58>

08005f3e <HAL_UART_TxCpltCallback>:
 8005f3e:	4770      	bx	lr

08005f40 <HAL_UART_ErrorCallback>:
 8005f40:	4770      	bx	lr

08005f42 <UART_DMAAbortOnError>:
 8005f42:	b508      	push	{r3, lr}
 8005f44:	2300      	movs	r3, #0
 8005f46:	6a40      	ldr	r0, [r0, #36]	; 0x24
 8005f48:	85c3      	strh	r3, [r0, #46]	; 0x2e
 8005f4a:	84c3      	strh	r3, [r0, #38]	; 0x26
 8005f4c:	f7ff fff8 	bl	8005f40 <HAL_UART_ErrorCallback>
 8005f50:	bd08      	pop	{r3, pc}

08005f52 <HAL_UARTEx_RxEventCallback>:
 8005f52:	4770      	bx	lr

08005f54 <UART_Receive_IT.isra.0>:
 8005f54:	f890 3042 	ldrb.w	r3, [r0, #66]	; 0x42
 8005f58:	b507      	push	{r0, r1, r2, lr}
 8005f5a:	2b22      	cmp	r3, #34	; 0x22
 8005f5c:	d142      	bne.n	8005fe4 <UART_Receive_IT.isra.0+0x90>
 8005f5e:	6881      	ldr	r1, [r0, #8]
 8005f60:	6a83      	ldr	r3, [r0, #40]	; 0x28
 8005f62:	f5b1 5f80 	cmp.w	r1, #4096	; 0x1000
 8005f66:	6802      	ldr	r2, [r0, #0]
 8005f68:	d13f      	bne.n	8005fea <UART_Receive_IT.isra.0+0x96>
 8005f6a:	6901      	ldr	r1, [r0, #16]
 8005f6c:	2900      	cmp	r1, #0
 8005f6e:	d13f      	bne.n	8005ff0 <UART_Receive_IT.isra.0+0x9c>
 8005f70:	6852      	ldr	r2, [r2, #4]
 8005f72:	f3c2 0208 	ubfx	r2, r2, #0, #9
 8005f76:	f823 2b02 	strh.w	r2, [r3], #2
 8005f7a:	6283      	str	r3, [r0, #40]	; 0x28
 8005f7c:	8dc3      	ldrh	r3, [r0, #46]	; 0x2e
 8005f7e:	3b01      	subs	r3, #1
 8005f80:	b29b      	uxth	r3, r3
 8005f82:	85c3      	strh	r3, [r0, #46]	; 0x2e
 8005f84:	2b00      	cmp	r3, #0
 8005f86:	d12d      	bne.n	8005fe4 <UART_Receive_IT.isra.0+0x90>
 8005f88:	6802      	ldr	r2, [r0, #0]
 8005f8a:	68d1      	ldr	r1, [r2, #12]
 8005f8c:	f021 0120 	bic.w	r1, r1, #32
 8005f90:	60d1      	str	r1, [r2, #12]
 8005f92:	68d1      	ldr	r1, [r2, #12]
 8005f94:	f421 7180 	bic.w	r1, r1, #256	; 0x100
 8005f98:	60d1      	str	r1, [r2, #12]
 8005f9a:	6951      	ldr	r1, [r2, #20]
 8005f9c:	f021 0101 	bic.w	r1, r1, #1
 8005fa0:	6151      	str	r1, [r2, #20]
 8005fa2:	2220      	movs	r2, #32
 8005fa4:	f880 2042 	strb.w	r2, [r0, #66]	; 0x42
 8005fa8:	6343      	str	r3, [r0, #52]	; 0x34
 8005faa:	6b02      	ldr	r2, [r0, #48]	; 0x30
 8005fac:	2a01      	cmp	r2, #1
 8005fae:	6802      	ldr	r2, [r0, #0]
 8005fb0:	d128      	bne.n	8006004 <UART_Receive_IT.isra.0+0xb0>
 8005fb2:	6303      	str	r3, [r0, #48]	; 0x30
 8005fb4:	f102 030c 	add.w	r3, r2, #12
 8005fb8:	e853 3f00 	ldrex	r3, [r3]
 8005fbc:	f023 0310 	bic.w	r3, r3, #16
 8005fc0:	f102 0c0c 	add.w	ip, r2, #12
 8005fc4:	e84c 3100 	strex	r1, r3, [ip]
 8005fc8:	2900      	cmp	r1, #0
 8005fca:	d1f3      	bne.n	8005fb4 <UART_Receive_IT.isra.0+0x60>
 8005fcc:	6813      	ldr	r3, [r2, #0]
 8005fce:	06db      	lsls	r3, r3, #27
 8005fd0:	d505      	bpl.n	8005fde <UART_Receive_IT.isra.0+0x8a>
 8005fd2:	9101      	str	r1, [sp, #4]
 8005fd4:	6813      	ldr	r3, [r2, #0]
 8005fd6:	9301      	str	r3, [sp, #4]
 8005fd8:	6853      	ldr	r3, [r2, #4]
 8005fda:	9301      	str	r3, [sp, #4]
 8005fdc:	9b01      	ldr	r3, [sp, #4]
 8005fde:	8d81      	ldrh	r1, [r0, #44]	; 0x2c
 8005fe0:	f7ff ffb7 	bl	8005f52 <HAL_UARTEx_RxEventCallback>
 8005fe4:	b003      	add	sp, #12
 8005fe6:	f85d fb04 	ldr.w	pc, [sp], #4
 8005fea:	b939      	cbnz	r1, 8005ffc <UART_Receive_IT.isra.0+0xa8>
 8005fec:	6901      	ldr	r1, [r0, #16]
 8005fee:	b929      	cbnz	r1, 8005ffc <UART_Receive_IT.isra.0+0xa8>
 8005ff0:	6852      	ldr	r2, [r2, #4]
 8005ff2:	b2d2      	uxtb	r2, r2
 8005ff4:	701a      	strb	r2, [r3, #0]
 8005ff6:	6a83      	ldr	r3, [r0, #40]	; 0x28
 8005ff8:	3301      	adds	r3, #1
 8005ffa:	e7be      	b.n	8005f7a <UART_Receive_IT.isra.0+0x26>
 8005ffc:	6852      	ldr	r2, [r2, #4]
 8005ffe:	f002 027f 	and.w	r2, r2, #127	; 0x7f
 8006002:	e7f7      	b.n	8005ff4 <UART_Receive_IT.isra.0+0xa0>
 8006004:	f7fb fbdc 	bl	80017c0 <HAL_UART_RxCpltCallback>
 8006008:	e7ec      	b.n	8005fe4 <UART_Receive_IT.isra.0+0x90>
	...

0800600c <HAL_UART_IRQHandler>:
 800600c:	6803      	ldr	r3, [r0, #0]
 800600e:	b573      	push	{r0, r1, r4, r5, r6, lr}
 8006010:	681a      	ldr	r2, [r3, #0]
 8006012:	4604      	mov	r4, r0
 8006014:	0716      	lsls	r6, r2, #28
 8006016:	68d9      	ldr	r1, [r3, #12]
 8006018:	695d      	ldr	r5, [r3, #20]
 800601a:	d108      	bne.n	800602e <HAL_UART_IRQHandler+0x22>
 800601c:	0696      	lsls	r6, r2, #26
 800601e:	d568      	bpl.n	80060f2 <HAL_UART_IRQHandler+0xe6>
 8006020:	068d      	lsls	r5, r1, #26
 8006022:	d566      	bpl.n	80060f2 <HAL_UART_IRQHandler+0xe6>
 8006024:	b002      	add	sp, #8
 8006026:	e8bd 4070 	ldmia.w	sp!, {r4, r5, r6, lr}
 800602a:	f7ff bf93 	b.w	8005f54 <UART_Receive_IT.isra.0>
 800602e:	f005 0001 	and.w	r0, r5, #1
 8006032:	f401 7590 	and.w	r5, r1, #288	; 0x120
 8006036:	4305      	orrs	r5, r0
 8006038:	d05b      	beq.n	80060f2 <HAL_UART_IRQHandler+0xe6>
 800603a:	07d6      	lsls	r6, r2, #31
 800603c:	d505      	bpl.n	800604a <HAL_UART_IRQHandler+0x3e>
 800603e:	05cd      	lsls	r5, r1, #23
 8006040:	bf42      	ittt	mi
 8006042:	6c63      	ldrmi	r3, [r4, #68]	; 0x44
 8006044:	f043 0301 	orrmi.w	r3, r3, #1
 8006048:	6463      	strmi	r3, [r4, #68]	; 0x44
 800604a:	0753      	lsls	r3, r2, #29
 800604c:	d504      	bpl.n	8006058 <HAL_UART_IRQHandler+0x4c>
 800604e:	b118      	cbz	r0, 8006058 <HAL_UART_IRQHandler+0x4c>
 8006050:	6c63      	ldr	r3, [r4, #68]	; 0x44
 8006052:	f043 0302 	orr.w	r3, r3, #2
 8006056:	6463      	str	r3, [r4, #68]	; 0x44
 8006058:	0796      	lsls	r6, r2, #30
 800605a:	d504      	bpl.n	8006066 <HAL_UART_IRQHandler+0x5a>
 800605c:	b118      	cbz	r0, 8006066 <HAL_UART_IRQHandler+0x5a>
 800605e:	6c63      	ldr	r3, [r4, #68]	; 0x44
 8006060:	f043 0304 	orr.w	r3, r3, #4
 8006064:	6463      	str	r3, [r4, #68]	; 0x44
 8006066:	0715      	lsls	r5, r2, #28
 8006068:	d507      	bpl.n	800607a <HAL_UART_IRQHandler+0x6e>
 800606a:	f001 0320 	and.w	r3, r1, #32
 800606e:	4303      	orrs	r3, r0
 8006070:	bf1e      	ittt	ne
 8006072:	6c63      	ldrne	r3, [r4, #68]	; 0x44
 8006074:	f043 0308 	orrne.w	r3, r3, #8
 8006078:	6463      	strne	r3, [r4, #68]	; 0x44
 800607a:	6c63      	ldr	r3, [r4, #68]	; 0x44
 800607c:	2b00      	cmp	r3, #0
 800607e:	d032      	beq.n	80060e6 <HAL_UART_IRQHandler+0xda>
 8006080:	0692      	lsls	r2, r2, #26
 8006082:	d504      	bpl.n	800608e <HAL_UART_IRQHandler+0x82>
 8006084:	068b      	lsls	r3, r1, #26
 8006086:	d502      	bpl.n	800608e <HAL_UART_IRQHandler+0x82>
 8006088:	4620      	mov	r0, r4
 800608a:	f7ff ff63 	bl	8005f54 <UART_Receive_IT.isra.0>
 800608e:	6826      	ldr	r6, [r4, #0]
 8006090:	4620      	mov	r0, r4
 8006092:	6973      	ldr	r3, [r6, #20]
 8006094:	6c62      	ldr	r2, [r4, #68]	; 0x44
 8006096:	f003 0340 	and.w	r3, r3, #64	; 0x40
 800609a:	f002 0208 	and.w	r2, r2, #8
 800609e:	ea53 0502 	orrs.w	r5, r3, r2
 80060a2:	d022      	beq.n	80060ea <HAL_UART_IRQHandler+0xde>
 80060a4:	f7ff feb4 	bl	8005e10 <UART_EndRxTransfer>
 80060a8:	6973      	ldr	r3, [r6, #20]
 80060aa:	065e      	lsls	r6, r3, #25
 80060ac:	d518      	bpl.n	80060e0 <HAL_UART_IRQHandler+0xd4>
 80060ae:	6822      	ldr	r2, [r4, #0]
 80060b0:	f102 0314 	add.w	r3, r2, #20
 80060b4:	e853 3f00 	ldrex	r3, [r3]
 80060b8:	f023 0340 	bic.w	r3, r3, #64	; 0x40
 80060bc:	3214      	adds	r2, #20
 80060be:	e842 3100 	strex	r1, r3, [r2]
 80060c2:	2900      	cmp	r1, #0
 80060c4:	d1f3      	bne.n	80060ae <HAL_UART_IRQHandler+0xa2>
 80060c6:	6be0      	ldr	r0, [r4, #60]	; 0x3c
 80060c8:	b150      	cbz	r0, 80060e0 <HAL_UART_IRQHandler+0xd4>
 80060ca:	4b74      	ldr	r3, [pc, #464]	; (800629c <HAL_UART_IRQHandler+0x290>)
 80060cc:	6343      	str	r3, [r0, #52]	; 0x34
 80060ce:	f7fd fb25 	bl	800371c <HAL_DMA_Abort_IT>
 80060d2:	b140      	cbz	r0, 80060e6 <HAL_UART_IRQHandler+0xda>
 80060d4:	6be0      	ldr	r0, [r4, #60]	; 0x3c
 80060d6:	6b43      	ldr	r3, [r0, #52]	; 0x34
 80060d8:	b002      	add	sp, #8
 80060da:	e8bd 4070 	ldmia.w	sp!, {r4, r5, r6, lr}
 80060de:	4718      	bx	r3
 80060e0:	4620      	mov	r0, r4
 80060e2:	f7ff ff2d 	bl	8005f40 <HAL_UART_ErrorCallback>
 80060e6:	b002      	add	sp, #8
 80060e8:	bd70      	pop	{r4, r5, r6, pc}
 80060ea:	f7ff ff29 	bl	8005f40 <HAL_UART_ErrorCallback>
 80060ee:	6465      	str	r5, [r4, #68]	; 0x44
 80060f0:	e7f9      	b.n	80060e6 <HAL_UART_IRQHandler+0xda>
 80060f2:	6b20      	ldr	r0, [r4, #48]	; 0x30
 80060f4:	2801      	cmp	r0, #1
 80060f6:	f040 8094 	bne.w	8006222 <HAL_UART_IRQHandler+0x216>
 80060fa:	06d5      	lsls	r5, r2, #27
 80060fc:	f140 8091 	bpl.w	8006222 <HAL_UART_IRQHandler+0x216>
 8006100:	06c8      	lsls	r0, r1, #27
 8006102:	f140 808e 	bpl.w	8006222 <HAL_UART_IRQHandler+0x216>
 8006106:	2200      	movs	r2, #0
 8006108:	9201      	str	r2, [sp, #4]
 800610a:	681a      	ldr	r2, [r3, #0]
 800610c:	9201      	str	r2, [sp, #4]
 800610e:	685a      	ldr	r2, [r3, #4]
 8006110:	9201      	str	r2, [sp, #4]
 8006112:	9a01      	ldr	r2, [sp, #4]
 8006114:	695a      	ldr	r2, [r3, #20]
 8006116:	0652      	lsls	r2, r2, #25
 8006118:	d54d      	bpl.n	80061b6 <HAL_UART_IRQHandler+0x1aa>
 800611a:	6be1      	ldr	r1, [r4, #60]	; 0x3c
 800611c:	680a      	ldr	r2, [r1, #0]
 800611e:	6852      	ldr	r2, [r2, #4]
 8006120:	b292      	uxth	r2, r2
 8006122:	2a00      	cmp	r2, #0
 8006124:	d0df      	beq.n	80060e6 <HAL_UART_IRQHandler+0xda>
 8006126:	8da0      	ldrh	r0, [r4, #44]	; 0x2c
 8006128:	4290      	cmp	r0, r2
 800612a:	d9dc      	bls.n	80060e6 <HAL_UART_IRQHandler+0xda>
 800612c:	85e2      	strh	r2, [r4, #46]	; 0x2e
 800612e:	698a      	ldr	r2, [r1, #24]
 8006130:	2a20      	cmp	r2, #32
 8006132:	d036      	beq.n	80061a2 <HAL_UART_IRQHandler+0x196>
 8006134:	f103 020c 	add.w	r2, r3, #12
 8006138:	e852 2f00 	ldrex	r2, [r2]
 800613c:	f422 7280 	bic.w	r2, r2, #256	; 0x100
 8006140:	f103 000c 	add.w	r0, r3, #12
 8006144:	e840 2100 	strex	r1, r2, [r0]
 8006148:	2900      	cmp	r1, #0
 800614a:	d1f3      	bne.n	8006134 <HAL_UART_IRQHandler+0x128>
 800614c:	f103 0214 	add.w	r2, r3, #20
 8006150:	e852 2f00 	ldrex	r2, [r2]
 8006154:	f022 0201 	bic.w	r2, r2, #1
 8006158:	f103 0014 	add.w	r0, r3, #20
 800615c:	e840 2100 	strex	r1, r2, [r0]
 8006160:	2900      	cmp	r1, #0
 8006162:	d1f3      	bne.n	800614c <HAL_UART_IRQHandler+0x140>
 8006164:	f103 0214 	add.w	r2, r3, #20
 8006168:	e852 2f00 	ldrex	r2, [r2]
 800616c:	f022 0240 	bic.w	r2, r2, #64	; 0x40
 8006170:	f103 0014 	add.w	r0, r3, #20
 8006174:	e840 2100 	strex	r1, r2, [r0]
 8006178:	2900      	cmp	r1, #0
 800617a:	d1f3      	bne.n	8006164 <HAL_UART_IRQHandler+0x158>
 800617c:	2220      	movs	r2, #32
 800617e:	f884 2042 	strb.w	r2, [r4, #66]	; 0x42
 8006182:	6321      	str	r1, [r4, #48]	; 0x30
 8006184:	f103 020c 	add.w	r2, r3, #12
 8006188:	e852 2f00 	ldrex	r2, [r2]
 800618c:	f022 0210 	bic.w	r2, r2, #16
 8006190:	f103 000c 	add.w	r0, r3, #12
 8006194:	e840 2100 	strex	r1, r2, [r0]
 8006198:	2900      	cmp	r1, #0
 800619a:	d1f3      	bne.n	8006184 <HAL_UART_IRQHandler+0x178>
 800619c:	6be0      	ldr	r0, [r4, #60]	; 0x3c
 800619e:	f7fd fa9e 	bl	80036de <HAL_DMA_Abort>
 80061a2:	2302      	movs	r3, #2
 80061a4:	6363      	str	r3, [r4, #52]	; 0x34
 80061a6:	8de3      	ldrh	r3, [r4, #46]	; 0x2e
 80061a8:	8da1      	ldrh	r1, [r4, #44]	; 0x2c
 80061aa:	1ac9      	subs	r1, r1, r3
 80061ac:	b289      	uxth	r1, r1
 80061ae:	4620      	mov	r0, r4
 80061b0:	f7ff fecf 	bl	8005f52 <HAL_UARTEx_RxEventCallback>
 80061b4:	e797      	b.n	80060e6 <HAL_UART_IRQHandler+0xda>
 80061b6:	8de2      	ldrh	r2, [r4, #46]	; 0x2e
 80061b8:	8de0      	ldrh	r0, [r4, #46]	; 0x2e
 80061ba:	8da1      	ldrh	r1, [r4, #44]	; 0x2c
 80061bc:	b280      	uxth	r0, r0
 80061be:	b292      	uxth	r2, r2
 80061c0:	2800      	cmp	r0, #0
 80061c2:	d090      	beq.n	80060e6 <HAL_UART_IRQHandler+0xda>
 80061c4:	1a89      	subs	r1, r1, r2
 80061c6:	b289      	uxth	r1, r1
 80061c8:	2900      	cmp	r1, #0
 80061ca:	d08c      	beq.n	80060e6 <HAL_UART_IRQHandler+0xda>
 80061cc:	f103 020c 	add.w	r2, r3, #12
 80061d0:	e852 2f00 	ldrex	r2, [r2]
 80061d4:	f422 7290 	bic.w	r2, r2, #288	; 0x120
 80061d8:	f103 050c 	add.w	r5, r3, #12
 80061dc:	e845 2000 	strex	r0, r2, [r5]
 80061e0:	2800      	cmp	r0, #0
 80061e2:	d1f3      	bne.n	80061cc <HAL_UART_IRQHandler+0x1c0>
 80061e4:	f103 0214 	add.w	r2, r3, #20
 80061e8:	e852 2f00 	ldrex	r2, [r2]
 80061ec:	f022 0201 	bic.w	r2, r2, #1
 80061f0:	f103 0514 	add.w	r5, r3, #20
 80061f4:	e845 2000 	strex	r0, r2, [r5]
 80061f8:	2800      	cmp	r0, #0
 80061fa:	d1f3      	bne.n	80061e4 <HAL_UART_IRQHandler+0x1d8>
 80061fc:	2220      	movs	r2, #32
 80061fe:	f884 2042 	strb.w	r2, [r4, #66]	; 0x42
 8006202:	6320      	str	r0, [r4, #48]	; 0x30
 8006204:	f103 020c 	add.w	r2, r3, #12
 8006208:	e852 2f00 	ldrex	r2, [r2]
 800620c:	f022 0210 	bic.w	r2, r2, #16
 8006210:	f103 050c 	add.w	r5, r3, #12
 8006214:	e845 2000 	strex	r0, r2, [r5]
 8006218:	2800      	cmp	r0, #0
 800621a:	d1f3      	bne.n	8006204 <HAL_UART_IRQHandler+0x1f8>
 800621c:	2302      	movs	r3, #2
 800621e:	6363      	str	r3, [r4, #52]	; 0x34
 8006220:	e7c5      	b.n	80061ae <HAL_UART_IRQHandler+0x1a2>
 8006222:	0616      	lsls	r6, r2, #24
 8006224:	d528      	bpl.n	8006278 <HAL_UART_IRQHandler+0x26c>
 8006226:	060d      	lsls	r5, r1, #24
 8006228:	d526      	bpl.n	8006278 <HAL_UART_IRQHandler+0x26c>
 800622a:	f894 2041 	ldrb.w	r2, [r4, #65]	; 0x41
 800622e:	2a21      	cmp	r2, #33	; 0x21
 8006230:	f47f af59 	bne.w	80060e6 <HAL_UART_IRQHandler+0xda>
 8006234:	68a1      	ldr	r1, [r4, #8]
 8006236:	6a22      	ldr	r2, [r4, #32]
 8006238:	f5b1 5f80 	cmp.w	r1, #4096	; 0x1000
 800623c:	d117      	bne.n	800626e <HAL_UART_IRQHandler+0x262>
 800623e:	6921      	ldr	r1, [r4, #16]
 8006240:	b9a9      	cbnz	r1, 800626e <HAL_UART_IRQHandler+0x262>
 8006242:	f832 1b02 	ldrh.w	r1, [r2], #2
 8006246:	f3c1 0108 	ubfx	r1, r1, #0, #9
 800624a:	6059      	str	r1, [r3, #4]
 800624c:	6222      	str	r2, [r4, #32]
 800624e:	8ce2      	ldrh	r2, [r4, #38]	; 0x26
 8006250:	3a01      	subs	r2, #1
 8006252:	b292      	uxth	r2, r2
 8006254:	84e2      	strh	r2, [r4, #38]	; 0x26
 8006256:	2a00      	cmp	r2, #0
 8006258:	f47f af45 	bne.w	80060e6 <HAL_UART_IRQHandler+0xda>
 800625c:	68da      	ldr	r2, [r3, #12]
 800625e:	f022 0280 	bic.w	r2, r2, #128	; 0x80
 8006262:	60da      	str	r2, [r3, #12]
 8006264:	68da      	ldr	r2, [r3, #12]
 8006266:	f042 0240 	orr.w	r2, r2, #64	; 0x40
 800626a:	60da      	str	r2, [r3, #12]
 800626c:	e73b      	b.n	80060e6 <HAL_UART_IRQHandler+0xda>
 800626e:	1c51      	adds	r1, r2, #1
 8006270:	6221      	str	r1, [r4, #32]
 8006272:	7812      	ldrb	r2, [r2, #0]
 8006274:	605a      	str	r2, [r3, #4]
 8006276:	e7ea      	b.n	800624e <HAL_UART_IRQHandler+0x242>
 8006278:	0650      	lsls	r0, r2, #25
 800627a:	f57f af34 	bpl.w	80060e6 <HAL_UART_IRQHandler+0xda>
 800627e:	064a      	lsls	r2, r1, #25
 8006280:	f57f af31 	bpl.w	80060e6 <HAL_UART_IRQHandler+0xda>
 8006284:	68da      	ldr	r2, [r3, #12]
 8006286:	4620      	mov	r0, r4
 8006288:	f022 0240 	bic.w	r2, r2, #64	; 0x40
 800628c:	60da      	str	r2, [r3, #12]
 800628e:	2320      	movs	r3, #32
 8006290:	f884 3041 	strb.w	r3, [r4, #65]	; 0x41
 8006294:	f7ff fe53 	bl	8005f3e <HAL_UART_TxCpltCallback>
 8006298:	e725      	b.n	80060e6 <HAL_UART_IRQHandler+0xda>
 800629a:	bf00      	nop
 800629c:	08005f43 	.word	0x08005f43

080062a0 <UART_Start_Receive_IT>:
 80062a0:	2300      	movs	r3, #0
 80062a2:	85c2      	strh	r2, [r0, #46]	; 0x2e
 80062a4:	6443      	str	r3, [r0, #68]	; 0x44
 80062a6:	2322      	movs	r3, #34	; 0x22
 80062a8:	8582      	strh	r2, [r0, #44]	; 0x2c
 80062aa:	6902      	ldr	r2, [r0, #16]
 80062ac:	f880 3042 	strb.w	r3, [r0, #66]	; 0x42
 80062b0:	6281      	str	r1, [r0, #40]	; 0x28
 80062b2:	6803      	ldr	r3, [r0, #0]
 80062b4:	b11a      	cbz	r2, 80062be <UART_Start_Receive_IT+0x1e>
 80062b6:	68da      	ldr	r2, [r3, #12]
 80062b8:	f442 7280 	orr.w	r2, r2, #256	; 0x100
 80062bc:	60da      	str	r2, [r3, #12]
 80062be:	695a      	ldr	r2, [r3, #20]
 80062c0:	2000      	movs	r0, #0
 80062c2:	f042 0201 	orr.w	r2, r2, #1
 80062c6:	615a      	str	r2, [r3, #20]
 80062c8:	68da      	ldr	r2, [r3, #12]
 80062ca:	f042 0220 	orr.w	r2, r2, #32
 80062ce:	60da      	str	r2, [r3, #12]
 80062d0:	4770      	bx	lr

080062d2 <HAL_UART_Receive_IT>:
 80062d2:	b470      	push	{r4, r5, r6}
 80062d4:	f890 6042 	ldrb.w	r6, [r0, #66]	; 0x42
 80062d8:	2e20      	cmp	r6, #32
 80062da:	d106      	bne.n	80062ea <HAL_UART_Receive_IT+0x18>
 80062dc:	b141      	cbz	r1, 80062f0 <HAL_UART_Receive_IT+0x1e>
 80062de:	b13a      	cbz	r2, 80062f0 <HAL_UART_Receive_IT+0x1e>
 80062e0:	2400      	movs	r4, #0
 80062e2:	6304      	str	r4, [r0, #48]	; 0x30
 80062e4:	bc70      	pop	{r4, r5, r6}
 80062e6:	f7ff bfdb 	b.w	80062a0 <UART_Start_Receive_IT>
 80062ea:	2002      	movs	r0, #2
 80062ec:	bc70      	pop	{r4, r5, r6}
 80062ee:	4770      	bx	lr
 80062f0:	2001      	movs	r0, #1
 80062f2:	e7fb      	b.n	80062ec <HAL_UART_Receive_IT+0x1a>

080062f4 <USB_CoreInit>:
 80062f4:	b084      	sub	sp, #16
 80062f6:	a801      	add	r0, sp, #4
 80062f8:	e880 000e 	stmia.w	r0, {r1, r2, r3}
 80062fc:	b004      	add	sp, #16
 80062fe:	2000      	movs	r0, #0
 8006300:	4770      	bx	lr

08006302 <USB_EnableGlobalInt>:
 8006302:	4603      	mov	r3, r0
 8006304:	f44f 423f 	mov.w	r2, #48896	; 0xbf00
 8006308:	2000      	movs	r0, #0
 800630a:	f8a3 0044 	strh.w	r0, [r3, #68]	; 0x44
 800630e:	f8a3 2040 	strh.w	r2, [r3, #64]	; 0x40
 8006312:	4770      	bx	lr

08006314 <USB_DisableGlobalInt>:
 8006314:	f8b0 3040 	ldrh.w	r3, [r0, #64]	; 0x40
 8006318:	f423 537c 	bic.w	r3, r3, #16128	; 0x3f00
 800631c:	045b      	lsls	r3, r3, #17
 800631e:	0c5b      	lsrs	r3, r3, #17
 8006320:	f8a0 3040 	strh.w	r3, [r0, #64]	; 0x40
 8006324:	2000      	movs	r0, #0
 8006326:	4770      	bx	lr

08006328 <USB_SetCurrentMode>:
 8006328:	2000      	movs	r0, #0
 800632a:	4770      	bx	lr

0800632c <USB_DevInit>:
 800632c:	b084      	sub	sp, #16
 800632e:	b510      	push	{r4, lr}
 8006330:	4604      	mov	r4, r0
 8006332:	a803      	add	r0, sp, #12
 8006334:	e880 000e 	stmia.w	r0, {r1, r2, r3}
 8006338:	2000      	movs	r0, #0
 800633a:	2301      	movs	r3, #1
 800633c:	f8a4 3040 	strh.w	r3, [r4, #64]	; 0x40
 8006340:	f8a4 0040 	strh.w	r0, [r4, #64]	; 0x40
 8006344:	f8a4 0044 	strh.w	r0, [r4, #68]	; 0x44
 8006348:	f8a4 0050 	strh.w	r0, [r4, #80]	; 0x50
 800634c:	e8bd 4010 	ldmia.w	sp!, {r4, lr}
 8006350:	b004      	add	sp, #16
 8006352:	4770      	bx	lr

08006354 <USB_ActivateEndpoint>:
 8006354:	b5f0      	push	{r4, r5, r6, r7, lr}
 8006356:	780a      	ldrb	r2, [r1, #0]
 8006358:	78cd      	ldrb	r5, [r1, #3]
 800635a:	f830 4022 	ldrh.w	r4, [r0, r2, lsl #2]
 800635e:	4603      	mov	r3, r0
 8006360:	f424 44ec 	bic.w	r4, r4, #30208	; 0x7600
 8006364:	f024 0470 	bic.w	r4, r4, #112	; 0x70
 8006368:	0424      	lsls	r4, r4, #16
 800636a:	0c24      	lsrs	r4, r4, #16
 800636c:	2d03      	cmp	r5, #3
 800636e:	d84b      	bhi.n	8006408 <USB_ActivateEndpoint+0xb4>
 8006370:	e8df f005 	tbb	[pc, r5]
 8006374:	43454702 	.word	0x43454702
 8006378:	4628      	mov	r0, r5
 800637a:	f444 7400 	orr.w	r4, r4, #512	; 0x200
 800637e:	f248 0680 	movw	r6, #32896	; 0x8080
 8006382:	4334      	orrs	r4, r6
 8006384:	f823 4022 	strh.w	r4, [r3, r2, lsl #2]
 8006388:	f833 4022 	ldrh.w	r4, [r3, r2, lsl #2]
 800638c:	4f9e      	ldr	r7, [pc, #632]	; (8006608 <USB_ActivateEndpoint+0x2b4>)
 800638e:	b2a4      	uxth	r4, r4
 8006390:	403c      	ands	r4, r7
 8006392:	4314      	orrs	r4, r2
 8006394:	4334      	orrs	r4, r6
 8006396:	f823 4022 	strh.w	r4, [r3, r2, lsl #2]
 800639a:	7b0c      	ldrb	r4, [r1, #12]
 800639c:	eb03 1c02 	add.w	ip, r3, r2, lsl #4
 80063a0:	2c00      	cmp	r4, #0
 80063a2:	f040 808b 	bne.w	80064bc <USB_ActivateEndpoint+0x168>
 80063a6:	88cc      	ldrh	r4, [r1, #6]
 80063a8:	784e      	ldrb	r6, [r1, #1]
 80063aa:	0864      	lsrs	r4, r4, #1
 80063ac:	0064      	lsls	r4, r4, #1
 80063ae:	b36e      	cbz	r6, 800640c <USB_ActivateEndpoint+0xb8>
 80063b0:	f8b3 1050 	ldrh.w	r1, [r3, #80]	; 0x50
 80063b4:	b289      	uxth	r1, r1
 80063b6:	4461      	add	r1, ip
 80063b8:	f8a1 4400 	strh.w	r4, [r1, #1024]	; 0x400
 80063bc:	f833 1022 	ldrh.w	r1, [r3, r2, lsl #2]
 80063c0:	0649      	lsls	r1, r1, #25
 80063c2:	d509      	bpl.n	80063d8 <USB_ActivateEndpoint+0x84>
 80063c4:	f833 1022 	ldrh.w	r1, [r3, r2, lsl #2]
 80063c8:	b289      	uxth	r1, r1
 80063ca:	4039      	ands	r1, r7
 80063cc:	f441 4100 	orr.w	r1, r1, #32768	; 0x8000
 80063d0:	f041 01c0 	orr.w	r1, r1, #192	; 0xc0
 80063d4:	f823 1022 	strh.w	r1, [r3, r2, lsl #2]
 80063d8:	f833 1022 	ldrh.w	r1, [r3, r2, lsl #2]
 80063dc:	4c8b      	ldr	r4, [pc, #556]	; (800660c <USB_ActivateEndpoint+0x2b8>)
 80063de:	b289      	uxth	r1, r1
 80063e0:	2d01      	cmp	r5, #1
 80063e2:	ea01 0104 	and.w	r1, r1, r4
 80063e6:	d001      	beq.n	80063ec <USB_ActivateEndpoint+0x98>
 80063e8:	f081 0120 	eor.w	r1, r1, #32
 80063ec:	f441 4100 	orr.w	r1, r1, #32768	; 0x8000
 80063f0:	f041 0180 	orr.w	r1, r1, #128	; 0x80
 80063f4:	f823 1022 	strh.w	r1, [r3, r2, lsl #2]
 80063f8:	e04a      	b.n	8006490 <USB_ActivateEndpoint+0x13c>
 80063fa:	f444 64c0 	orr.w	r4, r4, #1536	; 0x600
 80063fe:	2000      	movs	r0, #0
 8006400:	e7bd      	b.n	800637e <USB_ActivateEndpoint+0x2a>
 8006402:	f444 6480 	orr.w	r4, r4, #1024	; 0x400
 8006406:	e7fa      	b.n	80063fe <USB_ActivateEndpoint+0xaa>
 8006408:	2001      	movs	r0, #1
 800640a:	e7b8      	b.n	800637e <USB_ActivateEndpoint+0x2a>
 800640c:	f8b3 5050 	ldrh.w	r5, [r3, #80]	; 0x50
 8006410:	6909      	ldr	r1, [r1, #16]
 8006412:	b2ad      	uxth	r5, r5
 8006414:	4465      	add	r5, ip
 8006416:	f8a5 4408 	strh.w	r4, [r5, #1032]	; 0x408
 800641a:	f8b3 4050 	ldrh.w	r4, [r3, #80]	; 0x50
 800641e:	293e      	cmp	r1, #62	; 0x3e
 8006420:	b2a4      	uxth	r4, r4
 8006422:	4464      	add	r4, ip
 8006424:	f8b4 540c 	ldrh.w	r5, [r4, #1036]	; 0x40c
 8006428:	f3c5 0509 	ubfx	r5, r5, #0, #10
 800642c:	f8a4 540c 	strh.w	r5, [r4, #1036]	; 0x40c
 8006430:	d92f      	bls.n	8006492 <USB_ActivateEndpoint+0x13e>
 8006432:	094d      	lsrs	r5, r1, #5
 8006434:	06ce      	lsls	r6, r1, #27
 8006436:	f8b4 140c 	ldrh.w	r1, [r4, #1036]	; 0x40c
 800643a:	bf08      	it	eq
 800643c:	f105 35ff 	addeq.w	r5, r5, #4294967295
 8006440:	b289      	uxth	r1, r1
 8006442:	ea41 2185 	orr.w	r1, r1, r5, lsl #10
 8006446:	ea6f 4141 	mvn.w	r1, r1, lsl #17
 800644a:	ea6f 4151 	mvn.w	r1, r1, lsr #17
 800644e:	b289      	uxth	r1, r1
 8006450:	f8a4 140c 	strh.w	r1, [r4, #1036]	; 0x40c
 8006454:	f833 1022 	ldrh.w	r1, [r3, r2, lsl #2]
 8006458:	044f      	lsls	r7, r1, #17
 800645a:	d50d      	bpl.n	8006478 <USB_ActivateEndpoint+0x124>
 800645c:	f833 1022 	ldrh.w	r1, [r3, r2, lsl #2]
 8006460:	f421 41e0 	bic.w	r1, r1, #28672	; 0x7000
 8006464:	f021 0170 	bic.w	r1, r1, #112	; 0x70
 8006468:	0409      	lsls	r1, r1, #16
 800646a:	0c09      	lsrs	r1, r1, #16
 800646c:	f441 4140 	orr.w	r1, r1, #49152	; 0xc000
 8006470:	f041 0180 	orr.w	r1, r1, #128	; 0x80
 8006474:	f823 1022 	strh.w	r1, [r3, r2, lsl #2]
 8006478:	4c65      	ldr	r4, [pc, #404]	; (8006610 <USB_ActivateEndpoint+0x2bc>)
 800647a:	b9c2      	cbnz	r2, 80064ae <USB_ActivateEndpoint+0x15a>
 800647c:	881a      	ldrh	r2, [r3, #0]
 800647e:	b292      	uxth	r2, r2
 8006480:	4022      	ands	r2, r4
 8006482:	f482 5240 	eor.w	r2, r2, #12288	; 0x3000
 8006486:	f442 4200 	orr.w	r2, r2, #32768	; 0x8000
 800648a:	f042 0280 	orr.w	r2, r2, #128	; 0x80
 800648e:	801a      	strh	r2, [r3, #0]
 8006490:	bdf0      	pop	{r4, r5, r6, r7, pc}
 8006492:	b911      	cbnz	r1, 800649a <USB_ActivateEndpoint+0x146>
 8006494:	f8b4 140c 	ldrh.w	r1, [r4, #1036]	; 0x40c
 8006498:	e7d5      	b.n	8006446 <USB_ActivateEndpoint+0xf2>
 800649a:	084d      	lsrs	r5, r1, #1
 800649c:	07c9      	lsls	r1, r1, #31
 800649e:	f8b4 140c 	ldrh.w	r1, [r4, #1036]	; 0x40c
 80064a2:	bf48      	it	mi
 80064a4:	3501      	addmi	r5, #1
 80064a6:	b289      	uxth	r1, r1
 80064a8:	ea41 2185 	orr.w	r1, r1, r5, lsl #10
 80064ac:	e7cf      	b.n	800644e <USB_ActivateEndpoint+0xfa>
 80064ae:	f833 1022 	ldrh.w	r1, [r3, r2, lsl #2]
 80064b2:	b289      	uxth	r1, r1
 80064b4:	4021      	ands	r1, r4
 80064b6:	f481 5100 	eor.w	r1, r1, #8192	; 0x2000
 80064ba:	e797      	b.n	80063ec <USB_ActivateEndpoint+0x98>
 80064bc:	2d02      	cmp	r5, #2
 80064be:	f833 4022 	ldrh.w	r4, [r3, r2, lsl #2]
 80064c2:	d15b      	bne.n	800657c <USB_ActivateEndpoint+0x228>
 80064c4:	b2a4      	uxth	r4, r4
 80064c6:	403c      	ands	r4, r7
 80064c8:	f444 4401 	orr.w	r4, r4, #33024	; 0x8100
 80064cc:	f044 0480 	orr.w	r4, r4, #128	; 0x80
 80064d0:	f823 4022 	strh.w	r4, [r3, r2, lsl #2]
 80064d4:	f8b3 4050 	ldrh.w	r4, [r3, #80]	; 0x50
 80064d8:	890e      	ldrh	r6, [r1, #8]
 80064da:	b2a4      	uxth	r4, r4
 80064dc:	0876      	lsrs	r6, r6, #1
 80064de:	4464      	add	r4, ip
 80064e0:	0076      	lsls	r6, r6, #1
 80064e2:	f8a4 6400 	strh.w	r6, [r4, #1024]	; 0x400
 80064e6:	894e      	ldrh	r6, [r1, #10]
 80064e8:	f8b3 4050 	ldrh.w	r4, [r3, #80]	; 0x50
 80064ec:	0876      	lsrs	r6, r6, #1
 80064ee:	b2a4      	uxth	r4, r4
 80064f0:	4464      	add	r4, ip
 80064f2:	0076      	lsls	r6, r6, #1
 80064f4:	f8a4 6408 	strh.w	r6, [r4, #1032]	; 0x408
 80064f8:	7849      	ldrb	r1, [r1, #1]
 80064fa:	2900      	cmp	r1, #0
 80064fc:	d148      	bne.n	8006590 <USB_ActivateEndpoint+0x23c>
 80064fe:	f833 1022 	ldrh.w	r1, [r3, r2, lsl #2]
 8006502:	044e      	lsls	r6, r1, #17
 8006504:	d50d      	bpl.n	8006522 <USB_ActivateEndpoint+0x1ce>
 8006506:	f833 1022 	ldrh.w	r1, [r3, r2, lsl #2]
 800650a:	f421 41e0 	bic.w	r1, r1, #28672	; 0x7000
 800650e:	f021 0170 	bic.w	r1, r1, #112	; 0x70
 8006512:	0409      	lsls	r1, r1, #16
 8006514:	0c09      	lsrs	r1, r1, #16
 8006516:	f441 4140 	orr.w	r1, r1, #49152	; 0xc000
 800651a:	f041 0180 	orr.w	r1, r1, #128	; 0x80
 800651e:	f823 1022 	strh.w	r1, [r3, r2, lsl #2]
 8006522:	f833 1022 	ldrh.w	r1, [r3, r2, lsl #2]
 8006526:	064d      	lsls	r5, r1, #25
 8006528:	d50d      	bpl.n	8006546 <USB_ActivateEndpoint+0x1f2>
 800652a:	f833 1022 	ldrh.w	r1, [r3, r2, lsl #2]
 800652e:	f421 41e0 	bic.w	r1, r1, #28672	; 0x7000
 8006532:	f021 0170 	bic.w	r1, r1, #112	; 0x70
 8006536:	0409      	lsls	r1, r1, #16
 8006538:	0c09      	lsrs	r1, r1, #16
 800653a:	f441 4100 	orr.w	r1, r1, #32768	; 0x8000
 800653e:	f041 01c0 	orr.w	r1, r1, #192	; 0xc0
 8006542:	f823 1022 	strh.w	r1, [r3, r2, lsl #2]
 8006546:	f248 0480 	movw	r4, #32896	; 0x8080
 800654a:	f833 1022 	ldrh.w	r1, [r3, r2, lsl #2]
 800654e:	f421 4180 	bic.w	r1, r1, #16384	; 0x4000
 8006552:	f021 0170 	bic.w	r1, r1, #112	; 0x70
 8006556:	0409      	lsls	r1, r1, #16
 8006558:	0c09      	lsrs	r1, r1, #16
 800655a:	f481 5140 	eor.w	r1, r1, #12288	; 0x3000
 800655e:	4321      	orrs	r1, r4
 8006560:	f823 1022 	strh.w	r1, [r3, r2, lsl #2]
 8006564:	f833 1022 	ldrh.w	r1, [r3, r2, lsl #2]
 8006568:	f421 41e0 	bic.w	r1, r1, #28672	; 0x7000
 800656c:	f021 0140 	bic.w	r1, r1, #64	; 0x40
 8006570:	0409      	lsls	r1, r1, #16
 8006572:	0c09      	lsrs	r1, r1, #16
 8006574:	430c      	orrs	r4, r1
 8006576:	f823 4022 	strh.w	r4, [r3, r2, lsl #2]
 800657a:	e789      	b.n	8006490 <USB_ActivateEndpoint+0x13c>
 800657c:	f424 44e2 	bic.w	r4, r4, #28928	; 0x7100
 8006580:	f024 0470 	bic.w	r4, r4, #112	; 0x70
 8006584:	0424      	lsls	r4, r4, #16
 8006586:	0c24      	lsrs	r4, r4, #16
 8006588:	4326      	orrs	r6, r4
 800658a:	f823 6022 	strh.w	r6, [r3, r2, lsl #2]
 800658e:	e7a1      	b.n	80064d4 <USB_ActivateEndpoint+0x180>
 8006590:	f833 1022 	ldrh.w	r1, [r3, r2, lsl #2]
 8006594:	044c      	lsls	r4, r1, #17
 8006596:	d50d      	bpl.n	80065b4 <USB_ActivateEndpoint+0x260>
 8006598:	f833 1022 	ldrh.w	r1, [r3, r2, lsl #2]
 800659c:	f421 41e0 	bic.w	r1, r1, #28672	; 0x7000
 80065a0:	f021 0170 	bic.w	r1, r1, #112	; 0x70
 80065a4:	0409      	lsls	r1, r1, #16
 80065a6:	0c09      	lsrs	r1, r1, #16
 80065a8:	f441 4140 	orr.w	r1, r1, #49152	; 0xc000
 80065ac:	f041 0180 	orr.w	r1, r1, #128	; 0x80
 80065b0:	f823 1022 	strh.w	r1, [r3, r2, lsl #2]
 80065b4:	f833 1022 	ldrh.w	r1, [r3, r2, lsl #2]
 80065b8:	0649      	lsls	r1, r1, #25
 80065ba:	d50d      	bpl.n	80065d8 <USB_ActivateEndpoint+0x284>
 80065bc:	f833 1022 	ldrh.w	r1, [r3, r2, lsl #2]
 80065c0:	f421 41e0 	bic.w	r1, r1, #28672	; 0x7000
 80065c4:	f021 0170 	bic.w	r1, r1, #112	; 0x70
 80065c8:	0409      	lsls	r1, r1, #16
 80065ca:	0c09      	lsrs	r1, r1, #16
 80065cc:	f441 4100 	orr.w	r1, r1, #32768	; 0x8000
 80065d0:	f041 01c0 	orr.w	r1, r1, #192	; 0xc0
 80065d4:	f823 1022 	strh.w	r1, [r3, r2, lsl #2]
 80065d8:	f833 1022 	ldrh.w	r1, [r3, r2, lsl #2]
 80065dc:	4c0b      	ldr	r4, [pc, #44]	; (800660c <USB_ActivateEndpoint+0x2b8>)
 80065de:	b289      	uxth	r1, r1
 80065e0:	4021      	ands	r1, r4
 80065e2:	2d01      	cmp	r5, #1
 80065e4:	bf18      	it	ne
 80065e6:	f081 0120 	eorne.w	r1, r1, #32
 80065ea:	f441 4100 	orr.w	r1, r1, #32768	; 0x8000
 80065ee:	f041 0180 	orr.w	r1, r1, #128	; 0x80
 80065f2:	f823 1022 	strh.w	r1, [r3, r2, lsl #2]
 80065f6:	f833 1022 	ldrh.w	r1, [r3, r2, lsl #2]
 80065fa:	f421 4180 	bic.w	r1, r1, #16384	; 0x4000
 80065fe:	f021 0170 	bic.w	r1, r1, #112	; 0x70
 8006602:	0409      	lsls	r1, r1, #16
 8006604:	0c09      	lsrs	r1, r1, #16
 8006606:	e6f1      	b.n	80063ec <USB_ActivateEndpoint+0x98>
 8006608:	ffff8f8f 	.word	0xffff8f8f
 800660c:	ffff8fbf 	.word	0xffff8fbf
 8006610:	ffffbf8f 	.word	0xffffbf8f

08006614 <USB_DeactivateEndpoint>:
 8006614:	784a      	ldrb	r2, [r1, #1]
 8006616:	780b      	ldrb	r3, [r1, #0]
 8006618:	7b09      	ldrb	r1, [r1, #12]
 800661a:	bbd9      	cbnz	r1, 8006694 <USB_DeactivateEndpoint+0x80>
 800661c:	b30a      	cbz	r2, 8006662 <USB_DeactivateEndpoint+0x4e>
 800661e:	f830 2023 	ldrh.w	r2, [r0, r3, lsl #2]
 8006622:	0651      	lsls	r1, r2, #25
 8006624:	d50d      	bpl.n	8006642 <USB_DeactivateEndpoint+0x2e>
 8006626:	f830 2023 	ldrh.w	r2, [r0, r3, lsl #2]
 800662a:	f422 42e0 	bic.w	r2, r2, #28672	; 0x7000
 800662e:	f022 0270 	bic.w	r2, r2, #112	; 0x70
 8006632:	0412      	lsls	r2, r2, #16
 8006634:	0c12      	lsrs	r2, r2, #16
 8006636:	f442 4200 	orr.w	r2, r2, #32768	; 0x8000
 800663a:	f042 02c0 	orr.w	r2, r2, #192	; 0xc0
 800663e:	f820 2023 	strh.w	r2, [r0, r3, lsl #2]
 8006642:	f830 2023 	ldrh.w	r2, [r0, r3, lsl #2]
 8006646:	f422 42e0 	bic.w	r2, r2, #28672	; 0x7000
 800664a:	f022 0240 	bic.w	r2, r2, #64	; 0x40
 800664e:	0412      	lsls	r2, r2, #16
 8006650:	0c12      	lsrs	r2, r2, #16
 8006652:	f442 4200 	orr.w	r2, r2, #32768	; 0x8000
 8006656:	f042 0280 	orr.w	r2, r2, #128	; 0x80
 800665a:	f820 2023 	strh.w	r2, [r0, r3, lsl #2]
 800665e:	2000      	movs	r0, #0
 8006660:	4770      	bx	lr
 8006662:	f830 2023 	ldrh.w	r2, [r0, r3, lsl #2]
 8006666:	0452      	lsls	r2, r2, #17
 8006668:	d50d      	bpl.n	8006686 <USB_DeactivateEndpoint+0x72>
 800666a:	f830 2023 	ldrh.w	r2, [r0, r3, lsl #2]
 800666e:	f422 42e0 	bic.w	r2, r2, #28672	; 0x7000
 8006672:	f022 0270 	bic.w	r2, r2, #112	; 0x70
 8006676:	0412      	lsls	r2, r2, #16
 8006678:	0c12      	lsrs	r2, r2, #16
 800667a:	f442 4240 	orr.w	r2, r2, #49152	; 0xc000
 800667e:	f042 0280 	orr.w	r2, r2, #128	; 0x80
 8006682:	f820 2023 	strh.w	r2, [r0, r3, lsl #2]
 8006686:	f830 2023 	ldrh.w	r2, [r0, r3, lsl #2]
 800668a:	f422 4280 	bic.w	r2, r2, #16384	; 0x4000
 800668e:	f022 0270 	bic.w	r2, r2, #112	; 0x70
 8006692:	e7dc      	b.n	800664e <USB_DeactivateEndpoint+0x3a>
 8006694:	2a00      	cmp	r2, #0
 8006696:	d14a      	bne.n	800672e <USB_DeactivateEndpoint+0x11a>
 8006698:	f830 2023 	ldrh.w	r2, [r0, r3, lsl #2]
 800669c:	0451      	lsls	r1, r2, #17
 800669e:	d50d      	bpl.n	80066bc <USB_DeactivateEndpoint+0xa8>
 80066a0:	f830 2023 	ldrh.w	r2, [r0, r3, lsl #2]
 80066a4:	f422 42e0 	bic.w	r2, r2, #28672	; 0x7000
 80066a8:	f022 0270 	bic.w	r2, r2, #112	; 0x70
 80066ac:	0412      	lsls	r2, r2, #16
 80066ae:	0c12      	lsrs	r2, r2, #16
 80066b0:	f442 4240 	orr.w	r2, r2, #49152	; 0xc000
 80066b4:	f042 0280 	orr.w	r2, r2, #128	; 0x80
 80066b8:	f820 2023 	strh.w	r2, [r0, r3, lsl #2]
 80066bc:	f830 2023 	ldrh.w	r2, [r0, r3, lsl #2]
 80066c0:	0652      	lsls	r2, r2, #25
 80066c2:	d50d      	bpl.n	80066e0 <USB_DeactivateEndpoint+0xcc>
 80066c4:	f830 2023 	ldrh.w	r2, [r0, r3, lsl #2]
 80066c8:	f422 42e0 	bic.w	r2, r2, #28672	; 0x7000
 80066cc:	f022 0270 	bic.w	r2, r2, #112	; 0x70
 80066d0:	0412      	lsls	r2, r2, #16
 80066d2:	0c12      	lsrs	r2, r2, #16
 80066d4:	f442 4200 	orr.w	r2, r2, #32768	; 0x8000
 80066d8:	f042 02c0 	orr.w	r2, r2, #192	; 0xc0
 80066dc:	f820 2023 	strh.w	r2, [r0, r3, lsl #2]
 80066e0:	f248 0180 	movw	r1, #32896	; 0x8080
 80066e4:	f830 2023 	ldrh.w	r2, [r0, r3, lsl #2]
 80066e8:	f422 42e0 	bic.w	r2, r2, #28672	; 0x7000
 80066ec:	f022 0270 	bic.w	r2, r2, #112	; 0x70
 80066f0:	0412      	lsls	r2, r2, #16
 80066f2:	0c12      	lsrs	r2, r2, #16
 80066f4:	f442 4200 	orr.w	r2, r2, #32768	; 0x8000
 80066f8:	f042 02c0 	orr.w	r2, r2, #192	; 0xc0
 80066fc:	f820 2023 	strh.w	r2, [r0, r3, lsl #2]
 8006700:	f830 2023 	ldrh.w	r2, [r0, r3, lsl #2]
 8006704:	f422 4280 	bic.w	r2, r2, #16384	; 0x4000
 8006708:	f022 0270 	bic.w	r2, r2, #112	; 0x70
 800670c:	0412      	lsls	r2, r2, #16
 800670e:	0c12      	lsrs	r2, r2, #16
 8006710:	430a      	orrs	r2, r1
 8006712:	f820 2023 	strh.w	r2, [r0, r3, lsl #2]
 8006716:	f830 2023 	ldrh.w	r2, [r0, r3, lsl #2]
 800671a:	f422 42e0 	bic.w	r2, r2, #28672	; 0x7000
 800671e:	f022 0240 	bic.w	r2, r2, #64	; 0x40
 8006722:	0412      	lsls	r2, r2, #16
 8006724:	0c12      	lsrs	r2, r2, #16
 8006726:	4311      	orrs	r1, r2
 8006728:	f820 1023 	strh.w	r1, [r0, r3, lsl #2]
 800672c:	e797      	b.n	800665e <USB_DeactivateEndpoint+0x4a>
 800672e:	f830 2023 	ldrh.w	r2, [r0, r3, lsl #2]
 8006732:	0451      	lsls	r1, r2, #17
 8006734:	d50d      	bpl.n	8006752 <USB_DeactivateEndpoint+0x13e>
 8006736:	f830 2023 	ldrh.w	r2, [r0, r3, lsl #2]
 800673a:	f422 42e0 	bic.w	r2, r2, #28672	; 0x7000
 800673e:	f022 0270 	bic.w	r2, r2, #112	; 0x70
 8006742:	0412      	lsls	r2, r2, #16
 8006744:	0c12      	lsrs	r2, r2, #16
 8006746:	f442 4240 	orr.w	r2, r2, #49152	; 0xc000
 800674a:	f042 0280 	orr.w	r2, r2, #128	; 0x80
 800674e:	f820 2023 	strh.w	r2, [r0, r3, lsl #2]
 8006752:	f830 2023 	ldrh.w	r2, [r0, r3, lsl #2]
 8006756:	0652      	lsls	r2, r2, #25
 8006758:	d50d      	bpl.n	8006776 <USB_DeactivateEndpoint+0x162>
 800675a:	f830 2023 	ldrh.w	r2, [r0, r3, lsl #2]
 800675e:	f422 42e0 	bic.w	r2, r2, #28672	; 0x7000
 8006762:	f022 0270 	bic.w	r2, r2, #112	; 0x70
 8006766:	0412      	lsls	r2, r2, #16
 8006768:	0c12      	lsrs	r2, r2, #16
 800676a:	f442 4200 	orr.w	r2, r2, #32768	; 0x8000
 800676e:	f042 02c0 	orr.w	r2, r2, #192	; 0xc0
 8006772:	f820 2023 	strh.w	r2, [r0, r3, lsl #2]
 8006776:	f248 0180 	movw	r1, #32896	; 0x8080
 800677a:	f830 2023 	ldrh.w	r2, [r0, r3, lsl #2]
 800677e:	f422 42e0 	bic.w	r2, r2, #28672	; 0x7000
 8006782:	f022 0270 	bic.w	r2, r2, #112	; 0x70
 8006786:	0412      	lsls	r2, r2, #16
 8006788:	0c12      	lsrs	r2, r2, #16
 800678a:	f442 4240 	orr.w	r2, r2, #49152	; 0xc000
 800678e:	f042 0280 	orr.w	r2, r2, #128	; 0x80
 8006792:	f820 2023 	strh.w	r2, [r0, r3, lsl #2]
 8006796:	f830 2023 	ldrh.w	r2, [r0, r3, lsl #2]
 800679a:	f422 42e0 	bic.w	r2, r2, #28672	; 0x7000
 800679e:	f022 0240 	bic.w	r2, r2, #64	; 0x40
 80067a2:	0412      	lsls	r2, r2, #16
 80067a4:	0c12      	lsrs	r2, r2, #16
 80067a6:	430a      	orrs	r2, r1
 80067a8:	f820 2023 	strh.w	r2, [r0, r3, lsl #2]
 80067ac:	f830 2023 	ldrh.w	r2, [r0, r3, lsl #2]
 80067b0:	f422 4280 	bic.w	r2, r2, #16384	; 0x4000
 80067b4:	f022 0270 	bic.w	r2, r2, #112	; 0x70
 80067b8:	e7b3      	b.n	8006722 <USB_DeactivateEndpoint+0x10e>

080067ba <USB_EPSetStall>:
 80067ba:	784b      	ldrb	r3, [r1, #1]
 80067bc:	780a      	ldrb	r2, [r1, #0]
 80067be:	b18b      	cbz	r3, 80067e4 <USB_EPSetStall+0x2a>
 80067c0:	f830 3022 	ldrh.w	r3, [r0, r2, lsl #2]
 80067c4:	f423 43e0 	bic.w	r3, r3, #28672	; 0x7000
 80067c8:	f023 0340 	bic.w	r3, r3, #64	; 0x40
 80067cc:	041b      	lsls	r3, r3, #16
 80067ce:	0c1b      	lsrs	r3, r3, #16
 80067d0:	f083 0310 	eor.w	r3, r3, #16
 80067d4:	f443 4300 	orr.w	r3, r3, #32768	; 0x8000
 80067d8:	f043 0380 	orr.w	r3, r3, #128	; 0x80
 80067dc:	f820 3022 	strh.w	r3, [r0, r2, lsl #2]
 80067e0:	2000      	movs	r0, #0
 80067e2:	4770      	bx	lr
 80067e4:	f830 3022 	ldrh.w	r3, [r0, r2, lsl #2]
 80067e8:	f423 4380 	bic.w	r3, r3, #16384	; 0x4000
 80067ec:	f023 0370 	bic.w	r3, r3, #112	; 0x70
 80067f0:	041b      	lsls	r3, r3, #16
 80067f2:	0c1b      	lsrs	r3, r3, #16
 80067f4:	f483 5380 	eor.w	r3, r3, #4096	; 0x1000
 80067f8:	e7ec      	b.n	80067d4 <USB_EPSetStall+0x1a>

080067fa <USB_EPClearStall>:
 80067fa:	7b0b      	ldrb	r3, [r1, #12]
 80067fc:	bb3b      	cbnz	r3, 800684e <USB_EPClearStall+0x54>
 80067fe:	784b      	ldrb	r3, [r1, #1]
 8006800:	780a      	ldrb	r2, [r1, #0]
 8006802:	b333      	cbz	r3, 8006852 <USB_EPClearStall+0x58>
 8006804:	f830 3022 	ldrh.w	r3, [r0, r2, lsl #2]
 8006808:	065b      	lsls	r3, r3, #25
 800680a:	d50d      	bpl.n	8006828 <USB_EPClearStall+0x2e>
 800680c:	f830 3022 	ldrh.w	r3, [r0, r2, lsl #2]
 8006810:	f423 43e0 	bic.w	r3, r3, #28672	; 0x7000
 8006814:	f023 0370 	bic.w	r3, r3, #112	; 0x70
 8006818:	041b      	lsls	r3, r3, #16
 800681a:	0c1b      	lsrs	r3, r3, #16
 800681c:	f443 4300 	orr.w	r3, r3, #32768	; 0x8000
 8006820:	f043 03c0 	orr.w	r3, r3, #192	; 0xc0
 8006824:	f820 3022 	strh.w	r3, [r0, r2, lsl #2]
 8006828:	78cb      	ldrb	r3, [r1, #3]
 800682a:	2b01      	cmp	r3, #1
 800682c:	d00f      	beq.n	800684e <USB_EPClearStall+0x54>
 800682e:	f830 3022 	ldrh.w	r3, [r0, r2, lsl #2]
 8006832:	f423 43e0 	bic.w	r3, r3, #28672	; 0x7000
 8006836:	f023 0340 	bic.w	r3, r3, #64	; 0x40
 800683a:	041b      	lsls	r3, r3, #16
 800683c:	0c1b      	lsrs	r3, r3, #16
 800683e:	f083 0320 	eor.w	r3, r3, #32
 8006842:	f443 4300 	orr.w	r3, r3, #32768	; 0x8000
 8006846:	f043 0380 	orr.w	r3, r3, #128	; 0x80
 800684a:	f820 3022 	strh.w	r3, [r0, r2, lsl #2]
 800684e:	2000      	movs	r0, #0
 8006850:	4770      	bx	lr
 8006852:	f830 3022 	ldrh.w	r3, [r0, r2, lsl #2]
 8006856:	045b      	lsls	r3, r3, #17
 8006858:	d50d      	bpl.n	8006876 <USB_EPClearStall+0x7c>
 800685a:	f830 3022 	ldrh.w	r3, [r0, r2, lsl #2]
 800685e:	f423 43e0 	bic.w	r3, r3, #28672	; 0x7000
 8006862:	f023 0370 	bic.w	r3, r3, #112	; 0x70
 8006866:	041b      	lsls	r3, r3, #16
 8006868:	0c1b      	lsrs	r3, r3, #16
 800686a:	f443 4340 	orr.w	r3, r3, #49152	; 0xc000
 800686e:	f043 0380 	orr.w	r3, r3, #128	; 0x80
 8006872:	f820 3022 	strh.w	r3, [r0, r2, lsl #2]
 8006876:	f830 3022 	ldrh.w	r3, [r0, r2, lsl #2]
 800687a:	f423 4380 	bic.w	r3, r3, #16384	; 0x4000
 800687e:	f023 0370 	bic.w	r3, r3, #112	; 0x70
 8006882:	041b      	lsls	r3, r3, #16
 8006884:	0c1b      	lsrs	r3, r3, #16
 8006886:	f483 5340 	eor.w	r3, r3, #12288	; 0x3000
 800688a:	e7da      	b.n	8006842 <USB_EPClearStall+0x48>

0800688c <USB_SetDevAddress>:
 800688c:	b911      	cbnz	r1, 8006894 <USB_SetDevAddress+0x8>
 800688e:	2380      	movs	r3, #128	; 0x80
 8006890:	f8a0 304c 	strh.w	r3, [r0, #76]	; 0x4c
 8006894:	2000      	movs	r0, #0
 8006896:	4770      	bx	lr

08006898 <USB_DevConnect>:
 8006898:	2000      	movs	r0, #0
 800689a:	4770      	bx	lr

0800689c <USB_DevDisconnect>:
 800689c:	2000      	movs	r0, #0
 800689e:	4770      	bx	lr

080068a0 <USB_ReadInterrupts>:
 80068a0:	f8b0 0044 	ldrh.w	r0, [r0, #68]	; 0x44
 80068a4:	b280      	uxth	r0, r0
 80068a6:	4770      	bx	lr

080068a8 <USB_EP0_OutStart>:
 80068a8:	2000      	movs	r0, #0
 80068aa:	4770      	bx	lr

080068ac <USB_WritePMA>:
 80068ac:	eb00 0042 	add.w	r0, r0, r2, lsl #1
 80068b0:	3301      	adds	r3, #1
 80068b2:	f500 6080 	add.w	r0, r0, #1024	; 0x400
 80068b6:	085b      	lsrs	r3, r3, #1
 80068b8:	eb00 0383 	add.w	r3, r0, r3, lsl #2
 80068bc:	4283      	cmp	r3, r0
 80068be:	d100      	bne.n	80068c2 <USB_WritePMA+0x16>
 80068c0:	4770      	bx	lr
 80068c2:	f831 2b02 	ldrh.w	r2, [r1], #2
 80068c6:	f820 2b04 	strh.w	r2, [r0], #4
 80068ca:	e7f7      	b.n	80068bc <USB_WritePMA+0x10>

080068cc <USB_EPStartXfer>:
 80068cc:	e92d 47f0 	stmdb	sp!, {r4, r5, r6, r7, r8, r9, sl, lr}
 80068d0:	460c      	mov	r4, r1
 80068d2:	7849      	ldrb	r1, [r1, #1]
 80068d4:	4605      	mov	r5, r0
 80068d6:	2901      	cmp	r1, #1
 80068d8:	7b22      	ldrb	r2, [r4, #12]
 80068da:	f040 8118 	bne.w	8006b0e <USB_EPStartXfer+0x242>
 80068de:	f8d4 9010 	ldr.w	r9, [r4, #16]
 80068e2:	69a7      	ldr	r7, [r4, #24]
 80068e4:	6961      	ldr	r1, [r4, #20]
 80068e6:	454f      	cmp	r7, r9
 80068e8:	bf28      	it	cs
 80068ea:	464f      	movcs	r7, r9
 80068ec:	bb0a      	cbnz	r2, 8006932 <USB_EPStartXfer+0x66>
 80068ee:	b2bf      	uxth	r7, r7
 80068f0:	88e2      	ldrh	r2, [r4, #6]
 80068f2:	463b      	mov	r3, r7
 80068f4:	f7ff ffda 	bl	80068ac <USB_WritePMA>
 80068f8:	f8b5 0050 	ldrh.w	r0, [r5, #80]	; 0x50
 80068fc:	7821      	ldrb	r1, [r4, #0]
 80068fe:	b280      	uxth	r0, r0
 8006900:	f205 4204 	addw	r2, r5, #1028	; 0x404
 8006904:	0109      	lsls	r1, r1, #4
 8006906:	4402      	add	r2, r0
 8006908:	528f      	strh	r7, [r1, r2]
 800690a:	7822      	ldrb	r2, [r4, #0]
 800690c:	f835 3022 	ldrh.w	r3, [r5, r2, lsl #2]
 8006910:	f423 43e0 	bic.w	r3, r3, #28672	; 0x7000
 8006914:	f023 0340 	bic.w	r3, r3, #64	; 0x40
 8006918:	041b      	lsls	r3, r3, #16
 800691a:	0c1b      	lsrs	r3, r3, #16
 800691c:	f083 0330 	eor.w	r3, r3, #48	; 0x30
 8006920:	2000      	movs	r0, #0
 8006922:	f443 4300 	orr.w	r3, r3, #32768	; 0x8000
 8006926:	f043 0380 	orr.w	r3, r3, #128	; 0x80
 800692a:	f825 3022 	strh.w	r3, [r5, r2, lsl #2]
 800692e:	e8bd 87f0 	ldmia.w	sp!, {r4, r5, r6, r7, r8, r9, sl, pc}
 8006932:	78e3      	ldrb	r3, [r4, #3]
 8006934:	f894 e000 	ldrb.w	lr, [r4]
 8006938:	2b02      	cmp	r3, #2
 800693a:	6a26      	ldr	r6, [r4, #32]
 800693c:	ea4f 1c0e 	mov.w	ip, lr, lsl #4
 8006940:	f040 80d0 	bne.w	8006ae4 <USB_EPStartXfer+0x218>
 8006944:	45b1      	cmp	r9, r6
 8006946:	f830 202e 	ldrh.w	r2, [r0, lr, lsl #2]
 800694a:	f080 80b4 	bcs.w	8006ab6 <USB_EPStartXfer+0x1ea>
 800694e:	f422 42e0 	bic.w	r2, r2, #28672	; 0x7000
 8006952:	f022 0270 	bic.w	r2, r2, #112	; 0x70
 8006956:	0412      	lsls	r2, r2, #16
 8006958:	0c12      	lsrs	r2, r2, #16
 800695a:	f442 4201 	orr.w	r2, r2, #33024	; 0x8100
 800695e:	f042 0280 	orr.w	r2, r2, #128	; 0x80
 8006962:	f820 202e 	strh.w	r2, [r0, lr, lsl #2]
 8006966:	f830 802e 	ldrh.w	r8, [r0, lr, lsl #2]
 800696a:	f8b0 e050 	ldrh.w	lr, [r0, #80]	; 0x50
 800696e:	1bf6      	subs	r6, r6, r7
 8006970:	f018 0840 	ands.w	r8, r8, #64	; 0x40
 8006974:	6226      	str	r6, [r4, #32]
 8006976:	eb01 0a07 	add.w	sl, r1, r7
 800697a:	b2bb      	uxth	r3, r7
 800697c:	fa1f fe8e 	uxth.w	lr, lr
 8006980:	d04e      	beq.n	8006a20 <USB_EPStartXfer+0x154>
 8006982:	f200 420c 	addw	r2, r0, #1036	; 0x40c
 8006986:	4472      	add	r2, lr
 8006988:	f822 300c 	strh.w	r3, [r2, ip]
 800698c:	8962      	ldrh	r2, [r4, #10]
 800698e:	f7ff ff8d 	bl	80068ac <USB_WritePMA>
 8006992:	45b1      	cmp	r9, r6
 8006994:	bf36      	itet	cc
 8006996:	1bf3      	subcc	r3, r6, r7
 8006998:	2300      	movcs	r3, #0
 800699a:	463e      	movcc	r6, r7
 800699c:	7862      	ldrb	r2, [r4, #1]
 800699e:	6223      	str	r3, [r4, #32]
 80069a0:	f8c4 a014 	str.w	sl, [r4, #20]
 80069a4:	b2b3      	uxth	r3, r6
 80069a6:	bb7a      	cbnz	r2, 8006a08 <USB_EPStartXfer+0x13c>
 80069a8:	f8b5 2050 	ldrh.w	r2, [r5, #80]	; 0x50
 80069ac:	7820      	ldrb	r0, [r4, #0]
 80069ae:	b292      	uxth	r2, r2
 80069b0:	f205 4104 	addw	r1, r5, #1028	; 0x404
 80069b4:	0100      	lsls	r0, r0, #4
 80069b6:	4411      	add	r1, r2
 80069b8:	5a42      	ldrh	r2, [r0, r1]
 80069ba:	2e3e      	cmp	r6, #62	; 0x3e
 80069bc:	f3c2 0209 	ubfx	r2, r2, #0, #10
 80069c0:	5242      	strh	r2, [r0, r1]
 80069c2:	d915      	bls.n	80069f0 <USB_EPStartXfer+0x124>
 80069c4:	06f2      	lsls	r2, r6, #27
 80069c6:	5a42      	ldrh	r2, [r0, r1]
 80069c8:	ea4f 1756 	mov.w	r7, r6, lsr #5
 80069cc:	bf08      	it	eq
 80069ce:	f107 37ff 	addeq.w	r7, r7, #4294967295
 80069d2:	b292      	uxth	r2, r2
 80069d4:	ea42 2287 	orr.w	r2, r2, r7, lsl #10
 80069d8:	ea6f 4242 	mvn.w	r2, r2, lsl #17
 80069dc:	ea6f 4252 	mvn.w	r2, r2, lsr #17
 80069e0:	b292      	uxth	r2, r2
 80069e2:	5242      	strh	r2, [r0, r1]
 80069e4:	8922      	ldrh	r2, [r4, #8]
 80069e6:	4651      	mov	r1, sl
 80069e8:	4628      	mov	r0, r5
 80069ea:	f7ff ff5f 	bl	80068ac <USB_WritePMA>
 80069ee:	e78c      	b.n	800690a <USB_EPStartXfer+0x3e>
 80069f0:	b90e      	cbnz	r6, 80069f6 <USB_EPStartXfer+0x12a>
 80069f2:	5a42      	ldrh	r2, [r0, r1]
 80069f4:	e7f0      	b.n	80069d8 <USB_EPStartXfer+0x10c>
 80069f6:	5a42      	ldrh	r2, [r0, r1]
 80069f8:	0877      	lsrs	r7, r6, #1
 80069fa:	07f6      	lsls	r6, r6, #31
 80069fc:	bf48      	it	mi
 80069fe:	3701      	addmi	r7, #1
 8006a00:	b292      	uxth	r2, r2
 8006a02:	ea42 2287 	orr.w	r2, r2, r7, lsl #10
 8006a06:	e7eb      	b.n	80069e0 <USB_EPStartXfer+0x114>
 8006a08:	2a01      	cmp	r2, #1
 8006a0a:	d1eb      	bne.n	80069e4 <USB_EPStartXfer+0x118>
 8006a0c:	f8b5 0050 	ldrh.w	r0, [r5, #80]	; 0x50
 8006a10:	7821      	ldrb	r1, [r4, #0]
 8006a12:	b280      	uxth	r0, r0
 8006a14:	f205 4204 	addw	r2, r5, #1028	; 0x404
 8006a18:	0109      	lsls	r1, r1, #4
 8006a1a:	4402      	add	r2, r0
 8006a1c:	528b      	strh	r3, [r1, r2]
 8006a1e:	e7e1      	b.n	80069e4 <USB_EPStartXfer+0x118>
 8006a20:	f200 4204 	addw	r2, r0, #1028	; 0x404
 8006a24:	4472      	add	r2, lr
 8006a26:	f822 300c 	strh.w	r3, [r2, ip]
 8006a2a:	8922      	ldrh	r2, [r4, #8]
 8006a2c:	f7ff ff3e 	bl	80068ac <USB_WritePMA>
 8006a30:	45b1      	cmp	r9, r6
 8006a32:	bf36      	itet	cc
 8006a34:	1bf3      	subcc	r3, r6, r7
 8006a36:	4643      	movcs	r3, r8
 8006a38:	463e      	movcc	r6, r7
 8006a3a:	7862      	ldrb	r2, [r4, #1]
 8006a3c:	6223      	str	r3, [r4, #32]
 8006a3e:	f8c4 a014 	str.w	sl, [r4, #20]
 8006a42:	b2b3      	uxth	r3, r6
 8006a44:	bb5a      	cbnz	r2, 8006a9e <USB_EPStartXfer+0x1d2>
 8006a46:	f8b5 2050 	ldrh.w	r2, [r5, #80]	; 0x50
 8006a4a:	7820      	ldrb	r0, [r4, #0]
 8006a4c:	b292      	uxth	r2, r2
 8006a4e:	f205 410c 	addw	r1, r5, #1036	; 0x40c
 8006a52:	0100      	lsls	r0, r0, #4
 8006a54:	4411      	add	r1, r2
 8006a56:	5a42      	ldrh	r2, [r0, r1]
 8006a58:	2e3e      	cmp	r6, #62	; 0x3e
 8006a5a:	f3c2 0209 	ubfx	r2, r2, #0, #10
 8006a5e:	5242      	strh	r2, [r0, r1]
 8006a60:	d911      	bls.n	8006a86 <USB_EPStartXfer+0x1ba>
 8006a62:	06f2      	lsls	r2, r6, #27
 8006a64:	5a42      	ldrh	r2, [r0, r1]
 8006a66:	ea4f 1756 	mov.w	r7, r6, lsr #5
 8006a6a:	bf08      	it	eq
 8006a6c:	f107 37ff 	addeq.w	r7, r7, #4294967295
 8006a70:	b292      	uxth	r2, r2
 8006a72:	ea42 2287 	orr.w	r2, r2, r7, lsl #10
 8006a76:	ea6f 4242 	mvn.w	r2, r2, lsl #17
 8006a7a:	ea6f 4252 	mvn.w	r2, r2, lsr #17
 8006a7e:	b292      	uxth	r2, r2
 8006a80:	5242      	strh	r2, [r0, r1]
 8006a82:	8962      	ldrh	r2, [r4, #10]
 8006a84:	e7af      	b.n	80069e6 <USB_EPStartXfer+0x11a>
 8006a86:	b90e      	cbnz	r6, 8006a8c <USB_EPStartXfer+0x1c0>
 8006a88:	5a42      	ldrh	r2, [r0, r1]
 8006a8a:	e7f4      	b.n	8006a76 <USB_EPStartXfer+0x1aa>
 8006a8c:	5a42      	ldrh	r2, [r0, r1]
 8006a8e:	0877      	lsrs	r7, r6, #1
 8006a90:	07f6      	lsls	r6, r6, #31
 8006a92:	bf48      	it	mi
 8006a94:	3701      	addmi	r7, #1
 8006a96:	b292      	uxth	r2, r2
 8006a98:	ea42 2287 	orr.w	r2, r2, r7, lsl #10
 8006a9c:	e7ef      	b.n	8006a7e <USB_EPStartXfer+0x1b2>
 8006a9e:	2a01      	cmp	r2, #1
 8006aa0:	d1ef      	bne.n	8006a82 <USB_EPStartXfer+0x1b6>
 8006aa2:	f8b5 0050 	ldrh.w	r0, [r5, #80]	; 0x50
 8006aa6:	7821      	ldrb	r1, [r4, #0]
 8006aa8:	b280      	uxth	r0, r0
 8006aaa:	f205 420c 	addw	r2, r5, #1036	; 0x40c
 8006aae:	0109      	lsls	r1, r1, #4
 8006ab0:	4402      	add	r2, r0
 8006ab2:	528b      	strh	r3, [r1, r2]
 8006ab4:	e7e5      	b.n	8006a82 <USB_EPStartXfer+0x1b6>
 8006ab6:	f422 42e2 	bic.w	r2, r2, #28928	; 0x7100
 8006aba:	f022 0270 	bic.w	r2, r2, #112	; 0x70
 8006abe:	0412      	lsls	r2, r2, #16
 8006ac0:	0c12      	lsrs	r2, r2, #16
 8006ac2:	f442 4200 	orr.w	r2, r2, #32768	; 0x8000
 8006ac6:	f042 0280 	orr.w	r2, r2, #128	; 0x80
 8006aca:	f820 202e 	strh.w	r2, [r0, lr, lsl #2]
 8006ace:	f8b0 3050 	ldrh.w	r3, [r0, #80]	; 0x50
 8006ad2:	f200 4204 	addw	r2, r0, #1028	; 0x404
 8006ad6:	b29b      	uxth	r3, r3
 8006ad8:	441a      	add	r2, r3
 8006ada:	b2b3      	uxth	r3, r6
 8006adc:	f822 300c 	strh.w	r3, [r2, ip]
 8006ae0:	8922      	ldrh	r2, [r4, #8]
 8006ae2:	e782      	b.n	80069ea <USB_EPStartXfer+0x11e>
 8006ae4:	f830 202e 	ldrh.w	r2, [r0, lr, lsl #2]
 8006ae8:	1bf6      	subs	r6, r6, r7
 8006aea:	6226      	str	r6, [r4, #32]
 8006aec:	f8b0 6050 	ldrh.w	r6, [r0, #80]	; 0x50
 8006af0:	0652      	lsls	r2, r2, #25
 8006af2:	b2bb      	uxth	r3, r7
 8006af4:	b2b6      	uxth	r6, r6
 8006af6:	d506      	bpl.n	8006b06 <USB_EPStartXfer+0x23a>
 8006af8:	f200 420c 	addw	r2, r0, #1036	; 0x40c
 8006afc:	4432      	add	r2, r6
 8006afe:	f822 300c 	strh.w	r3, [r2, ip]
 8006b02:	8962      	ldrh	r2, [r4, #10]
 8006b04:	e771      	b.n	80069ea <USB_EPStartXfer+0x11e>
 8006b06:	f200 4204 	addw	r2, r0, #1028	; 0x404
 8006b0a:	4432      	add	r2, r6
 8006b0c:	e7e6      	b.n	8006adc <USB_EPStartXfer+0x210>
 8006b0e:	b9d2      	cbnz	r2, 8006b46 <USB_EPStartXfer+0x27a>
 8006b10:	69a3      	ldr	r3, [r4, #24]
 8006b12:	6921      	ldr	r1, [r4, #16]
 8006b14:	f8b0 0050 	ldrh.w	r0, [r0, #80]	; 0x50
 8006b18:	428b      	cmp	r3, r1
 8006b1a:	bf84      	itt	hi
 8006b1c:	1a5a      	subhi	r2, r3, r1
 8006b1e:	460b      	movhi	r3, r1
 8006b20:	7821      	ldrb	r1, [r4, #0]
 8006b22:	61a2      	str	r2, [r4, #24]
 8006b24:	b280      	uxth	r0, r0
 8006b26:	f205 420c 	addw	r2, r5, #1036	; 0x40c
 8006b2a:	0109      	lsls	r1, r1, #4
 8006b2c:	4402      	add	r2, r0
 8006b2e:	5a50      	ldrh	r0, [r2, r1]
 8006b30:	2b3e      	cmp	r3, #62	; 0x3e
 8006b32:	f3c0 0009 	ubfx	r0, r0, #0, #10
 8006b36:	5250      	strh	r0, [r2, r1]
 8006b38:	f200 80c5 	bhi.w	8006cc6 <USB_EPStartXfer+0x3fa>
 8006b3c:	2b00      	cmp	r3, #0
 8006b3e:	f040 80d2 	bne.w	8006ce6 <USB_EPStartXfer+0x41a>
 8006b42:	5a53      	ldrh	r3, [r2, r1]
 8006b44:	e0c8      	b.n	8006cd8 <USB_EPStartXfer+0x40c>
 8006b46:	78e3      	ldrb	r3, [r4, #3]
 8006b48:	2b02      	cmp	r3, #2
 8006b4a:	d17c      	bne.n	8006c46 <USB_EPStartXfer+0x37a>
 8006b4c:	2900      	cmp	r1, #0
 8006b4e:	d14b      	bne.n	8006be8 <USB_EPStartXfer+0x31c>
 8006b50:	f8b0 3050 	ldrh.w	r3, [r0, #80]	; 0x50
 8006b54:	7820      	ldrb	r0, [r4, #0]
 8006b56:	b29b      	uxth	r3, r3
 8006b58:	f205 4104 	addw	r1, r5, #1028	; 0x404
 8006b5c:	0100      	lsls	r0, r0, #4
 8006b5e:	4419      	add	r1, r3
 8006b60:	5a43      	ldrh	r3, [r0, r1]
 8006b62:	f3c3 0309 	ubfx	r3, r3, #0, #10
 8006b66:	5243      	strh	r3, [r0, r1]
 8006b68:	6923      	ldr	r3, [r4, #16]
 8006b6a:	2b3e      	cmp	r3, #62	; 0x3e
 8006b6c:	d920      	bls.n	8006bb0 <USB_EPStartXfer+0x2e4>
 8006b6e:	5a42      	ldrh	r2, [r0, r1]
 8006b70:	095e      	lsrs	r6, r3, #5
 8006b72:	06df      	lsls	r7, r3, #27
 8006b74:	bf08      	it	eq
 8006b76:	f106 36ff 	addeq.w	r6, r6, #4294967295
 8006b7a:	b292      	uxth	r2, r2
 8006b7c:	ea42 2286 	orr.w	r2, r2, r6, lsl #10
 8006b80:	ea6f 4242 	mvn.w	r2, r2, lsl #17
 8006b84:	ea6f 4252 	mvn.w	r2, r2, lsr #17
 8006b88:	b292      	uxth	r2, r2
 8006b8a:	5242      	strh	r2, [r0, r1]
 8006b8c:	f8b5 0050 	ldrh.w	r0, [r5, #80]	; 0x50
 8006b90:	7822      	ldrb	r2, [r4, #0]
 8006b92:	b280      	uxth	r0, r0
 8006b94:	f205 410c 	addw	r1, r5, #1036	; 0x40c
 8006b98:	0112      	lsls	r2, r2, #4
 8006b9a:	4401      	add	r1, r0
 8006b9c:	5a50      	ldrh	r0, [r2, r1]
 8006b9e:	2b3e      	cmp	r3, #62	; 0x3e
 8006ba0:	f3c0 0009 	ubfx	r0, r0, #0, #10
 8006ba4:	5250      	strh	r0, [r2, r1]
 8006ba6:	d810      	bhi.n	8006bca <USB_EPStartXfer+0x2fe>
 8006ba8:	2b00      	cmp	r3, #0
 8006baa:	d143      	bne.n	8006c34 <USB_EPStartXfer+0x368>
 8006bac:	5a53      	ldrh	r3, [r2, r1]
 8006bae:	e015      	b.n	8006bdc <USB_EPStartXfer+0x310>
 8006bb0:	b90b      	cbnz	r3, 8006bb6 <USB_EPStartXfer+0x2ea>
 8006bb2:	5a42      	ldrh	r2, [r0, r1]
 8006bb4:	e7e4      	b.n	8006b80 <USB_EPStartXfer+0x2b4>
 8006bb6:	07da      	lsls	r2, r3, #31
 8006bb8:	5a42      	ldrh	r2, [r0, r1]
 8006bba:	ea4f 0653 	mov.w	r6, r3, lsr #1
 8006bbe:	bf48      	it	mi
 8006bc0:	3601      	addmi	r6, #1
 8006bc2:	b292      	uxth	r2, r2
 8006bc4:	ea42 2286 	orr.w	r2, r2, r6, lsl #10
 8006bc8:	e7de      	b.n	8006b88 <USB_EPStartXfer+0x2bc>
 8006bca:	0958      	lsrs	r0, r3, #5
 8006bcc:	06df      	lsls	r7, r3, #27
 8006bce:	5a53      	ldrh	r3, [r2, r1]
 8006bd0:	bf08      	it	eq
 8006bd2:	f100 30ff 	addeq.w	r0, r0, #4294967295
 8006bd6:	b29b      	uxth	r3, r3
 8006bd8:	ea43 2380 	orr.w	r3, r3, r0, lsl #10
 8006bdc:	ea6f 4343 	mvn.w	r3, r3, lsl #17
 8006be0:	ea6f 4353 	mvn.w	r3, r3, lsr #17
 8006be4:	b29b      	uxth	r3, r3
 8006be6:	5253      	strh	r3, [r2, r1]
 8006be8:	69e3      	ldr	r3, [r4, #28]
 8006bea:	b1bb      	cbz	r3, 8006c1c <USB_EPStartXfer+0x350>
 8006bec:	f244 0340 	movw	r3, #16448	; 0x4040
 8006bf0:	7822      	ldrb	r2, [r4, #0]
 8006bf2:	f835 1022 	ldrh.w	r1, [r5, r2, lsl #2]
 8006bf6:	ea03 0001 	and.w	r0, r3, r1
 8006bfa:	438b      	bics	r3, r1
 8006bfc:	d000      	beq.n	8006c00 <USB_EPStartXfer+0x334>
 8006bfe:	b968      	cbnz	r0, 8006c1c <USB_EPStartXfer+0x350>
 8006c00:	f835 3022 	ldrh.w	r3, [r5, r2, lsl #2]
 8006c04:	f423 43e0 	bic.w	r3, r3, #28672	; 0x7000
 8006c08:	f023 0370 	bic.w	r3, r3, #112	; 0x70
 8006c0c:	041b      	lsls	r3, r3, #16
 8006c0e:	0c1b      	lsrs	r3, r3, #16
 8006c10:	f443 4300 	orr.w	r3, r3, #32768	; 0x8000
 8006c14:	f043 03c0 	orr.w	r3, r3, #192	; 0xc0
 8006c18:	f825 3022 	strh.w	r3, [r5, r2, lsl #2]
 8006c1c:	7822      	ldrb	r2, [r4, #0]
 8006c1e:	f835 3022 	ldrh.w	r3, [r5, r2, lsl #2]
 8006c22:	f423 4380 	bic.w	r3, r3, #16384	; 0x4000
 8006c26:	f023 0370 	bic.w	r3, r3, #112	; 0x70
 8006c2a:	041b      	lsls	r3, r3, #16
 8006c2c:	0c1b      	lsrs	r3, r3, #16
 8006c2e:	f483 5340 	eor.w	r3, r3, #12288	; 0x3000
 8006c32:	e675      	b.n	8006920 <USB_EPStartXfer+0x54>
 8006c34:	0858      	lsrs	r0, r3, #1
 8006c36:	07de      	lsls	r6, r3, #31
 8006c38:	5a53      	ldrh	r3, [r2, r1]
 8006c3a:	bf48      	it	mi
 8006c3c:	3001      	addmi	r0, #1
 8006c3e:	b29b      	uxth	r3, r3
 8006c40:	ea43 2380 	orr.w	r3, r3, r0, lsl #10
 8006c44:	e7ce      	b.n	8006be4 <USB_EPStartXfer+0x318>
 8006c46:	2b01      	cmp	r3, #1
 8006c48:	d156      	bne.n	8006cf8 <USB_EPStartXfer+0x42c>
 8006c4a:	69a3      	ldr	r3, [r4, #24]
 8006c4c:	6922      	ldr	r2, [r4, #16]
 8006c4e:	4293      	cmp	r3, r2
 8006c50:	bf94      	ite	ls
 8006c52:	2000      	movls	r0, #0
 8006c54:	1a98      	subhi	r0, r3, r2
 8006c56:	61a0      	str	r0, [r4, #24]
 8006c58:	bf88      	it	hi
 8006c5a:	4613      	movhi	r3, r2
 8006c5c:	2900      	cmp	r1, #0
 8006c5e:	d1dd      	bne.n	8006c1c <USB_EPStartXfer+0x350>
 8006c60:	f8b5 2050 	ldrh.w	r2, [r5, #80]	; 0x50
 8006c64:	7820      	ldrb	r0, [r4, #0]
 8006c66:	b292      	uxth	r2, r2
 8006c68:	f205 4104 	addw	r1, r5, #1028	; 0x404
 8006c6c:	0100      	lsls	r0, r0, #4
 8006c6e:	4411      	add	r1, r2
 8006c70:	5a42      	ldrh	r2, [r0, r1]
 8006c72:	2b3e      	cmp	r3, #62	; 0x3e
 8006c74:	f3c2 0209 	ubfx	r2, r2, #0, #10
 8006c78:	5242      	strh	r2, [r0, r1]
 8006c7a:	d918      	bls.n	8006cae <USB_EPStartXfer+0x3e2>
 8006c7c:	06da      	lsls	r2, r3, #27
 8006c7e:	5a42      	ldrh	r2, [r0, r1]
 8006c80:	ea4f 1653 	mov.w	r6, r3, lsr #5
 8006c84:	bf08      	it	eq
 8006c86:	f106 36ff 	addeq.w	r6, r6, #4294967295
 8006c8a:	b292      	uxth	r2, r2
 8006c8c:	ea42 2286 	orr.w	r2, r2, r6, lsl #10
 8006c90:	ea6f 4242 	mvn.w	r2, r2, lsl #17
 8006c94:	ea6f 4252 	mvn.w	r2, r2, lsr #17
 8006c98:	b292      	uxth	r2, r2
 8006c9a:	5242      	strh	r2, [r0, r1]
 8006c9c:	f8b5 0050 	ldrh.w	r0, [r5, #80]	; 0x50
 8006ca0:	7822      	ldrb	r2, [r4, #0]
 8006ca2:	b280      	uxth	r0, r0
 8006ca4:	f205 410c 	addw	r1, r5, #1036	; 0x40c
 8006ca8:	0112      	lsls	r2, r2, #4
 8006caa:	4401      	add	r1, r0
 8006cac:	e73f      	b.n	8006b2e <USB_EPStartXfer+0x262>
 8006cae:	b90b      	cbnz	r3, 8006cb4 <USB_EPStartXfer+0x3e8>
 8006cb0:	5a42      	ldrh	r2, [r0, r1]
 8006cb2:	e7ed      	b.n	8006c90 <USB_EPStartXfer+0x3c4>
 8006cb4:	5a42      	ldrh	r2, [r0, r1]
 8006cb6:	085e      	lsrs	r6, r3, #1
 8006cb8:	07df      	lsls	r7, r3, #31
 8006cba:	bf48      	it	mi
 8006cbc:	3601      	addmi	r6, #1
 8006cbe:	b292      	uxth	r2, r2
 8006cc0:	ea42 2286 	orr.w	r2, r2, r6, lsl #10
 8006cc4:	e7e8      	b.n	8006c98 <USB_EPStartXfer+0x3cc>
 8006cc6:	0958      	lsrs	r0, r3, #5
 8006cc8:	06de      	lsls	r6, r3, #27
 8006cca:	5a53      	ldrh	r3, [r2, r1]
 8006ccc:	bf08      	it	eq
 8006cce:	f100 30ff 	addeq.w	r0, r0, #4294967295
 8006cd2:	b29b      	uxth	r3, r3
 8006cd4:	ea43 2380 	orr.w	r3, r3, r0, lsl #10
 8006cd8:	ea6f 4343 	mvn.w	r3, r3, lsl #17
 8006cdc:	ea6f 4353 	mvn.w	r3, r3, lsr #17
 8006ce0:	b29b      	uxth	r3, r3
 8006ce2:	5253      	strh	r3, [r2, r1]
 8006ce4:	e79a      	b.n	8006c1c <USB_EPStartXfer+0x350>
 8006ce6:	0858      	lsrs	r0, r3, #1
 8006ce8:	07db      	lsls	r3, r3, #31
 8006cea:	5a53      	ldrh	r3, [r2, r1]
 8006cec:	bf48      	it	mi
 8006cee:	3001      	addmi	r0, #1
 8006cf0:	b29b      	uxth	r3, r3
 8006cf2:	ea43 2380 	orr.w	r3, r3, r0, lsl #10
 8006cf6:	e7f3      	b.n	8006ce0 <USB_EPStartXfer+0x414>
 8006cf8:	2001      	movs	r0, #1
 8006cfa:	e618      	b.n	800692e <USB_EPStartXfer+0x62>

08006cfc <USB_ReadPMA>:
 8006cfc:	eb00 0042 	add.w	r0, r0, r2, lsl #1
 8006d00:	b5f0      	push	{r4, r5, r6, r7, lr}
 8006d02:	f500 6080 	add.w	r0, r0, #1024	; 0x400
 8006d06:	085d      	lsrs	r5, r3, #1
 8006d08:	460c      	mov	r4, r1
 8006d0a:	4607      	mov	r7, r0
 8006d0c:	462e      	mov	r6, r5
 8006d0e:	3402      	adds	r4, #2
 8006d10:	b936      	cbnz	r6, 8006d20 <USB_ReadPMA+0x24>
 8006d12:	07db      	lsls	r3, r3, #31
 8006d14:	bf44      	itt	mi
 8006d16:	f830 3025 	ldrhmi.w	r3, [r0, r5, lsl #2]
 8006d1a:	f801 3015 	strbmi.w	r3, [r1, r5, lsl #1]
 8006d1e:	bdf0      	pop	{r4, r5, r6, r7, pc}
 8006d20:	f837 2b04 	ldrh.w	r2, [r7], #4
 8006d24:	3e01      	subs	r6, #1
 8006d26:	b292      	uxth	r2, r2
 8006d28:	f804 2c02 	strb.w	r2, [r4, #-2]
 8006d2c:	0a12      	lsrs	r2, r2, #8
 8006d2e:	f804 2c01 	strb.w	r2, [r4, #-1]
 8006d32:	e7ec      	b.n	8006d0e <USB_ReadPMA+0x12>

08006d34 <USBD_CDC_EP0_RxReady>:
 8006d34:	f8d0 32bc 	ldr.w	r3, [r0, #700]	; 0x2bc
 8006d38:	b510      	push	{r4, lr}
 8006d3a:	b16b      	cbz	r3, 8006d58 <USBD_CDC_EP0_RxReady+0x24>
 8006d3c:	f8d0 42b8 	ldr.w	r4, [r0, #696]	; 0x2b8
 8006d40:	f894 0200 	ldrb.w	r0, [r4, #512]	; 0x200
 8006d44:	28ff      	cmp	r0, #255	; 0xff
 8006d46:	d007      	beq.n	8006d58 <USBD_CDC_EP0_RxReady+0x24>
 8006d48:	689b      	ldr	r3, [r3, #8]
 8006d4a:	4621      	mov	r1, r4
 8006d4c:	f894 2201 	ldrb.w	r2, [r4, #513]	; 0x201
 8006d50:	4798      	blx	r3
 8006d52:	23ff      	movs	r3, #255	; 0xff
 8006d54:	f884 3200 	strb.w	r3, [r4, #512]	; 0x200
 8006d58:	2000      	movs	r0, #0
 8006d5a:	bd10      	pop	{r4, pc}

08006d5c <USBD_CDC_GetFSCfgDesc>:
 8006d5c:	2343      	movs	r3, #67	; 0x43
 8006d5e:	8003      	strh	r3, [r0, #0]
 8006d60:	4800      	ldr	r0, [pc, #0]	; (8006d64 <USBD_CDC_GetFSCfgDesc+0x8>)
 8006d62:	4770      	bx	lr
 8006d64:	20000068 	.word	0x20000068

08006d68 <USBD_CDC_GetHSCfgDesc>:
 8006d68:	2343      	movs	r3, #67	; 0x43
 8006d6a:	8003      	strh	r3, [r0, #0]
 8006d6c:	4800      	ldr	r0, [pc, #0]	; (8006d70 <USBD_CDC_GetHSCfgDesc+0x8>)
 8006d6e:	4770      	bx	lr
 8006d70:	200000ac 	.word	0x200000ac

08006d74 <USBD_CDC_GetOtherSpeedCfgDesc>:
 8006d74:	2343      	movs	r3, #67	; 0x43
 8006d76:	8003      	strh	r3, [r0, #0]
 8006d78:	4800      	ldr	r0, [pc, #0]	; (8006d7c <USBD_CDC_GetOtherSpeedCfgDesc+0x8>)
 8006d7a:	4770      	bx	lr
 8006d7c:	200000fc 	.word	0x200000fc

08006d80 <USBD_CDC_GetDeviceQualifierDescriptor>:
 8006d80:	230a      	movs	r3, #10
 8006d82:	8003      	strh	r3, [r0, #0]
 8006d84:	4800      	ldr	r0, [pc, #0]	; (8006d88 <USBD_CDC_GetDeviceQualifierDescriptor+0x8>)
 8006d86:	4770      	bx	lr
 8006d88:	200000f0 	.word	0x200000f0

08006d8c <USBD_CDC_DataOut>:
 8006d8c:	b538      	push	{r3, r4, r5, lr}
 8006d8e:	4604      	mov	r4, r0
 8006d90:	f8d0 52b8 	ldr.w	r5, [r0, #696]	; 0x2b8
 8006d94:	f000 fecf 	bl	8007b36 <USBD_LL_GetRxDataSize>
 8006d98:	f8d4 32b8 	ldr.w	r3, [r4, #696]	; 0x2b8
 8006d9c:	f8c5 020c 	str.w	r0, [r5, #524]	; 0x20c
 8006da0:	b14b      	cbz	r3, 8006db6 <USBD_CDC_DataOut+0x2a>
 8006da2:	f8d4 32bc 	ldr.w	r3, [r4, #700]	; 0x2bc
 8006da6:	f8d5 0204 	ldr.w	r0, [r5, #516]	; 0x204
 8006daa:	68db      	ldr	r3, [r3, #12]
 8006dac:	f505 7103 	add.w	r1, r5, #524	; 0x20c
 8006db0:	4798      	blx	r3
 8006db2:	2000      	movs	r0, #0
 8006db4:	bd38      	pop	{r3, r4, r5, pc}
 8006db6:	2002      	movs	r0, #2
 8006db8:	e7fc      	b.n	8006db4 <USBD_CDC_DataOut+0x28>

08006dba <USBD_CDC_DataIn>:
 8006dba:	b5f8      	push	{r3, r4, r5, r6, r7, lr}
 8006dbc:	f8d0 62b8 	ldr.w	r6, [r0, #696]	; 0x2b8
 8006dc0:	b1d6      	cbz	r6, 8006df8 <USBD_CDC_DataIn+0x3e>
 8006dc2:	2414      	movs	r4, #20
 8006dc4:	fb04 0301 	mla	r3, r4, r1, r0
 8006dc8:	69dc      	ldr	r4, [r3, #28]
 8006dca:	f8d0 52c0 	ldr.w	r5, [r0, #704]	; 0x2c0
 8006dce:	b17c      	cbz	r4, 8006df0 <USBD_CDC_DataIn+0x36>
 8006dd0:	2728      	movs	r7, #40	; 0x28
 8006dd2:	fb07 5201 	mla	r2, r7, r1, r5
 8006dd6:	6b92      	ldr	r2, [r2, #56]	; 0x38
 8006dd8:	fbb4 f5f2 	udiv	r5, r4, r2
 8006ddc:	fb02 4415 	mls	r4, r2, r5, r4
 8006de0:	b934      	cbnz	r4, 8006df0 <USBD_CDC_DataIn+0x36>
 8006de2:	61dc      	str	r4, [r3, #28]
 8006de4:	4622      	mov	r2, r4
 8006de6:	4623      	mov	r3, r4
 8006de8:	f000 fe93 	bl	8007b12 <USBD_LL_Transmit>
 8006dec:	4620      	mov	r0, r4
 8006dee:	bdf8      	pop	{r3, r4, r5, r6, r7, pc}
 8006df0:	2000      	movs	r0, #0
 8006df2:	f8c6 0214 	str.w	r0, [r6, #532]	; 0x214
 8006df6:	e7fa      	b.n	8006dee <USBD_CDC_DataIn+0x34>
 8006df8:	2002      	movs	r0, #2
 8006dfa:	e7f8      	b.n	8006dee <USBD_CDC_DataIn+0x34>

08006dfc <USBD_CDC_Setup>:
 8006dfc:	e92d 43f7 	stmdb	sp!, {r0, r1, r2, r4, r5, r6, r7, r8, r9, lr}
 8006e00:	f04f 0800 	mov.w	r8, #0
 8006e04:	780a      	ldrb	r2, [r1, #0]
 8006e06:	4605      	mov	r5, r0
 8006e08:	f012 0460 	ands.w	r4, r2, #96	; 0x60
 8006e0c:	460e      	mov	r6, r1
 8006e0e:	f8d0 72b8 	ldr.w	r7, [r0, #696]	; 0x2b8
 8006e12:	f88d 8005 	strb.w	r8, [sp, #5]
 8006e16:	f8ad 8006 	strh.w	r8, [sp, #6]
 8006e1a:	d028      	beq.n	8006e6e <USBD_CDC_Setup+0x72>
 8006e1c:	2c20      	cmp	r4, #32
 8006e1e:	d142      	bne.n	8006ea6 <USBD_CDC_Setup+0xaa>
 8006e20:	88cc      	ldrh	r4, [r1, #6]
 8006e22:	784b      	ldrb	r3, [r1, #1]
 8006e24:	b1e4      	cbz	r4, 8006e60 <USBD_CDC_Setup+0x64>
 8006e26:	0612      	lsls	r2, r2, #24
 8006e28:	d511      	bpl.n	8006e4e <USBD_CDC_Setup+0x52>
 8006e2a:	f8d0 22bc 	ldr.w	r2, [r0, #700]	; 0x2bc
 8006e2e:	4639      	mov	r1, r7
 8006e30:	f8d2 9008 	ldr.w	r9, [r2, #8]
 8006e34:	4618      	mov	r0, r3
 8006e36:	4622      	mov	r2, r4
 8006e38:	47c8      	blx	r9
 8006e3a:	4639      	mov	r1, r7
 8006e3c:	4628      	mov	r0, r5
 8006e3e:	88f2      	ldrh	r2, [r6, #6]
 8006e40:	f000 fc47 	bl	80076d2 <USBD_CtlSendData>
 8006e44:	4644      	mov	r4, r8
 8006e46:	4620      	mov	r0, r4
 8006e48:	b003      	add	sp, #12
 8006e4a:	e8bd 83f0 	ldmia.w	sp!, {r4, r5, r6, r7, r8, r9, pc}
 8006e4e:	4622      	mov	r2, r4
 8006e50:	4639      	mov	r1, r7
 8006e52:	f887 3200 	strb.w	r3, [r7, #512]	; 0x200
 8006e56:	f887 4201 	strb.w	r4, [r7, #513]	; 0x201
 8006e5a:	f000 fc4f 	bl	80076fc <USBD_CtlPrepareRx>
 8006e5e:	e7f1      	b.n	8006e44 <USBD_CDC_Setup+0x48>
 8006e60:	f8d0 22bc 	ldr.w	r2, [r0, #700]	; 0x2bc
 8006e64:	4618      	mov	r0, r3
 8006e66:	6895      	ldr	r5, [r2, #8]
 8006e68:	4622      	mov	r2, r4
 8006e6a:	47a8      	blx	r5
 8006e6c:	e7eb      	b.n	8006e46 <USBD_CDC_Setup+0x4a>
 8006e6e:	784b      	ldrb	r3, [r1, #1]
 8006e70:	2b0a      	cmp	r3, #10
 8006e72:	d00c      	beq.n	8006e8e <USBD_CDC_Setup+0x92>
 8006e74:	2b0b      	cmp	r3, #11
 8006e76:	d012      	beq.n	8006e9e <USBD_CDC_Setup+0xa2>
 8006e78:	b9ab      	cbnz	r3, 8006ea6 <USBD_CDC_Setup+0xaa>
 8006e7a:	f890 329c 	ldrb.w	r3, [r0, #668]	; 0x29c
 8006e7e:	2b03      	cmp	r3, #3
 8006e80:	d111      	bne.n	8006ea6 <USBD_CDC_Setup+0xaa>
 8006e82:	2202      	movs	r2, #2
 8006e84:	f10d 0106 	add.w	r1, sp, #6
 8006e88:	f000 fc23 	bl	80076d2 <USBD_CtlSendData>
 8006e8c:	e7db      	b.n	8006e46 <USBD_CDC_Setup+0x4a>
 8006e8e:	f890 329c 	ldrb.w	r3, [r0, #668]	; 0x29c
 8006e92:	2b03      	cmp	r3, #3
 8006e94:	d107      	bne.n	8006ea6 <USBD_CDC_Setup+0xaa>
 8006e96:	2201      	movs	r2, #1
 8006e98:	f10d 0105 	add.w	r1, sp, #5
 8006e9c:	e7f4      	b.n	8006e88 <USBD_CDC_Setup+0x8c>
 8006e9e:	f890 329c 	ldrb.w	r3, [r0, #668]	; 0x29c
 8006ea2:	2b03      	cmp	r3, #3
 8006ea4:	d0cf      	beq.n	8006e46 <USBD_CDC_Setup+0x4a>
 8006ea6:	4631      	mov	r1, r6
 8006ea8:	4628      	mov	r0, r5
 8006eaa:	f000 fbeb 	bl	8007684 <USBD_CtlError>
 8006eae:	2402      	movs	r4, #2
 8006eb0:	e7c9      	b.n	8006e46 <USBD_CDC_Setup+0x4a>

08006eb2 <USBD_CDC_DeInit>:
 8006eb2:	b538      	push	{r3, r4, r5, lr}
 8006eb4:	4604      	mov	r4, r0
 8006eb6:	2500      	movs	r5, #0
 8006eb8:	2181      	movs	r1, #129	; 0x81
 8006eba:	f000 fdf4 	bl	8007aa6 <USBD_LL_CloseEP>
 8006ebe:	2101      	movs	r1, #1
 8006ec0:	4620      	mov	r0, r4
 8006ec2:	62e5      	str	r5, [r4, #44]	; 0x2c
 8006ec4:	f000 fdef 	bl	8007aa6 <USBD_LL_CloseEP>
 8006ec8:	2182      	movs	r1, #130	; 0x82
 8006eca:	4620      	mov	r0, r4
 8006ecc:	f8c4 516c 	str.w	r5, [r4, #364]	; 0x16c
 8006ed0:	f000 fde9 	bl	8007aa6 <USBD_LL_CloseEP>
 8006ed4:	f8d4 32b8 	ldr.w	r3, [r4, #696]	; 0x2b8
 8006ed8:	6425      	str	r5, [r4, #64]	; 0x40
 8006eda:	b14b      	cbz	r3, 8006ef0 <USBD_CDC_DeInit+0x3e>
 8006edc:	f8d4 32bc 	ldr.w	r3, [r4, #700]	; 0x2bc
 8006ee0:	685b      	ldr	r3, [r3, #4]
 8006ee2:	4798      	blx	r3
 8006ee4:	f8d4 02b8 	ldr.w	r0, [r4, #696]	; 0x2b8
 8006ee8:	f000 fe2e 	bl	8007b48 <USBD_static_free>
 8006eec:	f8c4 52b8 	str.w	r5, [r4, #696]	; 0x2b8
 8006ef0:	2000      	movs	r0, #0
 8006ef2:	bd38      	pop	{r3, r4, r5, pc}

08006ef4 <USBD_CDC_Init>:
 8006ef4:	e92d 41f0 	stmdb	sp!, {r4, r5, r6, r7, r8, lr}
 8006ef8:	7c03      	ldrb	r3, [r0, #16]
 8006efa:	4604      	mov	r4, r0
 8006efc:	bbb3      	cbnz	r3, 8006f6c <USBD_CDC_Init+0x78>
 8006efe:	f44f 7300 	mov.w	r3, #512	; 0x200
 8006f02:	2181      	movs	r1, #129	; 0x81
 8006f04:	2202      	movs	r2, #2
 8006f06:	f000 fdc2 	bl	8007a8e <USBD_LL_OpenEP>
 8006f0a:	2101      	movs	r1, #1
 8006f0c:	f44f 7300 	mov.w	r3, #512	; 0x200
 8006f10:	62e1      	str	r1, [r4, #44]	; 0x2c
 8006f12:	2601      	movs	r6, #1
 8006f14:	2202      	movs	r2, #2
 8006f16:	4620      	mov	r0, r4
 8006f18:	f000 fdb9 	bl	8007a8e <USBD_LL_OpenEP>
 8006f1c:	2308      	movs	r3, #8
 8006f1e:	2203      	movs	r2, #3
 8006f20:	2182      	movs	r1, #130	; 0x82
 8006f22:	4620      	mov	r0, r4
 8006f24:	f8c4 616c 	str.w	r6, [r4, #364]	; 0x16c
 8006f28:	f000 fdb1 	bl	8007a8e <USBD_LL_OpenEP>
 8006f2c:	f44f 7007 	mov.w	r0, #540	; 0x21c
 8006f30:	6426      	str	r6, [r4, #64]	; 0x40
 8006f32:	f000 fe05 	bl	8007b40 <USBD_static_malloc>
 8006f36:	4605      	mov	r5, r0
 8006f38:	f8c4 02b8 	str.w	r0, [r4, #696]	; 0x2b8
 8006f3c:	b340      	cbz	r0, 8006f90 <USBD_CDC_Init+0x9c>
 8006f3e:	f04f 0800 	mov.w	r8, #0
 8006f42:	f8d4 32bc 	ldr.w	r3, [r4, #700]	; 0x2bc
 8006f46:	681b      	ldr	r3, [r3, #0]
 8006f48:	4798      	blx	r3
 8006f4a:	f8c5 8214 	str.w	r8, [r5, #532]	; 0x214
 8006f4e:	f8c5 8218 	str.w	r8, [r5, #536]	; 0x218
 8006f52:	7c27      	ldrb	r7, [r4, #16]
 8006f54:	b99f      	cbnz	r7, 8006f7e <USBD_CDC_Init+0x8a>
 8006f56:	f44f 7300 	mov.w	r3, #512	; 0x200
 8006f5a:	4631      	mov	r1, r6
 8006f5c:	4620      	mov	r0, r4
 8006f5e:	f8d5 2204 	ldr.w	r2, [r5, #516]	; 0x204
 8006f62:	f000 fddf 	bl	8007b24 <USBD_LL_PrepareReceive>
 8006f66:	4638      	mov	r0, r7
 8006f68:	e8bd 81f0 	ldmia.w	sp!, {r4, r5, r6, r7, r8, pc}
 8006f6c:	2340      	movs	r3, #64	; 0x40
 8006f6e:	2181      	movs	r1, #129	; 0x81
 8006f70:	2202      	movs	r2, #2
 8006f72:	f000 fd8c 	bl	8007a8e <USBD_LL_OpenEP>
 8006f76:	2101      	movs	r1, #1
 8006f78:	2340      	movs	r3, #64	; 0x40
 8006f7a:	62e1      	str	r1, [r4, #44]	; 0x2c
 8006f7c:	e7c9      	b.n	8006f12 <USBD_CDC_Init+0x1e>
 8006f7e:	2340      	movs	r3, #64	; 0x40
 8006f80:	4631      	mov	r1, r6
 8006f82:	4620      	mov	r0, r4
 8006f84:	f8d5 2204 	ldr.w	r2, [r5, #516]	; 0x204
 8006f88:	f000 fdcc 	bl	8007b24 <USBD_LL_PrepareReceive>
 8006f8c:	4647      	mov	r7, r8
 8006f8e:	e7ea      	b.n	8006f66 <USBD_CDC_Init+0x72>
 8006f90:	4637      	mov	r7, r6
 8006f92:	e7e8      	b.n	8006f66 <USBD_CDC_Init+0x72>

08006f94 <USBD_CDC_RegisterInterface>:
 8006f94:	b119      	cbz	r1, 8006f9e <USBD_CDC_RegisterInterface+0xa>
 8006f96:	f8c0 12bc 	str.w	r1, [r0, #700]	; 0x2bc
 8006f9a:	2000      	movs	r0, #0
 8006f9c:	4770      	bx	lr
 8006f9e:	2002      	movs	r0, #2
 8006fa0:	4770      	bx	lr

08006fa2 <USBD_CDC_SetTxBuffer>:
 8006fa2:	f8d0 32b8 	ldr.w	r3, [r0, #696]	; 0x2b8
 8006fa6:	2000      	movs	r0, #0
 8006fa8:	f8c3 1208 	str.w	r1, [r3, #520]	; 0x208
 8006fac:	f8c3 2210 	str.w	r2, [r3, #528]	; 0x210
 8006fb0:	4770      	bx	lr

08006fb2 <USBD_CDC_SetRxBuffer>:
 8006fb2:	f8d0 32b8 	ldr.w	r3, [r0, #696]	; 0x2b8
 8006fb6:	2000      	movs	r0, #0
 8006fb8:	f8c3 1204 	str.w	r1, [r3, #516]	; 0x204
 8006fbc:	4770      	bx	lr

08006fbe <USBD_CDC_TransmitPacket>:
 8006fbe:	f8d0 22b8 	ldr.w	r2, [r0, #696]	; 0x2b8
 8006fc2:	b510      	push	{r4, lr}
 8006fc4:	b182      	cbz	r2, 8006fe8 <USBD_CDC_TransmitPacket+0x2a>
 8006fc6:	f8d2 4214 	ldr.w	r4, [r2, #532]	; 0x214
 8006fca:	2301      	movs	r3, #1
 8006fcc:	b974      	cbnz	r4, 8006fec <USBD_CDC_TransmitPacket+0x2e>
 8006fce:	f8c2 3214 	str.w	r3, [r2, #532]	; 0x214
 8006fd2:	f8d2 3210 	ldr.w	r3, [r2, #528]	; 0x210
 8006fd6:	2181      	movs	r1, #129	; 0x81
 8006fd8:	6303      	str	r3, [r0, #48]	; 0x30
 8006fda:	f8d2 2208 	ldr.w	r2, [r2, #520]	; 0x208
 8006fde:	b29b      	uxth	r3, r3
 8006fe0:	f000 fd97 	bl	8007b12 <USBD_LL_Transmit>
 8006fe4:	4620      	mov	r0, r4
 8006fe6:	bd10      	pop	{r4, pc}
 8006fe8:	2002      	movs	r0, #2
 8006fea:	e7fc      	b.n	8006fe6 <USBD_CDC_TransmitPacket+0x28>
 8006fec:	4618      	mov	r0, r3
 8006fee:	e7fa      	b.n	8006fe6 <USBD_CDC_TransmitPacket+0x28>

08006ff0 <USBD_CDC_ReceivePacket>:
 8006ff0:	f8d0 22b8 	ldr.w	r2, [r0, #696]	; 0x2b8
 8006ff4:	b510      	push	{r4, lr}
 8006ff6:	b182      	cbz	r2, 800701a <USBD_CDC_ReceivePacket+0x2a>
 8006ff8:	7c04      	ldrb	r4, [r0, #16]
 8006ffa:	f8d2 2204 	ldr.w	r2, [r2, #516]	; 0x204
 8006ffe:	b934      	cbnz	r4, 800700e <USBD_CDC_ReceivePacket+0x1e>
 8007000:	f44f 7300 	mov.w	r3, #512	; 0x200
 8007004:	2101      	movs	r1, #1
 8007006:	f000 fd8d 	bl	8007b24 <USBD_LL_PrepareReceive>
 800700a:	4620      	mov	r0, r4
 800700c:	bd10      	pop	{r4, pc}
 800700e:	2340      	movs	r3, #64	; 0x40
 8007010:	2101      	movs	r1, #1
 8007012:	f000 fd87 	bl	8007b24 <USBD_LL_PrepareReceive>
 8007016:	2400      	movs	r4, #0
 8007018:	e7f7      	b.n	800700a <USBD_CDC_ReceivePacket+0x1a>
 800701a:	2402      	movs	r4, #2
 800701c:	e7f5      	b.n	800700a <USBD_CDC_ReceivePacket+0x1a>

0800701e <USBD_Init>:
 800701e:	b508      	push	{r3, lr}
 8007020:	b180      	cbz	r0, 8007044 <USBD_Init+0x26>
 8007022:	f8d0 32b4 	ldr.w	r3, [r0, #692]	; 0x2b4
 8007026:	b113      	cbz	r3, 800702e <USBD_Init+0x10>
 8007028:	2300      	movs	r3, #0
 800702a:	f8c0 32b4 	str.w	r3, [r0, #692]	; 0x2b4
 800702e:	b109      	cbz	r1, 8007034 <USBD_Init+0x16>
 8007030:	f8c0 12b0 	str.w	r1, [r0, #688]	; 0x2b0
 8007034:	2301      	movs	r3, #1
 8007036:	7002      	strb	r2, [r0, #0]
 8007038:	f880 329c 	strb.w	r3, [r0, #668]	; 0x29c
 800703c:	f000 fcdc 	bl	80079f8 <USBD_LL_Init>
 8007040:	2000      	movs	r0, #0
 8007042:	bd08      	pop	{r3, pc}
 8007044:	2002      	movs	r0, #2
 8007046:	e7fc      	b.n	8007042 <USBD_Init+0x24>

08007048 <USBD_RegisterClass>:
 8007048:	b119      	cbz	r1, 8007052 <USBD_RegisterClass+0xa>
 800704a:	f8c0 12b4 	str.w	r1, [r0, #692]	; 0x2b4
 800704e:	2000      	movs	r0, #0
 8007050:	4770      	bx	lr
 8007052:	2002      	movs	r0, #2
 8007054:	4770      	bx	lr

08007056 <USBD_Start>:
 8007056:	b508      	push	{r3, lr}
 8007058:	f000 fd10 	bl	8007a7c <USBD_LL_Start>
 800705c:	2000      	movs	r0, #0
 800705e:	bd08      	pop	{r3, pc}

08007060 <USBD_SetClassConfig>:
 8007060:	b508      	push	{r3, lr}
 8007062:	f8d0 32b4 	ldr.w	r3, [r0, #692]	; 0x2b4
 8007066:	b133      	cbz	r3, 8007076 <USBD_SetClassConfig+0x16>
 8007068:	681b      	ldr	r3, [r3, #0]
 800706a:	4798      	blx	r3
 800706c:	3800      	subs	r0, #0
 800706e:	bf18      	it	ne
 8007070:	2001      	movne	r0, #1
 8007072:	0040      	lsls	r0, r0, #1
 8007074:	bd08      	pop	{r3, pc}
 8007076:	2002      	movs	r0, #2
 8007078:	e7fc      	b.n	8007074 <USBD_SetClassConfig+0x14>

0800707a <USBD_ClrClassConfig>:
 800707a:	b508      	push	{r3, lr}
 800707c:	f8d0 32b4 	ldr.w	r3, [r0, #692]	; 0x2b4
 8007080:	685b      	ldr	r3, [r3, #4]
 8007082:	4798      	blx	r3
 8007084:	2000      	movs	r0, #0
 8007086:	bd08      	pop	{r3, pc}

08007088 <USBD_LL_SetupStage>:
 8007088:	b538      	push	{r3, r4, r5, lr}
 800708a:	f500 752a 	add.w	r5, r0, #680	; 0x2a8
 800708e:	4604      	mov	r4, r0
 8007090:	4628      	mov	r0, r5
 8007092:	f000 fae3 	bl	800765c <USBD_ParseSetupRequest>
 8007096:	2301      	movs	r3, #1
 8007098:	f894 12a8 	ldrb.w	r1, [r4, #680]	; 0x2a8
 800709c:	f8c4 3294 	str.w	r3, [r4, #660]	; 0x294
 80070a0:	f8b4 32ae 	ldrh.w	r3, [r4, #686]	; 0x2ae
 80070a4:	f8c4 3298 	str.w	r3, [r4, #664]	; 0x298
 80070a8:	f001 031f 	and.w	r3, r1, #31
 80070ac:	2b01      	cmp	r3, #1
 80070ae:	d008      	beq.n	80070c2 <USBD_LL_SetupStage+0x3a>
 80070b0:	2b02      	cmp	r3, #2
 80070b2:	d00b      	beq.n	80070cc <USBD_LL_SetupStage+0x44>
 80070b4:	b97b      	cbnz	r3, 80070d6 <USBD_LL_SetupStage+0x4e>
 80070b6:	4629      	mov	r1, r5
 80070b8:	4620      	mov	r0, r4
 80070ba:	f000 f8fb 	bl	80072b4 <USBD_StdDevReq>
 80070be:	2000      	movs	r0, #0
 80070c0:	bd38      	pop	{r3, r4, r5, pc}
 80070c2:	4629      	mov	r1, r5
 80070c4:	4620      	mov	r0, r4
 80070c6:	f000 fa1d 	bl	8007504 <USBD_StdItfReq>
 80070ca:	e7f8      	b.n	80070be <USBD_LL_SetupStage+0x36>
 80070cc:	4629      	mov	r1, r5
 80070ce:	4620      	mov	r0, r4
 80070d0:	f000 fa3c 	bl	800754c <USBD_StdEPReq>
 80070d4:	e7f3      	b.n	80070be <USBD_LL_SetupStage+0x36>
 80070d6:	4620      	mov	r0, r4
 80070d8:	f001 0180 	and.w	r1, r1, #128	; 0x80
 80070dc:	f000 fcec 	bl	8007ab8 <USBD_LL_StallEP>
 80070e0:	e7ed      	b.n	80070be <USBD_LL_SetupStage+0x36>

080070e2 <USBD_LL_DataOutStage>:
 80070e2:	b5f8      	push	{r3, r4, r5, r6, r7, lr}
 80070e4:	4604      	mov	r4, r0
 80070e6:	4617      	mov	r7, r2
 80070e8:	460d      	mov	r5, r1
 80070ea:	bb39      	cbnz	r1, 800713c <USBD_LL_DataOutStage+0x5a>
 80070ec:	f8d0 3294 	ldr.w	r3, [r0, #660]	; 0x294
 80070f0:	2b03      	cmp	r3, #3
 80070f2:	d11c      	bne.n	800712e <USBD_LL_DataOutStage+0x4c>
 80070f4:	e9d0 6258 	ldrd	r6, r2, [r0, #352]	; 0x160
 80070f8:	4296      	cmp	r6, r2
 80070fa:	d90b      	bls.n	8007114 <USBD_LL_DataOutStage+0x32>
 80070fc:	1ab6      	subs	r6, r6, r2
 80070fe:	42b2      	cmp	r2, r6
 8007100:	4639      	mov	r1, r7
 8007102:	f8c0 6160 	str.w	r6, [r0, #352]	; 0x160
 8007106:	bf8c      	ite	hi
 8007108:	b2b2      	uxthhi	r2, r6
 800710a:	b292      	uxthls	r2, r2
 800710c:	f000 fb03 	bl	8007716 <USBD_CtlContinueRx>
 8007110:	4628      	mov	r0, r5
 8007112:	bdf8      	pop	{r3, r4, r5, r6, r7, pc}
 8007114:	f8d0 32b4 	ldr.w	r3, [r0, #692]	; 0x2b4
 8007118:	691b      	ldr	r3, [r3, #16]
 800711a:	b123      	cbz	r3, 8007126 <USBD_LL_DataOutStage+0x44>
 800711c:	f890 229c 	ldrb.w	r2, [r0, #668]	; 0x29c
 8007120:	2a03      	cmp	r2, #3
 8007122:	d100      	bne.n	8007126 <USBD_LL_DataOutStage+0x44>
 8007124:	4798      	blx	r3
 8007126:	4620      	mov	r0, r4
 8007128:	f000 fafd 	bl	8007726 <USBD_CtlSendStatus>
 800712c:	e7f0      	b.n	8007110 <USBD_LL_DataOutStage+0x2e>
 800712e:	2b05      	cmp	r3, #5
 8007130:	d1ee      	bne.n	8007110 <USBD_LL_DataOutStage+0x2e>
 8007132:	f8c4 1294 	str.w	r1, [r4, #660]	; 0x294
 8007136:	f000 fcbf 	bl	8007ab8 <USBD_LL_StallEP>
 800713a:	e7e9      	b.n	8007110 <USBD_LL_DataOutStage+0x2e>
 800713c:	f8d0 32b4 	ldr.w	r3, [r0, #692]	; 0x2b4
 8007140:	699b      	ldr	r3, [r3, #24]
 8007142:	b133      	cbz	r3, 8007152 <USBD_LL_DataOutStage+0x70>
 8007144:	f890 229c 	ldrb.w	r2, [r0, #668]	; 0x29c
 8007148:	2a03      	cmp	r2, #3
 800714a:	d102      	bne.n	8007152 <USBD_LL_DataOutStage+0x70>
 800714c:	4798      	blx	r3
 800714e:	2500      	movs	r5, #0
 8007150:	e7de      	b.n	8007110 <USBD_LL_DataOutStage+0x2e>
 8007152:	2502      	movs	r5, #2
 8007154:	e7dc      	b.n	8007110 <USBD_LL_DataOutStage+0x2e>

08007156 <USBD_LL_DataInStage>:
 8007156:	b5f8      	push	{r3, r4, r5, r6, r7, lr}
 8007158:	4604      	mov	r4, r0
 800715a:	4617      	mov	r7, r2
 800715c:	460d      	mov	r5, r1
 800715e:	2900      	cmp	r1, #0
 8007160:	d147      	bne.n	80071f2 <USBD_LL_DataInStage+0x9c>
 8007162:	f8d0 3294 	ldr.w	r3, [r0, #660]	; 0x294
 8007166:	2b02      	cmp	r3, #2
 8007168:	d13c      	bne.n	80071e4 <USBD_LL_DataInStage+0x8e>
 800716a:	e9d0 6308 	ldrd	r6, r3, [r0, #32]
 800716e:	429e      	cmp	r6, r3
 8007170:	d914      	bls.n	800719c <USBD_LL_DataInStage+0x46>
 8007172:	1af6      	subs	r6, r6, r3
 8007174:	4639      	mov	r1, r7
 8007176:	6206      	str	r6, [r0, #32]
 8007178:	b2b2      	uxth	r2, r6
 800717a:	f000 fab7 	bl	80076ec <USBD_CtlContinueSendData>
 800717e:	462b      	mov	r3, r5
 8007180:	462a      	mov	r2, r5
 8007182:	4629      	mov	r1, r5
 8007184:	4620      	mov	r0, r4
 8007186:	f000 fccd 	bl	8007b24 <USBD_LL_PrepareReceive>
 800718a:	f894 32a0 	ldrb.w	r3, [r4, #672]	; 0x2a0
 800718e:	2b01      	cmp	r3, #1
 8007190:	d102      	bne.n	8007198 <USBD_LL_DataInStage+0x42>
 8007192:	2300      	movs	r3, #0
 8007194:	f884 32a0 	strb.w	r3, [r4, #672]	; 0x2a0
 8007198:	4628      	mov	r0, r5
 800719a:	bdf8      	pop	{r3, r4, r5, r6, r7, pc}
 800719c:	69c2      	ldr	r2, [r0, #28]
 800719e:	fbb2 f6f3 	udiv	r6, r2, r3
 80071a2:	fb03 2616 	mls	r6, r3, r6, r2
 80071a6:	b95e      	cbnz	r6, 80071c0 <USBD_LL_DataInStage+0x6a>
 80071a8:	4293      	cmp	r3, r2
 80071aa:	d809      	bhi.n	80071c0 <USBD_LL_DataInStage+0x6a>
 80071ac:	f8d0 3298 	ldr.w	r3, [r0, #664]	; 0x298
 80071b0:	429a      	cmp	r2, r3
 80071b2:	d205      	bcs.n	80071c0 <USBD_LL_DataInStage+0x6a>
 80071b4:	460a      	mov	r2, r1
 80071b6:	f000 fa99 	bl	80076ec <USBD_CtlContinueSendData>
 80071ba:	f8c4 5298 	str.w	r5, [r4, #664]	; 0x298
 80071be:	e7de      	b.n	800717e <USBD_LL_DataInStage+0x28>
 80071c0:	f8d4 32b4 	ldr.w	r3, [r4, #692]	; 0x2b4
 80071c4:	68db      	ldr	r3, [r3, #12]
 80071c6:	b12b      	cbz	r3, 80071d4 <USBD_LL_DataInStage+0x7e>
 80071c8:	f894 229c 	ldrb.w	r2, [r4, #668]	; 0x29c
 80071cc:	2a03      	cmp	r2, #3
 80071ce:	d101      	bne.n	80071d4 <USBD_LL_DataInStage+0x7e>
 80071d0:	4620      	mov	r0, r4
 80071d2:	4798      	blx	r3
 80071d4:	2180      	movs	r1, #128	; 0x80
 80071d6:	4620      	mov	r0, r4
 80071d8:	f000 fc6e 	bl	8007ab8 <USBD_LL_StallEP>
 80071dc:	4620      	mov	r0, r4
 80071de:	f000 faad 	bl	800773c <USBD_CtlReceiveStatus>
 80071e2:	e7d2      	b.n	800718a <USBD_LL_DataInStage+0x34>
 80071e4:	f033 0304 	bics.w	r3, r3, #4
 80071e8:	d1cf      	bne.n	800718a <USBD_LL_DataInStage+0x34>
 80071ea:	2180      	movs	r1, #128	; 0x80
 80071ec:	f000 fc64 	bl	8007ab8 <USBD_LL_StallEP>
 80071f0:	e7cb      	b.n	800718a <USBD_LL_DataInStage+0x34>
 80071f2:	f8d0 32b4 	ldr.w	r3, [r0, #692]	; 0x2b4
 80071f6:	695b      	ldr	r3, [r3, #20]
 80071f8:	b133      	cbz	r3, 8007208 <USBD_LL_DataInStage+0xb2>
 80071fa:	f890 229c 	ldrb.w	r2, [r0, #668]	; 0x29c
 80071fe:	2a03      	cmp	r2, #3
 8007200:	d102      	bne.n	8007208 <USBD_LL_DataInStage+0xb2>
 8007202:	4798      	blx	r3
 8007204:	2500      	movs	r5, #0
 8007206:	e7c7      	b.n	8007198 <USBD_LL_DataInStage+0x42>
 8007208:	2502      	movs	r5, #2
 800720a:	e7c5      	b.n	8007198 <USBD_LL_DataInStage+0x42>

0800720c <USBD_LL_Reset>:
 800720c:	2200      	movs	r2, #0
 800720e:	b570      	push	{r4, r5, r6, lr}
 8007210:	4604      	mov	r4, r0
 8007212:	2501      	movs	r5, #1
 8007214:	2640      	movs	r6, #64	; 0x40
 8007216:	4611      	mov	r1, r2
 8007218:	2340      	movs	r3, #64	; 0x40
 800721a:	f000 fc38 	bl	8007a8e <USBD_LL_OpenEP>
 800721e:	4633      	mov	r3, r6
 8007220:	2180      	movs	r1, #128	; 0x80
 8007222:	2200      	movs	r2, #0
 8007224:	4620      	mov	r0, r4
 8007226:	f8c4 5158 	str.w	r5, [r4, #344]	; 0x158
 800722a:	f8c4 6164 	str.w	r6, [r4, #356]	; 0x164
 800722e:	f000 fc2e 	bl	8007a8e <USBD_LL_OpenEP>
 8007232:	2100      	movs	r1, #0
 8007234:	f8d4 32b8 	ldr.w	r3, [r4, #696]	; 0x2b8
 8007238:	61a5      	str	r5, [r4, #24]
 800723a:	6266      	str	r6, [r4, #36]	; 0x24
 800723c:	f884 529c 	strb.w	r5, [r4, #668]	; 0x29c
 8007240:	f8c4 1294 	str.w	r1, [r4, #660]	; 0x294
 8007244:	6061      	str	r1, [r4, #4]
 8007246:	f8c4 12a4 	str.w	r1, [r4, #676]	; 0x2a4
 800724a:	b123      	cbz	r3, 8007256 <USBD_LL_Reset+0x4a>
 800724c:	f8d4 32b4 	ldr.w	r3, [r4, #692]	; 0x2b4
 8007250:	4620      	mov	r0, r4
 8007252:	685b      	ldr	r3, [r3, #4]
 8007254:	4798      	blx	r3
 8007256:	2000      	movs	r0, #0
 8007258:	bd70      	pop	{r4, r5, r6, pc}

0800725a <USBD_LL_SetSpeed>:
 800725a:	7401      	strb	r1, [r0, #16]
 800725c:	2000      	movs	r0, #0
 800725e:	4770      	bx	lr

08007260 <USBD_LL_Suspend>:
 8007260:	f890 329c 	ldrb.w	r3, [r0, #668]	; 0x29c
 8007264:	f880 329d 	strb.w	r3, [r0, #669]	; 0x29d
 8007268:	2304      	movs	r3, #4
 800726a:	f880 329c 	strb.w	r3, [r0, #668]	; 0x29c
 800726e:	2000      	movs	r0, #0
 8007270:	4770      	bx	lr

08007272 <USBD_LL_Resume>:
 8007272:	f890 329c 	ldrb.w	r3, [r0, #668]	; 0x29c
 8007276:	2b04      	cmp	r3, #4
 8007278:	bf04      	itt	eq
 800727a:	f890 329d 	ldrbeq.w	r3, [r0, #669]	; 0x29d
 800727e:	f880 329c 	strbeq.w	r3, [r0, #668]	; 0x29c
 8007282:	2000      	movs	r0, #0
 8007284:	4770      	bx	lr

08007286 <USBD_LL_SOF>:
 8007286:	b508      	push	{r3, lr}
 8007288:	f890 229c 	ldrb.w	r2, [r0, #668]	; 0x29c
 800728c:	2a03      	cmp	r2, #3
 800728e:	d104      	bne.n	800729a <USBD_LL_SOF+0x14>
 8007290:	f8d0 32b4 	ldr.w	r3, [r0, #692]	; 0x2b4
 8007294:	69db      	ldr	r3, [r3, #28]
 8007296:	b103      	cbz	r3, 800729a <USBD_LL_SOF+0x14>
 8007298:	4798      	blx	r3
 800729a:	2000      	movs	r0, #0
 800729c:	bd08      	pop	{r3, pc}

0800729e <USBD_CtlError.constprop.0>:
 800729e:	b510      	push	{r4, lr}
 80072a0:	4604      	mov	r4, r0
 80072a2:	2180      	movs	r1, #128	; 0x80
 80072a4:	f000 fc08 	bl	8007ab8 <USBD_LL_StallEP>
 80072a8:	4620      	mov	r0, r4
 80072aa:	e8bd 4010 	ldmia.w	sp!, {r4, lr}
 80072ae:	2100      	movs	r1, #0
 80072b0:	f000 bc02 	b.w	8007ab8 <USBD_LL_StallEP>

080072b4 <USBD_StdDevReq>:
 80072b4:	b537      	push	{r0, r1, r2, r4, r5, lr}
 80072b6:	780b      	ldrb	r3, [r1, #0]
 80072b8:	4604      	mov	r4, r0
 80072ba:	f003 0360 	and.w	r3, r3, #96	; 0x60
 80072be:	2b20      	cmp	r3, #32
 80072c0:	460d      	mov	r5, r1
 80072c2:	d012      	beq.n	80072ea <USBD_StdDevReq+0x36>
 80072c4:	2b40      	cmp	r3, #64	; 0x40
 80072c6:	d010      	beq.n	80072ea <USBD_StdDevReq+0x36>
 80072c8:	2b00      	cmp	r3, #0
 80072ca:	d151      	bne.n	8007370 <USBD_StdDevReq+0xbc>
 80072cc:	784b      	ldrb	r3, [r1, #1]
 80072ce:	2b09      	cmp	r3, #9
 80072d0:	d84e      	bhi.n	8007370 <USBD_StdDevReq+0xbc>
 80072d2:	e8df f013 	tbh	[pc, r3, lsl #1]
 80072d6:	00ee      	.short	0x00ee
 80072d8:	004d0109 	.word	0x004d0109
 80072dc:	004d0102 	.word	0x004d0102
 80072e0:	00130087 	.word	0x00130087
 80072e4:	00d6004d 	.word	0x00d6004d
 80072e8:	00a3      	.short	0x00a3
 80072ea:	f8d4 32b4 	ldr.w	r3, [r4, #692]	; 0x2b4
 80072ee:	4629      	mov	r1, r5
 80072f0:	4620      	mov	r0, r4
 80072f2:	689b      	ldr	r3, [r3, #8]
 80072f4:	4798      	blx	r3
 80072f6:	2000      	movs	r0, #0
 80072f8:	b003      	add	sp, #12
 80072fa:	bd30      	pop	{r4, r5, pc}
 80072fc:	2300      	movs	r3, #0
 80072fe:	f8ad 3006 	strh.w	r3, [sp, #6]
 8007302:	884b      	ldrh	r3, [r1, #2]
 8007304:	0a1a      	lsrs	r2, r3, #8
 8007306:	3a01      	subs	r2, #1
 8007308:	2a06      	cmp	r2, #6
 800730a:	d831      	bhi.n	8007370 <USBD_StdDevReq+0xbc>
 800730c:	e8df f002 	tbb	[pc, r2]
 8007310:	30231604 	.word	0x30231604
 8007314:	4830      	.short	0x4830
 8007316:	52          	.byte	0x52
 8007317:	00          	.byte	0x00
 8007318:	f8d0 32b0 	ldr.w	r3, [r0, #688]	; 0x2b0
 800731c:	681b      	ldr	r3, [r3, #0]
 800731e:	7c20      	ldrb	r0, [r4, #16]
 8007320:	f10d 0106 	add.w	r1, sp, #6
 8007324:	4798      	blx	r3
 8007326:	f8bd 2006 	ldrh.w	r2, [sp, #6]
 800732a:	88eb      	ldrh	r3, [r5, #6]
 800732c:	2a00      	cmp	r2, #0
 800732e:	d055      	beq.n	80073dc <USBD_StdDevReq+0x128>
 8007330:	2b00      	cmp	r3, #0
 8007332:	d14a      	bne.n	80073ca <USBD_StdDevReq+0x116>
 8007334:	4620      	mov	r0, r4
 8007336:	f000 f9f6 	bl	8007726 <USBD_CtlSendStatus>
 800733a:	e7dc      	b.n	80072f6 <USBD_StdDevReq+0x42>
 800733c:	7c02      	ldrb	r2, [r0, #16]
 800733e:	f8d0 32b4 	ldr.w	r3, [r0, #692]	; 0x2b4
 8007342:	b932      	cbnz	r2, 8007352 <USBD_StdDevReq+0x9e>
 8007344:	6a9b      	ldr	r3, [r3, #40]	; 0x28
 8007346:	f10d 0006 	add.w	r0, sp, #6
 800734a:	4798      	blx	r3
 800734c:	2302      	movs	r3, #2
 800734e:	7043      	strb	r3, [r0, #1]
 8007350:	e7e9      	b.n	8007326 <USBD_StdDevReq+0x72>
 8007352:	6adb      	ldr	r3, [r3, #44]	; 0x2c
 8007354:	e7f7      	b.n	8007346 <USBD_StdDevReq+0x92>
 8007356:	b2db      	uxtb	r3, r3
 8007358:	2b05      	cmp	r3, #5
 800735a:	d809      	bhi.n	8007370 <USBD_StdDevReq+0xbc>
 800735c:	e8df f003 	tbb	[pc, r3]
 8007360:	14100c03 	.word	0x14100c03
 8007364:	1c18      	.short	0x1c18
 8007366:	f8d0 32b0 	ldr.w	r3, [r0, #688]	; 0x2b0
 800736a:	685b      	ldr	r3, [r3, #4]
 800736c:	2b00      	cmp	r3, #0
 800736e:	d1d6      	bne.n	800731e <USBD_StdDevReq+0x6a>
 8007370:	4620      	mov	r0, r4
 8007372:	f7ff ff94 	bl	800729e <USBD_CtlError.constprop.0>
 8007376:	e7be      	b.n	80072f6 <USBD_StdDevReq+0x42>
 8007378:	f8d0 32b0 	ldr.w	r3, [r0, #688]	; 0x2b0
 800737c:	689b      	ldr	r3, [r3, #8]
 800737e:	e7f5      	b.n	800736c <USBD_StdDevReq+0xb8>
 8007380:	f8d0 32b0 	ldr.w	r3, [r0, #688]	; 0x2b0
 8007384:	68db      	ldr	r3, [r3, #12]
 8007386:	e7f1      	b.n	800736c <USBD_StdDevReq+0xb8>
 8007388:	f8d0 32b0 	ldr.w	r3, [r0, #688]	; 0x2b0
 800738c:	691b      	ldr	r3, [r3, #16]
 800738e:	e7ed      	b.n	800736c <USBD_StdDevReq+0xb8>
 8007390:	f8d0 32b0 	ldr.w	r3, [r0, #688]	; 0x2b0
 8007394:	695b      	ldr	r3, [r3, #20]
 8007396:	e7e9      	b.n	800736c <USBD_StdDevReq+0xb8>
 8007398:	f8d0 32b0 	ldr.w	r3, [r0, #688]	; 0x2b0
 800739c:	699b      	ldr	r3, [r3, #24]
 800739e:	e7e5      	b.n	800736c <USBD_StdDevReq+0xb8>
 80073a0:	7c03      	ldrb	r3, [r0, #16]
 80073a2:	2b00      	cmp	r3, #0
 80073a4:	d1e4      	bne.n	8007370 <USBD_StdDevReq+0xbc>
 80073a6:	f8d0 32b4 	ldr.w	r3, [r0, #692]	; 0x2b4
 80073aa:	f10d 0006 	add.w	r0, sp, #6
 80073ae:	6b5b      	ldr	r3, [r3, #52]	; 0x34
 80073b0:	4798      	blx	r3
 80073b2:	e7b8      	b.n	8007326 <USBD_StdDevReq+0x72>
 80073b4:	7c03      	ldrb	r3, [r0, #16]
 80073b6:	2b00      	cmp	r3, #0
 80073b8:	d1da      	bne.n	8007370 <USBD_StdDevReq+0xbc>
 80073ba:	f8d0 32b4 	ldr.w	r3, [r0, #692]	; 0x2b4
 80073be:	f10d 0006 	add.w	r0, sp, #6
 80073c2:	6b1b      	ldr	r3, [r3, #48]	; 0x30
 80073c4:	4798      	blx	r3
 80073c6:	2307      	movs	r3, #7
 80073c8:	e7c1      	b.n	800734e <USBD_StdDevReq+0x9a>
 80073ca:	429a      	cmp	r2, r3
 80073cc:	bf28      	it	cs
 80073ce:	461a      	movcs	r2, r3
 80073d0:	4601      	mov	r1, r0
 80073d2:	4620      	mov	r0, r4
 80073d4:	f8ad 2006 	strh.w	r2, [sp, #6]
 80073d8:	f000 f97b 	bl	80076d2 <USBD_CtlSendData>
 80073dc:	88eb      	ldrh	r3, [r5, #6]
 80073de:	2b00      	cmp	r3, #0
 80073e0:	d189      	bne.n	80072f6 <USBD_StdDevReq+0x42>
 80073e2:	e7a7      	b.n	8007334 <USBD_StdDevReq+0x80>
 80073e4:	888b      	ldrh	r3, [r1, #4]
 80073e6:	2b00      	cmp	r3, #0
 80073e8:	d1c2      	bne.n	8007370 <USBD_StdDevReq+0xbc>
 80073ea:	88cb      	ldrh	r3, [r1, #6]
 80073ec:	2b00      	cmp	r3, #0
 80073ee:	d1bf      	bne.n	8007370 <USBD_StdDevReq+0xbc>
 80073f0:	884d      	ldrh	r5, [r1, #2]
 80073f2:	2d7f      	cmp	r5, #127	; 0x7f
 80073f4:	d8bc      	bhi.n	8007370 <USBD_StdDevReq+0xbc>
 80073f6:	f890 329c 	ldrb.w	r3, [r0, #668]	; 0x29c
 80073fa:	2b03      	cmp	r3, #3
 80073fc:	d0b8      	beq.n	8007370 <USBD_StdDevReq+0xbc>
 80073fe:	b2e9      	uxtb	r1, r5
 8007400:	f880 129e 	strb.w	r1, [r0, #670]	; 0x29e
 8007404:	f000 fb7c 	bl	8007b00 <USBD_LL_SetUSBAddress>
 8007408:	4620      	mov	r0, r4
 800740a:	f000 f98c 	bl	8007726 <USBD_CtlSendStatus>
 800740e:	b11d      	cbz	r5, 8007418 <USBD_StdDevReq+0x164>
 8007410:	2302      	movs	r3, #2
 8007412:	f884 329c 	strb.w	r3, [r4, #668]	; 0x29c
 8007416:	e76e      	b.n	80072f6 <USBD_StdDevReq+0x42>
 8007418:	2301      	movs	r3, #1
 800741a:	e7fa      	b.n	8007412 <USBD_StdDevReq+0x15e>
 800741c:	7889      	ldrb	r1, [r1, #2]
 800741e:	4d38      	ldr	r5, [pc, #224]	; (8007500 <USBD_StdDevReq+0x24c>)
 8007420:	2901      	cmp	r1, #1
 8007422:	7029      	strb	r1, [r5, #0]
 8007424:	d8a4      	bhi.n	8007370 <USBD_StdDevReq+0xbc>
 8007426:	f890 329c 	ldrb.w	r3, [r0, #668]	; 0x29c
 800742a:	2b02      	cmp	r3, #2
 800742c:	d008      	beq.n	8007440 <USBD_StdDevReq+0x18c>
 800742e:	2b03      	cmp	r3, #3
 8007430:	d015      	beq.n	800745e <USBD_StdDevReq+0x1aa>
 8007432:	f7ff ff34 	bl	800729e <USBD_CtlError.constprop.0>
 8007436:	4620      	mov	r0, r4
 8007438:	7829      	ldrb	r1, [r5, #0]
 800743a:	f7ff fe1e 	bl	800707a <USBD_ClrClassConfig>
 800743e:	e75a      	b.n	80072f6 <USBD_StdDevReq+0x42>
 8007440:	2900      	cmp	r1, #0
 8007442:	f43f af77 	beq.w	8007334 <USBD_StdDevReq+0x80>
 8007446:	2101      	movs	r1, #1
 8007448:	2303      	movs	r3, #3
 800744a:	6041      	str	r1, [r0, #4]
 800744c:	f880 329c 	strb.w	r3, [r0, #668]	; 0x29c
 8007450:	4620      	mov	r0, r4
 8007452:	f7ff fe05 	bl	8007060 <USBD_SetClassConfig>
 8007456:	2802      	cmp	r0, #2
 8007458:	f47f af6c 	bne.w	8007334 <USBD_StdDevReq+0x80>
 800745c:	e788      	b.n	8007370 <USBD_StdDevReq+0xbc>
 800745e:	b931      	cbnz	r1, 800746e <USBD_StdDevReq+0x1ba>
 8007460:	2302      	movs	r3, #2
 8007462:	6041      	str	r1, [r0, #4]
 8007464:	f880 329c 	strb.w	r3, [r0, #668]	; 0x29c
 8007468:	f7ff fe07 	bl	800707a <USBD_ClrClassConfig>
 800746c:	e762      	b.n	8007334 <USBD_StdDevReq+0x80>
 800746e:	6841      	ldr	r1, [r0, #4]
 8007470:	2901      	cmp	r1, #1
 8007472:	f43f af5f 	beq.w	8007334 <USBD_StdDevReq+0x80>
 8007476:	b2c9      	uxtb	r1, r1
 8007478:	f7ff fdff 	bl	800707a <USBD_ClrClassConfig>
 800747c:	7829      	ldrb	r1, [r5, #0]
 800747e:	6061      	str	r1, [r4, #4]
 8007480:	e7e6      	b.n	8007450 <USBD_StdDevReq+0x19c>
 8007482:	88ca      	ldrh	r2, [r1, #6]
 8007484:	2a01      	cmp	r2, #1
 8007486:	f47f af73 	bne.w	8007370 <USBD_StdDevReq+0xbc>
 800748a:	f890 329c 	ldrb.w	r3, [r0, #668]	; 0x29c
 800748e:	2b02      	cmp	r3, #2
 8007490:	d80a      	bhi.n	80074a8 <USBD_StdDevReq+0x1f4>
 8007492:	2b00      	cmp	r3, #0
 8007494:	f43f af6c 	beq.w	8007370 <USBD_StdDevReq+0xbc>
 8007498:	4601      	mov	r1, r0
 800749a:	2300      	movs	r3, #0
 800749c:	f841 3f08 	str.w	r3, [r1, #8]!
 80074a0:	4620      	mov	r0, r4
 80074a2:	f000 f916 	bl	80076d2 <USBD_CtlSendData>
 80074a6:	e726      	b.n	80072f6 <USBD_StdDevReq+0x42>
 80074a8:	2b03      	cmp	r3, #3
 80074aa:	f47f af61 	bne.w	8007370 <USBD_StdDevReq+0xbc>
 80074ae:	1d01      	adds	r1, r0, #4
 80074b0:	e7f6      	b.n	80074a0 <USBD_StdDevReq+0x1ec>
 80074b2:	f890 329c 	ldrb.w	r3, [r0, #668]	; 0x29c
 80074b6:	3b01      	subs	r3, #1
 80074b8:	2b02      	cmp	r3, #2
 80074ba:	f63f af59 	bhi.w	8007370 <USBD_StdDevReq+0xbc>
 80074be:	88ca      	ldrh	r2, [r1, #6]
 80074c0:	2a02      	cmp	r2, #2
 80074c2:	f47f af55 	bne.w	8007370 <USBD_StdDevReq+0xbc>
 80074c6:	f8d0 32a4 	ldr.w	r3, [r0, #676]	; 0x2a4
 80074ca:	4601      	mov	r1, r0
 80074cc:	2b00      	cmp	r3, #0
 80074ce:	bf14      	ite	ne
 80074d0:	2303      	movne	r3, #3
 80074d2:	2301      	moveq	r3, #1
 80074d4:	f841 3f0c 	str.w	r3, [r1, #12]!
 80074d8:	e7e2      	b.n	80074a0 <USBD_StdDevReq+0x1ec>
 80074da:	884b      	ldrh	r3, [r1, #2]
 80074dc:	2b01      	cmp	r3, #1
 80074de:	f47f af0a 	bne.w	80072f6 <USBD_StdDevReq+0x42>
 80074e2:	f8c4 32a4 	str.w	r3, [r4, #676]	; 0x2a4
 80074e6:	e725      	b.n	8007334 <USBD_StdDevReq+0x80>
 80074e8:	f890 329c 	ldrb.w	r3, [r0, #668]	; 0x29c
 80074ec:	3b01      	subs	r3, #1
 80074ee:	2b02      	cmp	r3, #2
 80074f0:	f63f af3e 	bhi.w	8007370 <USBD_StdDevReq+0xbc>
 80074f4:	884b      	ldrh	r3, [r1, #2]
 80074f6:	2b01      	cmp	r3, #1
 80074f8:	f47f aefd 	bne.w	80072f6 <USBD_StdDevReq+0x42>
 80074fc:	2300      	movs	r3, #0
 80074fe:	e7f0      	b.n	80074e2 <USBD_StdDevReq+0x22e>
 8007500:	200011ec 	.word	0x200011ec

08007504 <USBD_StdItfReq>:
 8007504:	b538      	push	{r3, r4, r5, lr}
 8007506:	780b      	ldrb	r3, [r1, #0]
 8007508:	4604      	mov	r4, r0
 800750a:	f003 0260 	and.w	r2, r3, #96	; 0x60
 800750e:	2a40      	cmp	r2, #64	; 0x40
 8007510:	460d      	mov	r5, r1
 8007512:	d001      	beq.n	8007518 <USBD_StdItfReq+0x14>
 8007514:	065b      	lsls	r3, r3, #25
 8007516:	d415      	bmi.n	8007544 <USBD_StdItfReq+0x40>
 8007518:	f894 329c 	ldrb.w	r3, [r4, #668]	; 0x29c
 800751c:	3b01      	subs	r3, #1
 800751e:	2b02      	cmp	r3, #2
 8007520:	d810      	bhi.n	8007544 <USBD_StdItfReq+0x40>
 8007522:	792b      	ldrb	r3, [r5, #4]
 8007524:	2b01      	cmp	r3, #1
 8007526:	d80d      	bhi.n	8007544 <USBD_StdItfReq+0x40>
 8007528:	f8d4 32b4 	ldr.w	r3, [r4, #692]	; 0x2b4
 800752c:	4629      	mov	r1, r5
 800752e:	689b      	ldr	r3, [r3, #8]
 8007530:	4620      	mov	r0, r4
 8007532:	4798      	blx	r3
 8007534:	88eb      	ldrh	r3, [r5, #6]
 8007536:	b91b      	cbnz	r3, 8007540 <USBD_StdItfReq+0x3c>
 8007538:	b910      	cbnz	r0, 8007540 <USBD_StdItfReq+0x3c>
 800753a:	4620      	mov	r0, r4
 800753c:	f000 f8f3 	bl	8007726 <USBD_CtlSendStatus>
 8007540:	2000      	movs	r0, #0
 8007542:	bd38      	pop	{r3, r4, r5, pc}
 8007544:	4620      	mov	r0, r4
 8007546:	f7ff feaa 	bl	800729e <USBD_CtlError.constprop.0>
 800754a:	e7f9      	b.n	8007540 <USBD_StdItfReq+0x3c>

0800754c <USBD_StdEPReq>:
 800754c:	b538      	push	{r3, r4, r5, lr}
 800754e:	780a      	ldrb	r2, [r1, #0]
 8007550:	4604      	mov	r4, r0
 8007552:	f002 0260 	and.w	r2, r2, #96	; 0x60
 8007556:	2a20      	cmp	r2, #32
 8007558:	460b      	mov	r3, r1
 800755a:	888d      	ldrh	r5, [r1, #4]
 800755c:	d02c      	beq.n	80075b8 <USBD_StdEPReq+0x6c>
 800755e:	2a40      	cmp	r2, #64	; 0x40
 8007560:	d02a      	beq.n	80075b8 <USBD_StdEPReq+0x6c>
 8007562:	bbba      	cbnz	r2, 80075d4 <USBD_StdEPReq+0x88>
 8007564:	785a      	ldrb	r2, [r3, #1]
 8007566:	b2e9      	uxtb	r1, r5
 8007568:	2a01      	cmp	r2, #1
 800756a:	d043      	beq.n	80075f4 <USBD_StdEPReq+0xa8>
 800756c:	2a03      	cmp	r2, #3
 800756e:	d02b      	beq.n	80075c8 <USBD_StdEPReq+0x7c>
 8007570:	bb82      	cbnz	r2, 80075d4 <USBD_StdEPReq+0x88>
 8007572:	f890 329c 	ldrb.w	r3, [r0, #668]	; 0x29c
 8007576:	2b02      	cmp	r3, #2
 8007578:	d053      	beq.n	8007622 <USBD_StdEPReq+0xd6>
 800757a:	2b03      	cmp	r3, #3
 800757c:	d12a      	bne.n	80075d4 <USBD_StdEPReq+0x88>
 800757e:	2214      	movs	r2, #20
 8007580:	f001 030f 	and.w	r3, r1, #15
 8007584:	f015 0f80 	tst.w	r5, #128	; 0x80
 8007588:	fb02 0303 	mla	r3, r2, r3, r0
 800758c:	d05a      	beq.n	8007644 <USBD_StdEPReq+0xf8>
 800758e:	699b      	ldr	r3, [r3, #24]
 8007590:	b303      	cbz	r3, 80075d4 <USBD_StdEPReq+0x88>
 8007592:	2514      	movs	r5, #20
 8007594:	f001 037f 	and.w	r3, r1, #127	; 0x7f
 8007598:	fb03 5505 	mla	r5, r3, r5, r5
 800759c:	4405      	add	r5, r0
 800759e:	f011 007f 	ands.w	r0, r1, #127	; 0x7f
 80075a2:	d005      	beq.n	80075b0 <USBD_StdEPReq+0x64>
 80075a4:	4620      	mov	r0, r4
 80075a6:	f000 fa99 	bl	8007adc <USBD_LL_IsStallEP>
 80075aa:	3800      	subs	r0, #0
 80075ac:	bf18      	it	ne
 80075ae:	2001      	movne	r0, #1
 80075b0:	2202      	movs	r2, #2
 80075b2:	4629      	mov	r1, r5
 80075b4:	6028      	str	r0, [r5, #0]
 80075b6:	e041      	b.n	800763c <USBD_StdEPReq+0xf0>
 80075b8:	f8d4 22b4 	ldr.w	r2, [r4, #692]	; 0x2b4
 80075bc:	4619      	mov	r1, r3
 80075be:	4620      	mov	r0, r4
 80075c0:	6892      	ldr	r2, [r2, #8]
 80075c2:	4790      	blx	r2
 80075c4:	2000      	movs	r0, #0
 80075c6:	bd38      	pop	{r3, r4, r5, pc}
 80075c8:	f890 229c 	ldrb.w	r2, [r0, #668]	; 0x29c
 80075cc:	2a02      	cmp	r2, #2
 80075ce:	d01f      	beq.n	8007610 <USBD_StdEPReq+0xc4>
 80075d0:	2a03      	cmp	r2, #3
 80075d2:	d003      	beq.n	80075dc <USBD_StdEPReq+0x90>
 80075d4:	4620      	mov	r0, r4
 80075d6:	f7ff fe62 	bl	800729e <USBD_CtlError.constprop.0>
 80075da:	e7f3      	b.n	80075c4 <USBD_StdEPReq+0x78>
 80075dc:	885a      	ldrh	r2, [r3, #2]
 80075de:	b92a      	cbnz	r2, 80075ec <USBD_StdEPReq+0xa0>
 80075e0:	064a      	lsls	r2, r1, #25
 80075e2:	d003      	beq.n	80075ec <USBD_StdEPReq+0xa0>
 80075e4:	88db      	ldrh	r3, [r3, #6]
 80075e6:	b90b      	cbnz	r3, 80075ec <USBD_StdEPReq+0xa0>
 80075e8:	f000 fa66 	bl	8007ab8 <USBD_LL_StallEP>
 80075ec:	4620      	mov	r0, r4
 80075ee:	f000 f89a 	bl	8007726 <USBD_CtlSendStatus>
 80075f2:	e7e7      	b.n	80075c4 <USBD_StdEPReq+0x78>
 80075f4:	f890 229c 	ldrb.w	r2, [r0, #668]	; 0x29c
 80075f8:	2a02      	cmp	r2, #2
 80075fa:	d009      	beq.n	8007610 <USBD_StdEPReq+0xc4>
 80075fc:	2a03      	cmp	r2, #3
 80075fe:	d1e9      	bne.n	80075d4 <USBD_StdEPReq+0x88>
 8007600:	885b      	ldrh	r3, [r3, #2]
 8007602:	2b00      	cmp	r3, #0
 8007604:	d1de      	bne.n	80075c4 <USBD_StdEPReq+0x78>
 8007606:	064d      	lsls	r5, r1, #25
 8007608:	d0f0      	beq.n	80075ec <USBD_StdEPReq+0xa0>
 800760a:	f000 fa5e 	bl	8007aca <USBD_LL_ClearStallEP>
 800760e:	e7ed      	b.n	80075ec <USBD_StdEPReq+0xa0>
 8007610:	064b      	lsls	r3, r1, #25
 8007612:	d0df      	beq.n	80075d4 <USBD_StdEPReq+0x88>
 8007614:	f000 fa50 	bl	8007ab8 <USBD_LL_StallEP>
 8007618:	2180      	movs	r1, #128	; 0x80
 800761a:	4620      	mov	r0, r4
 800761c:	f000 fa4c 	bl	8007ab8 <USBD_LL_StallEP>
 8007620:	e7d0      	b.n	80075c4 <USBD_StdEPReq+0x78>
 8007622:	064a      	lsls	r2, r1, #25
 8007624:	d1d6      	bne.n	80075d4 <USBD_StdEPReq+0x88>
 8007626:	062b      	lsls	r3, r5, #24
 8007628:	f04f 0300 	mov.w	r3, #0
 800762c:	f04f 0202 	mov.w	r2, #2
 8007630:	bf4c      	ite	mi
 8007632:	f100 0114 	addmi.w	r1, r0, #20
 8007636:	f500 71aa 	addpl.w	r1, r0, #340	; 0x154
 800763a:	600b      	str	r3, [r1, #0]
 800763c:	4620      	mov	r0, r4
 800763e:	f000 f848 	bl	80076d2 <USBD_CtlSendData>
 8007642:	e7bf      	b.n	80075c4 <USBD_StdEPReq+0x78>
 8007644:	f8d3 3158 	ldr.w	r3, [r3, #344]	; 0x158
 8007648:	2b00      	cmp	r3, #0
 800764a:	d0c3      	beq.n	80075d4 <USBD_StdEPReq+0x88>
 800764c:	2314      	movs	r3, #20
 800764e:	f001 057f 	and.w	r5, r1, #127	; 0x7f
 8007652:	fb03 0505 	mla	r5, r3, r5, r0
 8007656:	f505 75aa 	add.w	r5, r5, #340	; 0x154
 800765a:	e7a0      	b.n	800759e <USBD_StdEPReq+0x52>

0800765c <USBD_ParseSetupRequest>:
 800765c:	780b      	ldrb	r3, [r1, #0]
 800765e:	7003      	strb	r3, [r0, #0]
 8007660:	784b      	ldrb	r3, [r1, #1]
 8007662:	7043      	strb	r3, [r0, #1]
 8007664:	78ca      	ldrb	r2, [r1, #3]
 8007666:	788b      	ldrb	r3, [r1, #2]
 8007668:	eb03 2302 	add.w	r3, r3, r2, lsl #8
 800766c:	8043      	strh	r3, [r0, #2]
 800766e:	794a      	ldrb	r2, [r1, #5]
 8007670:	790b      	ldrb	r3, [r1, #4]
 8007672:	eb03 2302 	add.w	r3, r3, r2, lsl #8
 8007676:	8083      	strh	r3, [r0, #4]
 8007678:	79ca      	ldrb	r2, [r1, #7]
 800767a:	798b      	ldrb	r3, [r1, #6]
 800767c:	eb03 2302 	add.w	r3, r3, r2, lsl #8
 8007680:	80c3      	strh	r3, [r0, #6]
 8007682:	4770      	bx	lr

08007684 <USBD_CtlError>:
 8007684:	b510      	push	{r4, lr}
 8007686:	4604      	mov	r4, r0
 8007688:	2180      	movs	r1, #128	; 0x80
 800768a:	f000 fa15 	bl	8007ab8 <USBD_LL_StallEP>
 800768e:	4620      	mov	r0, r4
 8007690:	e8bd 4010 	ldmia.w	sp!, {r4, lr}
 8007694:	2100      	movs	r1, #0
 8007696:	f000 ba0f 	b.w	8007ab8 <USBD_LL_StallEP>

0800769a <USBD_GetString>:
 800769a:	b530      	push	{r4, r5, lr}
 800769c:	b188      	cbz	r0, 80076c2 <USBD_GetString+0x28>
 800769e:	2400      	movs	r4, #0
 80076a0:	3801      	subs	r0, #1
 80076a2:	4623      	mov	r3, r4
 80076a4:	3401      	adds	r4, #1
 80076a6:	5d05      	ldrb	r5, [r0, r4]
 80076a8:	2d00      	cmp	r5, #0
 80076aa:	d1fa      	bne.n	80076a2 <USBD_GetString+0x8>
 80076ac:	b2db      	uxtb	r3, r3
 80076ae:	3301      	adds	r3, #1
 80076b0:	005b      	lsls	r3, r3, #1
 80076b2:	8013      	strh	r3, [r2, #0]
 80076b4:	700b      	strb	r3, [r1, #0]
 80076b6:	2303      	movs	r3, #3
 80076b8:	704b      	strb	r3, [r1, #1]
 80076ba:	2302      	movs	r3, #2
 80076bc:	f810 4f01 	ldrb.w	r4, [r0, #1]!
 80076c0:	b904      	cbnz	r4, 80076c4 <USBD_GetString+0x2a>
 80076c2:	bd30      	pop	{r4, r5, pc}
 80076c4:	1c5a      	adds	r2, r3, #1
 80076c6:	54cc      	strb	r4, [r1, r3]
 80076c8:	b2d2      	uxtb	r2, r2
 80076ca:	3302      	adds	r3, #2
 80076cc:	b2db      	uxtb	r3, r3
 80076ce:	548d      	strb	r5, [r1, r2]
 80076d0:	e7f4      	b.n	80076bc <USBD_GetString+0x22>

080076d2 <USBD_CtlSendData>:
 80076d2:	4613      	mov	r3, r2
 80076d4:	2202      	movs	r2, #2
 80076d6:	b510      	push	{r4, lr}
 80076d8:	e9c0 3307 	strd	r3, r3, [r0, #28]
 80076dc:	f8c0 2294 	str.w	r2, [r0, #660]	; 0x294
 80076e0:	460a      	mov	r2, r1
 80076e2:	2100      	movs	r1, #0
 80076e4:	f000 fa15 	bl	8007b12 <USBD_LL_Transmit>
 80076e8:	2000      	movs	r0, #0
 80076ea:	bd10      	pop	{r4, pc}

080076ec <USBD_CtlContinueSendData>:
 80076ec:	b508      	push	{r3, lr}
 80076ee:	4613      	mov	r3, r2
 80076f0:	460a      	mov	r2, r1
 80076f2:	2100      	movs	r1, #0
 80076f4:	f000 fa0d 	bl	8007b12 <USBD_LL_Transmit>
 80076f8:	2000      	movs	r0, #0
 80076fa:	bd08      	pop	{r3, pc}

080076fc <USBD_CtlPrepareRx>:
 80076fc:	4613      	mov	r3, r2
 80076fe:	2203      	movs	r2, #3
 8007700:	b510      	push	{r4, lr}
 8007702:	e9c0 3357 	strd	r3, r3, [r0, #348]	; 0x15c
 8007706:	f8c0 2294 	str.w	r2, [r0, #660]	; 0x294
 800770a:	460a      	mov	r2, r1
 800770c:	2100      	movs	r1, #0
 800770e:	f000 fa09 	bl	8007b24 <USBD_LL_PrepareReceive>
 8007712:	2000      	movs	r0, #0
 8007714:	bd10      	pop	{r4, pc}

08007716 <USBD_CtlContinueRx>:
 8007716:	b508      	push	{r3, lr}
 8007718:	4613      	mov	r3, r2
 800771a:	460a      	mov	r2, r1
 800771c:	2100      	movs	r1, #0
 800771e:	f000 fa01 	bl	8007b24 <USBD_LL_PrepareReceive>
 8007722:	2000      	movs	r0, #0
 8007724:	bd08      	pop	{r3, pc}

08007726 <USBD_CtlSendStatus>:
 8007726:	b508      	push	{r3, lr}
 8007728:	2304      	movs	r3, #4
 800772a:	f8c0 3294 	str.w	r3, [r0, #660]	; 0x294
 800772e:	2300      	movs	r3, #0
 8007730:	461a      	mov	r2, r3
 8007732:	4619      	mov	r1, r3
 8007734:	f000 f9ed 	bl	8007b12 <USBD_LL_Transmit>
 8007738:	2000      	movs	r0, #0
 800773a:	bd08      	pop	{r3, pc}

0800773c <USBD_CtlReceiveStatus>:
 800773c:	b508      	push	{r3, lr}
 800773e:	2305      	movs	r3, #5
 8007740:	f8c0 3294 	str.w	r3, [r0, #660]	; 0x294
 8007744:	2300      	movs	r3, #0
 8007746:	461a      	mov	r2, r3
 8007748:	4619      	mov	r1, r3
 800774a:	f000 f9eb 	bl	8007b24 <USBD_LL_PrepareReceive>
 800774e:	2000      	movs	r0, #0
 8007750:	bd08      	pop	{r3, pc}
	...

08007754 <MX_USB_DEVICE_Init>:
 8007754:	b508      	push	{r3, lr}
 8007756:	2200      	movs	r2, #0
 8007758:	490e      	ldr	r1, [pc, #56]	; (8007794 <MX_USB_DEVICE_Init+0x40>)
 800775a:	480f      	ldr	r0, [pc, #60]	; (8007798 <MX_USB_DEVICE_Init+0x44>)
 800775c:	f7ff fc5f 	bl	800701e <USBD_Init>
 8007760:	b108      	cbz	r0, 8007766 <MX_USB_DEVICE_Init+0x12>
 8007762:	f7fb f985 	bl	8002a70 <Error_Handler>
 8007766:	490d      	ldr	r1, [pc, #52]	; (800779c <MX_USB_DEVICE_Init+0x48>)
 8007768:	480b      	ldr	r0, [pc, #44]	; (8007798 <MX_USB_DEVICE_Init+0x44>)
 800776a:	f7ff fc6d 	bl	8007048 <USBD_RegisterClass>
 800776e:	b108      	cbz	r0, 8007774 <MX_USB_DEVICE_Init+0x20>
 8007770:	f7fb f97e 	bl	8002a70 <Error_Handler>
 8007774:	490a      	ldr	r1, [pc, #40]	; (80077a0 <MX_USB_DEVICE_Init+0x4c>)
 8007776:	4808      	ldr	r0, [pc, #32]	; (8007798 <MX_USB_DEVICE_Init+0x44>)
 8007778:	f7ff fc0c 	bl	8006f94 <USBD_CDC_RegisterInterface>
 800777c:	b108      	cbz	r0, 8007782 <MX_USB_DEVICE_Init+0x2e>
 800777e:	f7fb f977 	bl	8002a70 <Error_Handler>
 8007782:	4805      	ldr	r0, [pc, #20]	; (8007798 <MX_USB_DEVICE_Init+0x44>)
 8007784:	f7ff fc67 	bl	8007056 <USBD_Start>
 8007788:	b118      	cbz	r0, 8007792 <MX_USB_DEVICE_Init+0x3e>
 800778a:	e8bd 4008 	ldmia.w	sp!, {r3, lr}
 800778e:	f7fb b96f 	b.w	8002a70 <Error_Handler>
 8007792:	bd08      	pop	{r3, pc}
 8007794:	20000150 	.word	0x20000150
 8007798:	200011f0 	.word	0x200011f0
 800779c:	20000030 	.word	0x20000030
 80077a0:	20000140 	.word	0x20000140

080077a4 <CDC_DeInit_FS>:
 80077a4:	2000      	movs	r0, #0
 80077a6:	4770      	bx	lr

080077a8 <CDC_Control_FS>:
 80077a8:	2000      	movs	r0, #0
 80077aa:	4770      	bx	lr

080077ac <CDC_Receive_FS>:
 80077ac:	4b07      	ldr	r3, [pc, #28]	; (80077cc <CDC_Receive_FS+0x20>)
 80077ae:	b510      	push	{r4, lr}
 80077b0:	681b      	ldr	r3, [r3, #0]
 80077b2:	4604      	mov	r4, r0
 80077b4:	b10b      	cbz	r3, 80077ba <CDC_Receive_FS+0xe>
 80077b6:	6809      	ldr	r1, [r1, #0]
 80077b8:	4798      	blx	r3
 80077ba:	4621      	mov	r1, r4
 80077bc:	4804      	ldr	r0, [pc, #16]	; (80077d0 <CDC_Receive_FS+0x24>)
 80077be:	f7ff fbf8 	bl	8006fb2 <USBD_CDC_SetRxBuffer>
 80077c2:	4803      	ldr	r0, [pc, #12]	; (80077d0 <CDC_Receive_FS+0x24>)
 80077c4:	f7ff fc14 	bl	8006ff0 <USBD_CDC_ReceivePacket>
 80077c8:	2000      	movs	r0, #0
 80077ca:	bd10      	pop	{r4, pc}
 80077cc:	20001cb4 	.word	0x20001cb4
 80077d0:	200011f0 	.word	0x200011f0

080077d4 <CDC_Init_FS>:
 80077d4:	b510      	push	{r4, lr}
 80077d6:	4c06      	ldr	r4, [pc, #24]	; (80077f0 <CDC_Init_FS+0x1c>)
 80077d8:	2200      	movs	r2, #0
 80077da:	4620      	mov	r0, r4
 80077dc:	4905      	ldr	r1, [pc, #20]	; (80077f4 <CDC_Init_FS+0x20>)
 80077de:	f7ff fbe0 	bl	8006fa2 <USBD_CDC_SetTxBuffer>
 80077e2:	4620      	mov	r0, r4
 80077e4:	4904      	ldr	r1, [pc, #16]	; (80077f8 <CDC_Init_FS+0x24>)
 80077e6:	f7ff fbe4 	bl	8006fb2 <USBD_CDC_SetRxBuffer>
 80077ea:	2000      	movs	r0, #0
 80077ec:	bd10      	pop	{r4, pc}
 80077ee:	bf00      	nop
 80077f0:	200011f0 	.word	0x200011f0
 80077f4:	200018b4 	.word	0x200018b4
 80077f8:	200014b4 	.word	0x200014b4

080077fc <CDC_Transmit_FS>:
 80077fc:	b510      	push	{r4, lr}
 80077fe:	4c09      	ldr	r4, [pc, #36]	; (8007824 <CDC_Transmit_FS+0x28>)
 8007800:	460a      	mov	r2, r1
 8007802:	f8d4 32b8 	ldr.w	r3, [r4, #696]	; 0x2b8
 8007806:	f8d3 3214 	ldr.w	r3, [r3, #532]	; 0x214
 800780a:	b943      	cbnz	r3, 800781e <CDC_Transmit_FS+0x22>
 800780c:	4601      	mov	r1, r0
 800780e:	4620      	mov	r0, r4
 8007810:	f7ff fbc7 	bl	8006fa2 <USBD_CDC_SetTxBuffer>
 8007814:	4620      	mov	r0, r4
 8007816:	e8bd 4010 	ldmia.w	sp!, {r4, lr}
 800781a:	f7ff bbd0 	b.w	8006fbe <USBD_CDC_TransmitPacket>
 800781e:	2001      	movs	r0, #1
 8007820:	bd10      	pop	{r4, pc}
 8007822:	bf00      	nop
 8007824:	200011f0 	.word	0x200011f0

08007828 <CDC_Attach_RxFun>:
 8007828:	4b01      	ldr	r3, [pc, #4]	; (8007830 <CDC_Attach_RxFun+0x8>)
 800782a:	6018      	str	r0, [r3, #0]
 800782c:	4770      	bx	lr
 800782e:	bf00      	nop
 8007830:	20001cb4 	.word	0x20001cb4

08007834 <USBD_FS_DeviceDescriptor>:
 8007834:	2312      	movs	r3, #18
 8007836:	4801      	ldr	r0, [pc, #4]	; (800783c <USBD_FS_DeviceDescriptor+0x8>)
 8007838:	800b      	strh	r3, [r1, #0]
 800783a:	4770      	bx	lr
 800783c:	2000016c 	.word	0x2000016c

08007840 <USBD_FS_LangIDStrDescriptor>:
 8007840:	2304      	movs	r3, #4
 8007842:	4801      	ldr	r0, [pc, #4]	; (8007848 <USBD_FS_LangIDStrDescriptor+0x8>)
 8007844:	800b      	strh	r3, [r1, #0]
 8007846:	4770      	bx	lr
 8007848:	20000180 	.word	0x20000180

0800784c <IntToUnicode>:
 800784c:	2300      	movs	r3, #0
 800784e:	b570      	push	{r4, r5, r6, lr}
 8007850:	461e      	mov	r6, r3
 8007852:	1c4d      	adds	r5, r1, #1
 8007854:	0f04      	lsrs	r4, r0, #28
 8007856:	f1b0 4f20 	cmp.w	r0, #2684354560	; 0xa0000000
 800785a:	bf34      	ite	cc
 800785c:	3430      	addcc	r4, #48	; 0x30
 800785e:	3437      	addcs	r4, #55	; 0x37
 8007860:	f801 4013 	strb.w	r4, [r1, r3, lsl #1]
 8007864:	f805 6013 	strb.w	r6, [r5, r3, lsl #1]
 8007868:	3301      	adds	r3, #1
 800786a:	b2dc      	uxtb	r4, r3
 800786c:	42a2      	cmp	r2, r4
 800786e:	ea4f 1000 	mov.w	r0, r0, lsl #4
 8007872:	d8ef      	bhi.n	8007854 <IntToUnicode+0x8>
 8007874:	bd70      	pop	{r4, r5, r6, pc}
	...

08007878 <USBD_FS_SerialStrDescriptor>:
 8007878:	231a      	movs	r3, #26
 800787a:	b510      	push	{r4, lr}
 800787c:	800b      	strh	r3, [r1, #0]
 800787e:	4b0a      	ldr	r3, [pc, #40]	; (80078a8 <USBD_FS_SerialStrDescriptor+0x30>)
 8007880:	f8d3 07e8 	ldr.w	r0, [r3, #2024]	; 0x7e8
 8007884:	f8d3 27f0 	ldr.w	r2, [r3, #2032]	; 0x7f0
 8007888:	1880      	adds	r0, r0, r2
 800788a:	d00a      	beq.n	80078a2 <USBD_FS_SerialStrDescriptor+0x2a>
 800788c:	f8d3 47ec 	ldr.w	r4, [r3, #2028]	; 0x7ec
 8007890:	4906      	ldr	r1, [pc, #24]	; (80078ac <USBD_FS_SerialStrDescriptor+0x34>)
 8007892:	2208      	movs	r2, #8
 8007894:	f7ff ffda 	bl	800784c <IntToUnicode>
 8007898:	2204      	movs	r2, #4
 800789a:	4620      	mov	r0, r4
 800789c:	3110      	adds	r1, #16
 800789e:	f7ff ffd5 	bl	800784c <IntToUnicode>
 80078a2:	4803      	ldr	r0, [pc, #12]	; (80078b0 <USBD_FS_SerialStrDescriptor+0x38>)
 80078a4:	bd10      	pop	{r4, pc}
 80078a6:	bf00      	nop
 80078a8:	1ffff000 	.word	0x1ffff000
 80078ac:	20000186 	.word	0x20000186
 80078b0:	20000184 	.word	0x20000184

080078b4 <USBD_FS_ManufacturerStrDescriptor>:
 80078b4:	b510      	push	{r4, lr}
 80078b6:	4c04      	ldr	r4, [pc, #16]	; (80078c8 <USBD_FS_ManufacturerStrDescriptor+0x14>)
 80078b8:	460a      	mov	r2, r1
 80078ba:	4804      	ldr	r0, [pc, #16]	; (80078cc <USBD_FS_ManufacturerStrDescriptor+0x18>)
 80078bc:	4621      	mov	r1, r4
 80078be:	f7ff feec 	bl	800769a <USBD_GetString>
 80078c2:	4620      	mov	r0, r4
 80078c4:	bd10      	pop	{r4, pc}
 80078c6:	bf00      	nop
 80078c8:	20001cb8 	.word	0x20001cb8
 80078cc:	08008042 	.word	0x08008042

080078d0 <USBD_FS_ProductStrDescriptor>:
 80078d0:	b510      	push	{r4, lr}
 80078d2:	4c04      	ldr	r4, [pc, #16]	; (80078e4 <USBD_FS_ProductStrDescriptor+0x14>)
 80078d4:	460a      	mov	r2, r1
 80078d6:	4804      	ldr	r0, [pc, #16]	; (80078e8 <USBD_FS_ProductStrDescriptor+0x18>)
 80078d8:	4621      	mov	r1, r4
 80078da:	f7ff fede 	bl	800769a <USBD_GetString>
 80078de:	4620      	mov	r0, r4
 80078e0:	bd10      	pop	{r4, pc}
 80078e2:	bf00      	nop
 80078e4:	20001cb8 	.word	0x20001cb8
 80078e8:	08008055 	.word	0x08008055

080078ec <USBD_FS_ConfigStrDescriptor>:
 80078ec:	b510      	push	{r4, lr}
 80078ee:	4c04      	ldr	r4, [pc, #16]	; (8007900 <USBD_FS_ConfigStrDescriptor+0x14>)
 80078f0:	460a      	mov	r2, r1
 80078f2:	4804      	ldr	r0, [pc, #16]	; (8007904 <USBD_FS_ConfigStrDescriptor+0x18>)
 80078f4:	4621      	mov	r1, r4
 80078f6:	f7ff fed0 	bl	800769a <USBD_GetString>
 80078fa:	4620      	mov	r0, r4
 80078fc:	bd10      	pop	{r4, pc}
 80078fe:	bf00      	nop
 8007900:	20001cb8 	.word	0x20001cb8
 8007904:	0800806b 	.word	0x0800806b

08007908 <USBD_FS_InterfaceStrDescriptor>:
 8007908:	b510      	push	{r4, lr}
 800790a:	4c04      	ldr	r4, [pc, #16]	; (800791c <USBD_FS_InterfaceStrDescriptor+0x14>)
 800790c:	460a      	mov	r2, r1
 800790e:	4804      	ldr	r0, [pc, #16]	; (8007920 <USBD_FS_InterfaceStrDescriptor+0x18>)
 8007910:	4621      	mov	r1, r4
 8007912:	f7ff fec2 	bl	800769a <USBD_GetString>
 8007916:	4620      	mov	r0, r4
 8007918:	bd10      	pop	{r4, pc}
 800791a:	bf00      	nop
 800791c:	20001cb8 	.word	0x20001cb8
 8007920:	08008076 	.word	0x08008076

08007924 <USBD_Get_USB_Status>:
 8007924:	2803      	cmp	r0, #3
 8007926:	bf9a      	itte	ls
 8007928:	4b01      	ldrls	r3, [pc, #4]	; (8007930 <USBD_Get_USB_Status+0xc>)
 800792a:	5c18      	ldrbls	r0, [r3, r0]
 800792c:	2002      	movhi	r0, #2
 800792e:	4770      	bx	lr
 8007930:	08008084 	.word	0x08008084

08007934 <HAL_PCD_MspInit>:
 8007934:	b507      	push	{r0, r1, r2, lr}
 8007936:	4b0e      	ldr	r3, [pc, #56]	; (8007970 <HAL_PCD_MspInit+0x3c>)
 8007938:	6802      	ldr	r2, [r0, #0]
 800793a:	429a      	cmp	r2, r3
 800793c:	d115      	bne.n	800796a <HAL_PCD_MspInit+0x36>
 800793e:	f503 33da 	add.w	r3, r3, #111616	; 0x1b400
 8007942:	69da      	ldr	r2, [r3, #28]
 8007944:	2014      	movs	r0, #20
 8007946:	f442 0200 	orr.w	r2, r2, #8388608	; 0x800000
 800794a:	61da      	str	r2, [r3, #28]
 800794c:	2200      	movs	r2, #0
 800794e:	69db      	ldr	r3, [r3, #28]
 8007950:	4611      	mov	r1, r2
 8007952:	f403 0300 	and.w	r3, r3, #8388608	; 0x800000
 8007956:	9301      	str	r3, [sp, #4]
 8007958:	9b01      	ldr	r3, [sp, #4]
 800795a:	f7fb fdfd 	bl	8003558 <HAL_NVIC_SetPriority>
 800795e:	2014      	movs	r0, #20
 8007960:	b003      	add	sp, #12
 8007962:	f85d eb04 	ldr.w	lr, [sp], #4
 8007966:	f7fb be27 	b.w	80035b8 <HAL_NVIC_EnableIRQ>
 800796a:	b003      	add	sp, #12
 800796c:	f85d fb04 	ldr.w	pc, [sp], #4
 8007970:	40005c00 	.word	0x40005c00

08007974 <HAL_PCD_SetupStageCallback>:
 8007974:	f500 712c 	add.w	r1, r0, #688	; 0x2b0
 8007978:	f8d0 02ec 	ldr.w	r0, [r0, #748]	; 0x2ec
 800797c:	f7ff bb84 	b.w	8007088 <USBD_LL_SetupStage>

08007980 <HAL_PCD_DataOutStageCallback>:
 8007980:	2328      	movs	r3, #40	; 0x28
 8007982:	fb03 0301 	mla	r3, r3, r1, r0
 8007986:	f8d0 02ec 	ldr.w	r0, [r0, #748]	; 0x2ec
 800798a:	f8d3 217c 	ldr.w	r2, [r3, #380]	; 0x17c
 800798e:	f7ff bba8 	b.w	80070e2 <USBD_LL_DataOutStage>

08007992 <HAL_PCD_DataInStageCallback>:
 8007992:	2328      	movs	r3, #40	; 0x28
 8007994:	fb03 0301 	mla	r3, r3, r1, r0
 8007998:	f8d0 02ec 	ldr.w	r0, [r0, #748]	; 0x2ec
 800799c:	6bda      	ldr	r2, [r3, #60]	; 0x3c
 800799e:	f7ff bbda 	b.w	8007156 <USBD_LL_DataInStage>

080079a2 <HAL_PCD_SOFCallback>:
 80079a2:	f8d0 02ec 	ldr.w	r0, [r0, #748]	; 0x2ec
 80079a6:	f7ff bc6e 	b.w	8007286 <USBD_LL_SOF>

080079aa <HAL_PCD_ResetCallback>:
 80079aa:	6883      	ldr	r3, [r0, #8]
 80079ac:	b510      	push	{r4, lr}
 80079ae:	2b02      	cmp	r3, #2
 80079b0:	4604      	mov	r4, r0
 80079b2:	d001      	beq.n	80079b8 <HAL_PCD_ResetCallback+0xe>
 80079b4:	f7fb f85c 	bl	8002a70 <Error_Handler>
 80079b8:	f8d4 02ec 	ldr.w	r0, [r4, #748]	; 0x2ec
 80079bc:	2101      	movs	r1, #1
 80079be:	f7ff fc4c 	bl	800725a <USBD_LL_SetSpeed>
 80079c2:	f8d4 02ec 	ldr.w	r0, [r4, #748]	; 0x2ec
 80079c6:	e8bd 4010 	ldmia.w	sp!, {r4, lr}
 80079ca:	f7ff bc1f 	b.w	800720c <USBD_LL_Reset>
	...

080079d0 <HAL_PCD_SuspendCallback>:
 80079d0:	b510      	push	{r4, lr}
 80079d2:	4604      	mov	r4, r0
 80079d4:	f8d0 02ec 	ldr.w	r0, [r0, #748]	; 0x2ec
 80079d8:	f7ff fc42 	bl	8007260 <USBD_LL_Suspend>
 80079dc:	69a3      	ldr	r3, [r4, #24]
 80079de:	b123      	cbz	r3, 80079ea <HAL_PCD_SuspendCallback+0x1a>
 80079e0:	4a02      	ldr	r2, [pc, #8]	; (80079ec <HAL_PCD_SuspendCallback+0x1c>)
 80079e2:	6913      	ldr	r3, [r2, #16]
 80079e4:	f043 0306 	orr.w	r3, r3, #6
 80079e8:	6113      	str	r3, [r2, #16]
 80079ea:	bd10      	pop	{r4, pc}
 80079ec:	e000ed00 	.word	0xe000ed00

080079f0 <HAL_PCD_ResumeCallback>:
 80079f0:	f8d0 02ec 	ldr.w	r0, [r0, #748]	; 0x2ec
 80079f4:	f7ff bc3d 	b.w	8007272 <USBD_LL_Resume>

080079f8 <USBD_LL_Init>:
 80079f8:	2308      	movs	r3, #8
 80079fa:	b510      	push	{r4, lr}
 80079fc:	4a1d      	ldr	r2, [pc, #116]	; (8007a74 <USBD_LL_Init+0x7c>)
 80079fe:	4604      	mov	r4, r0
 8007a00:	481d      	ldr	r0, [pc, #116]	; (8007a78 <USBD_LL_Init+0x80>)
 8007a02:	e9c0 2300 	strd	r2, r3, [r0]
 8007a06:	2302      	movs	r3, #2
 8007a08:	6083      	str	r3, [r0, #8]
 8007a0a:	2300      	movs	r3, #0
 8007a0c:	f8c0 42ec 	str.w	r4, [r0, #748]	; 0x2ec
 8007a10:	f8c4 02c0 	str.w	r0, [r4, #704]	; 0x2c0
 8007a14:	e9c0 3306 	strd	r3, r3, [r0, #24]
 8007a18:	6203      	str	r3, [r0, #32]
 8007a1a:	f7fc fcbb 	bl	8004394 <HAL_PCD_Init>
 8007a1e:	b108      	cbz	r0, 8007a24 <USBD_LL_Init+0x2c>
 8007a20:	f7fb f826 	bl	8002a70 <Error_Handler>
 8007a24:	2200      	movs	r2, #0
 8007a26:	2318      	movs	r3, #24
 8007a28:	4611      	mov	r1, r2
 8007a2a:	f8d4 02c0 	ldr.w	r0, [r4, #704]	; 0x2c0
 8007a2e:	f7fd fb29 	bl	8005084 <HAL_PCDEx_PMAConfig>
 8007a32:	2358      	movs	r3, #88	; 0x58
 8007a34:	2200      	movs	r2, #0
 8007a36:	2180      	movs	r1, #128	; 0x80
 8007a38:	f8d4 02c0 	ldr.w	r0, [r4, #704]	; 0x2c0
 8007a3c:	f7fd fb22 	bl	8005084 <HAL_PCDEx_PMAConfig>
 8007a40:	23c0      	movs	r3, #192	; 0xc0
 8007a42:	2200      	movs	r2, #0
 8007a44:	2181      	movs	r1, #129	; 0x81
 8007a46:	f8d4 02c0 	ldr.w	r0, [r4, #704]	; 0x2c0
 8007a4a:	f7fd fb1b 	bl	8005084 <HAL_PCDEx_PMAConfig>
 8007a4e:	f44f 7388 	mov.w	r3, #272	; 0x110
 8007a52:	2200      	movs	r2, #0
 8007a54:	2101      	movs	r1, #1
 8007a56:	f8d4 02c0 	ldr.w	r0, [r4, #704]	; 0x2c0
 8007a5a:	f7fd fb13 	bl	8005084 <HAL_PCDEx_PMAConfig>
 8007a5e:	f44f 7380 	mov.w	r3, #256	; 0x100
 8007a62:	2200      	movs	r2, #0
 8007a64:	2182      	movs	r1, #130	; 0x82
 8007a66:	f8d4 02c0 	ldr.w	r0, [r4, #704]	; 0x2c0
 8007a6a:	f7fd fb0b 	bl	8005084 <HAL_PCDEx_PMAConfig>
 8007a6e:	2000      	movs	r0, #0
 8007a70:	bd10      	pop	{r4, pc}
 8007a72:	bf00      	nop
 8007a74:	40005c00 	.word	0x40005c00
 8007a78:	20001eb8 	.word	0x20001eb8

08007a7c <USBD_LL_Start>:
 8007a7c:	b508      	push	{r3, lr}
 8007a7e:	f8d0 02c0 	ldr.w	r0, [r0, #704]	; 0x2c0
 8007a82:	f7fc fcff 	bl	8004484 <HAL_PCD_Start>
 8007a86:	e8bd 4008 	ldmia.w	sp!, {r3, lr}
 8007a8a:	f7ff bf4b 	b.w	8007924 <USBD_Get_USB_Status>

08007a8e <USBD_LL_OpenEP>:
 8007a8e:	b510      	push	{r4, lr}
 8007a90:	4614      	mov	r4, r2
 8007a92:	f8d0 02c0 	ldr.w	r0, [r0, #704]	; 0x2c0
 8007a96:	461a      	mov	r2, r3
 8007a98:	4623      	mov	r3, r4
 8007a9a:	f7fd f9fb 	bl	8004e94 <HAL_PCD_EP_Open>
 8007a9e:	e8bd 4010 	ldmia.w	sp!, {r4, lr}
 8007aa2:	f7ff bf3f 	b.w	8007924 <USBD_Get_USB_Status>

08007aa6 <USBD_LL_CloseEP>:
 8007aa6:	b508      	push	{r3, lr}
 8007aa8:	f8d0 02c0 	ldr.w	r0, [r0, #704]	; 0x2c0
 8007aac:	f7fd fa22 	bl	8004ef4 <HAL_PCD_EP_Close>
 8007ab0:	e8bd 4008 	ldmia.w	sp!, {r3, lr}
 8007ab4:	f7ff bf36 	b.w	8007924 <USBD_Get_USB_Status>

08007ab8 <USBD_LL_StallEP>:
 8007ab8:	b508      	push	{r3, lr}
 8007aba:	f8d0 02c0 	ldr.w	r0, [r0, #704]	; 0x2c0
 8007abe:	f7fd fa7b 	bl	8004fb8 <HAL_PCD_EP_SetStall>
 8007ac2:	e8bd 4008 	ldmia.w	sp!, {r3, lr}
 8007ac6:	f7ff bf2d 	b.w	8007924 <USBD_Get_USB_Status>

08007aca <USBD_LL_ClearStallEP>:
 8007aca:	b508      	push	{r3, lr}
 8007acc:	f8d0 02c0 	ldr.w	r0, [r0, #704]	; 0x2c0
 8007ad0:	f7fd faa6 	bl	8005020 <HAL_PCD_EP_ClrStall>
 8007ad4:	e8bd 4008 	ldmia.w	sp!, {r3, lr}
 8007ad8:	f7ff bf24 	b.w	8007924 <USBD_Get_USB_Status>

08007adc <USBD_LL_IsStallEP>:
 8007adc:	2228      	movs	r2, #40	; 0x28
 8007ade:	f011 0f80 	tst.w	r1, #128	; 0x80
 8007ae2:	f8d0 32c0 	ldr.w	r3, [r0, #704]	; 0x2c0
 8007ae6:	bf1b      	ittet	ne
 8007ae8:	f001 017f 	andne.w	r1, r1, #127	; 0x7f
 8007aec:	fb01 2202 	mlane	r2, r1, r2, r2
 8007af0:	fb02 3301 	mlaeq	r3, r2, r1, r3
 8007af4:	189b      	addne	r3, r3, r2
 8007af6:	bf14      	ite	ne
 8007af8:	7898      	ldrbne	r0, [r3, #2]
 8007afa:	f893 016a 	ldrbeq.w	r0, [r3, #362]	; 0x16a
 8007afe:	4770      	bx	lr

08007b00 <USBD_LL_SetUSBAddress>:
 8007b00:	b508      	push	{r3, lr}
 8007b02:	f8d0 02c0 	ldr.w	r0, [r0, #704]	; 0x2c0
 8007b06:	f7fc fcd6 	bl	80044b6 <HAL_PCD_SetAddress>
 8007b0a:	e8bd 4008 	ldmia.w	sp!, {r3, lr}
 8007b0e:	f7ff bf09 	b.w	8007924 <USBD_Get_USB_Status>

08007b12 <USBD_LL_Transmit>:
 8007b12:	b508      	push	{r3, lr}
 8007b14:	f8d0 02c0 	ldr.w	r0, [r0, #704]	; 0x2c0
 8007b18:	f7fd fa34 	bl	8004f84 <HAL_PCD_EP_Transmit>
 8007b1c:	e8bd 4008 	ldmia.w	sp!, {r3, lr}
 8007b20:	f7ff bf00 	b.w	8007924 <USBD_Get_USB_Status>

08007b24 <USBD_LL_PrepareReceive>:
 8007b24:	b508      	push	{r3, lr}
 8007b26:	f8d0 02c0 	ldr.w	r0, [r0, #704]	; 0x2c0
 8007b2a:	f7fd fa0c 	bl	8004f46 <HAL_PCD_EP_Receive>
 8007b2e:	e8bd 4008 	ldmia.w	sp!, {r3, lr}
 8007b32:	f7ff bef7 	b.w	8007924 <USBD_Get_USB_Status>

08007b36 <USBD_LL_GetRxDataSize>:
 8007b36:	f8d0 02c0 	ldr.w	r0, [r0, #704]	; 0x2c0
 8007b3a:	f7fd ba1b 	b.w	8004f74 <HAL_PCD_EP_GetRxCount>
	...

08007b40 <USBD_static_malloc>:
 8007b40:	4800      	ldr	r0, [pc, #0]	; (8007b44 <USBD_static_malloc+0x4>)
 8007b42:	4770      	bx	lr
 8007b44:	200021a8 	.word	0x200021a8

08007b48 <USBD_static_free>:
 8007b48:	4770      	bx	lr

08007b4a <HAL_PCDEx_SetConnectionState>:
 8007b4a:	4770      	bx	lr

08007b4c <__itoa>:
 8007b4c:	1e93      	subs	r3, r2, #2
 8007b4e:	2b22      	cmp	r3, #34	; 0x22
 8007b50:	b510      	push	{r4, lr}
 8007b52:	460c      	mov	r4, r1
 8007b54:	d904      	bls.n	8007b60 <__itoa+0x14>
 8007b56:	2300      	movs	r3, #0
 8007b58:	461c      	mov	r4, r3
 8007b5a:	700b      	strb	r3, [r1, #0]
 8007b5c:	4620      	mov	r0, r4
 8007b5e:	bd10      	pop	{r4, pc}
 8007b60:	2a0a      	cmp	r2, #10
 8007b62:	d109      	bne.n	8007b78 <__itoa+0x2c>
 8007b64:	2800      	cmp	r0, #0
 8007b66:	da07      	bge.n	8007b78 <__itoa+0x2c>
 8007b68:	232d      	movs	r3, #45	; 0x2d
 8007b6a:	700b      	strb	r3, [r1, #0]
 8007b6c:	2101      	movs	r1, #1
 8007b6e:	4240      	negs	r0, r0
 8007b70:	4421      	add	r1, r4
 8007b72:	f000 f805 	bl	8007b80 <__utoa>
 8007b76:	e7f1      	b.n	8007b5c <__itoa+0x10>
 8007b78:	2100      	movs	r1, #0
 8007b7a:	e7f9      	b.n	8007b70 <__itoa+0x24>

08007b7c <itoa>:
 8007b7c:	f7ff bfe6 	b.w	8007b4c <__itoa>

08007b80 <__utoa>:
 8007b80:	b5f0      	push	{r4, r5, r6, r7, lr}
 8007b82:	b08b      	sub	sp, #44	; 0x2c
 8007b84:	4605      	mov	r5, r0
 8007b86:	460b      	mov	r3, r1
 8007b88:	466e      	mov	r6, sp
 8007b8a:	4c1d      	ldr	r4, [pc, #116]	; (8007c00 <__utoa+0x80>)
 8007b8c:	f104 0c20 	add.w	ip, r4, #32
 8007b90:	4637      	mov	r7, r6
 8007b92:	6820      	ldr	r0, [r4, #0]
 8007b94:	6861      	ldr	r1, [r4, #4]
 8007b96:	3408      	adds	r4, #8
 8007b98:	c703      	stmia	r7!, {r0, r1}
 8007b9a:	4564      	cmp	r4, ip
 8007b9c:	463e      	mov	r6, r7
 8007b9e:	d1f7      	bne.n	8007b90 <__utoa+0x10>
 8007ba0:	7921      	ldrb	r1, [r4, #4]
 8007ba2:	6820      	ldr	r0, [r4, #0]
 8007ba4:	7139      	strb	r1, [r7, #4]
 8007ba6:	1e91      	subs	r1, r2, #2
 8007ba8:	2922      	cmp	r1, #34	; 0x22
 8007baa:	6038      	str	r0, [r7, #0]
 8007bac:	f04f 0100 	mov.w	r1, #0
 8007bb0:	d904      	bls.n	8007bbc <__utoa+0x3c>
 8007bb2:	7019      	strb	r1, [r3, #0]
 8007bb4:	460b      	mov	r3, r1
 8007bb6:	4618      	mov	r0, r3
 8007bb8:	b00b      	add	sp, #44	; 0x2c
 8007bba:	bdf0      	pop	{r4, r5, r6, r7, pc}
 8007bbc:	1e58      	subs	r0, r3, #1
 8007bbe:	4684      	mov	ip, r0
 8007bc0:	fbb5 f7f2 	udiv	r7, r5, r2
 8007bc4:	fb02 5617 	mls	r6, r2, r7, r5
 8007bc8:	3628      	adds	r6, #40	; 0x28
 8007bca:	446e      	add	r6, sp
 8007bcc:	f816 6c28 	ldrb.w	r6, [r6, #-40]
 8007bd0:	460c      	mov	r4, r1
 8007bd2:	f80c 6f01 	strb.w	r6, [ip, #1]!
 8007bd6:	462e      	mov	r6, r5
 8007bd8:	42b2      	cmp	r2, r6
 8007bda:	463d      	mov	r5, r7
 8007bdc:	f101 0101 	add.w	r1, r1, #1
 8007be0:	d9ee      	bls.n	8007bc0 <__utoa+0x40>
 8007be2:	2200      	movs	r2, #0
 8007be4:	545a      	strb	r2, [r3, r1]
 8007be6:	1919      	adds	r1, r3, r4
 8007be8:	1aa5      	subs	r5, r4, r2
 8007bea:	42aa      	cmp	r2, r5
 8007bec:	dae3      	bge.n	8007bb6 <__utoa+0x36>
 8007bee:	f810 5f01 	ldrb.w	r5, [r0, #1]!
 8007bf2:	780e      	ldrb	r6, [r1, #0]
 8007bf4:	3201      	adds	r2, #1
 8007bf6:	7006      	strb	r6, [r0, #0]
 8007bf8:	f801 5901 	strb.w	r5, [r1], #-1
 8007bfc:	e7f4      	b.n	8007be8 <__utoa+0x68>
 8007bfe:	bf00      	nop
 8007c00:	08008088 	.word	0x08008088

08007c04 <memset>:
 8007c04:	4603      	mov	r3, r0
 8007c06:	4402      	add	r2, r0
 8007c08:	4293      	cmp	r3, r2
 8007c0a:	d100      	bne.n	8007c0e <memset+0xa>
 8007c0c:	4770      	bx	lr
 8007c0e:	f803 1b01 	strb.w	r1, [r3], #1
 8007c12:	e7f9      	b.n	8007c08 <memset+0x4>

08007c14 <strncpy>:
 8007c14:	4603      	mov	r3, r0
 8007c16:	b510      	push	{r4, lr}
 8007c18:	3901      	subs	r1, #1
 8007c1a:	b132      	cbz	r2, 8007c2a <strncpy+0x16>
 8007c1c:	f811 4f01 	ldrb.w	r4, [r1, #1]!
 8007c20:	3a01      	subs	r2, #1
 8007c22:	f803 4b01 	strb.w	r4, [r3], #1
 8007c26:	2c00      	cmp	r4, #0
 8007c28:	d1f7      	bne.n	8007c1a <strncpy+0x6>
 8007c2a:	2100      	movs	r1, #0
 8007c2c:	441a      	add	r2, r3
 8007c2e:	4293      	cmp	r3, r2
 8007c30:	d100      	bne.n	8007c34 <strncpy+0x20>
 8007c32:	bd10      	pop	{r4, pc}
 8007c34:	f803 1b01 	strb.w	r1, [r3], #1
 8007c38:	e7f9      	b.n	8007c2e <strncpy+0x1a>
	...

08007c3c <__libc_init_array>:
 8007c3c:	b570      	push	{r4, r5, r6, lr}
 8007c3e:	2600      	movs	r6, #0
 8007c40:	4d0c      	ldr	r5, [pc, #48]	; (8007c74 <__libc_init_array+0x38>)
 8007c42:	4c0d      	ldr	r4, [pc, #52]	; (8007c78 <__libc_init_array+0x3c>)
 8007c44:	1b64      	subs	r4, r4, r5
 8007c46:	10a4      	asrs	r4, r4, #2
 8007c48:	42a6      	cmp	r6, r4
 8007c4a:	d109      	bne.n	8007c60 <__libc_init_array+0x24>
 8007c4c:	f000 f822 	bl	8007c94 <_init>
 8007c50:	2600      	movs	r6, #0
 8007c52:	4d0a      	ldr	r5, [pc, #40]	; (8007c7c <__libc_init_array+0x40>)
 8007c54:	4c0a      	ldr	r4, [pc, #40]	; (8007c80 <__libc_init_array+0x44>)
 8007c56:	1b64      	subs	r4, r4, r5
 8007c58:	10a4      	asrs	r4, r4, #2
 8007c5a:	42a6      	cmp	r6, r4
 8007c5c:	d105      	bne.n	8007c6a <__libc_init_array+0x2e>
 8007c5e:	bd70      	pop	{r4, r5, r6, pc}
 8007c60:	f855 3b04 	ldr.w	r3, [r5], #4
 8007c64:	4798      	blx	r3
 8007c66:	3601      	adds	r6, #1
 8007c68:	e7ee      	b.n	8007c48 <__libc_init_array+0xc>
 8007c6a:	f855 3b04 	ldr.w	r3, [r5], #4
 8007c6e:	4798      	blx	r3
 8007c70:	3601      	adds	r6, #1
 8007c72:	e7f2      	b.n	8007c5a <__libc_init_array+0x1e>
 8007c74:	080080b0 	.word	0x080080b0
 8007c78:	080080b0 	.word	0x080080b0
 8007c7c:	080080b0 	.word	0x080080b0
 8007c80:	080080b4 	.word	0x080080b4

08007c84 <strcpy>:
 8007c84:	4603      	mov	r3, r0
 8007c86:	f811 2b01 	ldrb.w	r2, [r1], #1
 8007c8a:	f803 2b01 	strb.w	r2, [r3], #1
 8007c8e:	2a00      	cmp	r2, #0
 8007c90:	d1f9      	bne.n	8007c86 <strcpy+0x2>
 8007c92:	4770      	bx	lr

08007c94 <_init>:
 8007c94:	b5f8      	push	{r3, r4, r5, r6, r7, lr}
 8007c96:	bf00      	nop
 8007c98:	bcf8      	pop	{r3, r4, r5, r6, r7}
 8007c9a:	bc08      	pop	{r3}
 8007c9c:	469e      	mov	lr, r3
 8007c9e:	4770      	bx	lr

08007ca0 <_fini>:
 8007ca0:	b5f8      	push	{r3, r4, r5, r6, r7, lr}
 8007ca2:	bf00      	nop
 8007ca4:	bcf8      	pop	{r3, r4, r5, r6, r7}
 8007ca6:	bc08      	pop	{r3}
 8007ca8:	469e      	mov	lr, r3
 8007caa:	4770      	bx	lr
